 CourseworkBase2020

 Timestamp is 6263341f (Sat Apr 23 00:02:55 2022)

 Preferred load address is 00400000

 Start         Length     Name                   Class
 0001:00000000 000077e0H .text$di                CODE
 0001:000077e0 00045510H .text$mn                CODE
 0001:0004ccf0 00004a80H .text$x                 CODE
 0001:00051770 00001012H .text$yd                CODE
 0002:00000000 00000104H .CRT$XCA                DATA
 0002:00000104 00000104H .CRT$XCAA               DATA
 0002:00000208 00000104H .CRT$XCL                DATA
 0002:0000030c 00000104H .CRT$XCZ                DATA
 0002:00000410 00000104H .CRT$XIA                DATA
 0002:00000514 00000104H .CRT$XIAA               DATA
 0002:00000618 00000104H .CRT$XIAC               DATA
 0002:0000071c 00000104H .CRT$XIZ                DATA
 0002:00000820 00000104H .CRT$XPA                DATA
 0002:00000924 00000104H .CRT$XPZ                DATA
 0002:00000a28 00000104H .CRT$XTA                DATA
 0002:00000b2c 00000104H .CRT$XTZ                DATA
 0002:00000c30 00010dd0H .rdata                  DATA
 0002:00011a00 00000104H .rdata$CastGuardVftablesA DATA
 0002:00011b04 00000104H .rdata$CastGuardVftablesC DATA
 0002:00011c08 00001f94H .rdata$r                DATA
 0002:00013b9c 000004d8H .rdata$sxdata           DATA
 0002:00014074 0000017cH .rdata$zzzdbg           DATA
 0002:000141f0 00000104H .rtc$IAA                DATA
 0002:000142f4 00000104H .rtc$IZZ                DATA
 0002:000143f8 00000104H .rtc$TAA                DATA
 0002:000144fc 00000104H .rtc$TZZ                DATA
 0002:00014600 000035e3H .xdata$x                DATA
 0002:00017be3 00000000H .edata                  DATA
 0003:00000000 00000138H .data                   DATA
 0003:00000138 000001c4H .data$r                 DATA
 0003:000002fc 00000d1cH .data$rs                DATA
 0003:00001018 00000458H .bss                    DATA
 0004:00000000 000004b8H .idata$5                DATA
 0004:000004b8 0000008cH .idata$2                DATA
 0004:00000544 00000014H .idata$3                DATA
 0004:00000558 000004b8H .idata$4                DATA
 0004:00000a10 00001b36H .idata$6                DATA
 0005:00000000 00000109H .00cfg                  DATA
 0006:00000000 00000170H .rsrc$01                DATA
 0006:00000170 000002ccH .rsrc$02                DATA

  Address         Publics by Value              Rva+Base       Lib:Object

 0000:00000000       ___guard_iat_table         00000000     <absolute>
 0000:00000000       ___guard_fids_table        00000000     <absolute>
 0000:00000000       ___guard_eh_cont_count     00000000     <absolute>
 0000:00000000       ___x64_code_ranges_to_entry_points 00000000     <absolute>
 0000:00000000       ___enclave_config          00000000     <absolute>
 0000:00000000       ___guard_longjmp_count     00000000     <absolute>
 0000:00000000       ___arm64x_redirection_metadata 00000000     <absolute>
 0000:00000000       ___guard_fids_count        00000000     <absolute>
 0000:00000000       ___arm64x_redirection_metadata_count 00000000     <absolute>
 0000:00000000       ___guard_iat_count         00000000     <absolute>
 0000:00000000       ___dynamic_value_reloc_table 00000000     <absolute>
 0000:00000000       ___hybrid_auxiliary_iat_copy 00000000     <absolute>
 0000:00000000       ___arm64x_extra_rfe_table  00000000     <absolute>
 0000:00000000       ___volatile_metadata       00000000     <absolute>
 0000:00000000       ___hybrid_auxiliary_iat    00000000     <absolute>
 0000:00000000       ___arm64x_extra_rfe_table_size 00000000     <absolute>
 0000:00000000       ___AbsoluteZero            00000000     <absolute>
 0000:00000000       ___hybrid_code_map_count   00000000     <absolute>
 0000:00000000       ___arm64x_native_entrypoint 00000000     <absolute>
 0000:00000000       ___guard_eh_cont_table     00000000     <absolute>
 0000:00000000       ___guard_longjmp_table     00000000     <absolute>
 0000:00000000       ___guard_check_icall_a64n_fptr 00000000     <absolute>
 0000:00000000       ___hybrid_code_map         00000000     <absolute>
 0000:00000000       ___x64_code_ranges_to_entry_points_count 00000000     <absolute>
 0000:000000cd       ___safe_se_handler_count   000000cd     <absolute>
 0000:00000100       ___guard_flags             00000100     <absolute>
 0000:00000000       ___ImageBase               00400000     <linker-defined>
 0001:000077e0       ?virtInitialise@ChooseLevelState@@UAEHPAVScyyz12Engine2@@@Z 004087e0 f   ChooseLevelState.obj
 0001:00007800       ?virtSetupBackgroundBuffer@ChooseLevelState@@UAEXPAVScyyz12Engine2@@@Z 00408800 f   ChooseLevelState.obj
 0001:000078e0       ?virtDrawStringsOnTop@ChooseLevelState@@UAEXPAVScyyz12Engine2@@@Z 004088e0 f   ChooseLevelState.obj
 0001:00007bc0       ?virtInitialiseObjects@ChooseLevelState@@UAEHPAVScyyz12Engine2@@@Z 00408bc0 f   ChooseLevelState.obj
 0001:00007be0       ?virtMouseDown@ChooseLevelState@@UAEXPAVScyyz12Engine2@@HHH@Z 00408be0 f   ChooseLevelState.obj
 0001:00007c40       ?virtMouseWheel@ChooseLevelState@@UAEXPAVScyyz12Engine2@@HHHH@Z 00408c40 f   ChooseLevelState.obj
 0001:00007c70       ?virtMainLoopDoBeforeUpdate@ChooseLevelState@@UAEXPAVScyyz12Engine2@@@Z 00408c70 f   ChooseLevelState.obj
 0001:00007ca0       ?copyAllBackgroundBuffer@ChooseLevelState@@UAEXPAVScyyz12Engine2@@@Z 00408ca0 f   ChooseLevelState.obj
 0001:00007d60       ?virtKeyDown@ChooseLevelState@@UAEXPAVScyyz12Engine2@@H@Z 00408d60 f   ChooseLevelState.obj
 0001:00007d80       ?virtCreateSurfaces@ChooseLevelState@@UAEXPAVScyyz12Engine2@@@Z 00408d80 f   ChooseLevelState.obj
 0001:00007f10       ??$?0$$V@?$_Compressed_pair@V?$allocator@D@std@@V?$_String_val@U?$_Simple_types@D@std@@@2@$00@std@@QAE@U_Zero_then_variadic_args_t@1@@Z 00408f10 f i ChooseLevelState.obj
 0001:00007f40       ??$?0$$V@?$_Compressed_pair@V?$allocator@U?$_Tree_node@U?$pair@$$CBV?$basic_string@DU?$char_traits@D@std@@V?$allocator@D@2@@std@@V?$shared_ptr@VRawImageData@@@2@@std@@PAX@std@@@std@@V?$_Tree_val@U?$_Tree_simple_types@U?$pair@$$CBV?$basic_string@DU?$char_traits@D@std@@V?$allocator@D@2@@std@@V?$shared_ptr@VRawImageData@@@2@@std@@@std@@@2@$00@std@@QAE@U_Zero_then_variadic_args_t@1@@Z 00408f40 f i ChooseLevelState.obj
 0001:00007f70       ??$?0$$V@?$_Compressed_pair@V?$allocator@U?$_Tree_node@U?$pair@$$CBV?$basic_string@DU?$char_traits@D@std@@V?$allocator@D@2@@std@@V?$weak_ptr@VRawImageData@@@2@@std@@PAX@std@@@std@@V?$_Tree_val@U?$_Tree_simple_types@U?$pair@$$CBV?$basic_string@DU?$char_traits@D@std@@V?$allocator@D@2@@std@@V?$weak_ptr@VRawImageData@@@2@@std@@@std@@@2@$00@std@@QAE@U_Zero_then_variadic_args_t@1@@Z 00408f70 f i ChooseLevelState.obj
 0001:00007fa0       ??$?0AAPAU?$_Tree_node@U?$pair@$$CBV?$basic_string@DU?$char_traits@D@std@@V?$allocator@D@2@@std@@V?$shared_ptr@VRawImageData@@@2@@std@@PAX@std@@_N$0A@@?$pair@PAU?$_Tree_node@U?$pair@$$CBV?$basic_string@DU?$char_traits@D@std@@V?$allocator@D@2@@std@@V?$shared_ptr@VRawImageData@@@2@@std@@PAX@std@@_N@std@@QAE@AAPAU?$_Tree_node@U?$pair@$$CBV?$basic_string@DU?$char_traits@D@std@@V?$allocator@D@2@@std@@V?$shared_ptr@VRawImageData@@@2@@std@@PAX@1@$$QA_N@Z 00408fa0 f i ChooseLevelState.obj
 0001:00007ff0       ??$?0AAPAU?$_Tree_node@U?$pair@$$CBV?$basic_string@DU?$char_traits@D@std@@V?$allocator@D@2@@std@@V?$weak_ptr@VRawImageData@@@2@@std@@PAX@std@@_N$0A@@?$pair@PAU?$_Tree_node@U?$pair@$$CBV?$basic_string@DU?$char_traits@D@std@@V?$allocator@D@2@@std@@V?$weak_ptr@VRawImageData@@@2@@std@@PAX@std@@_N@std@@QAE@AAPAU?$_Tree_node@U?$pair@$$CBV?$basic_string@DU?$char_traits@D@std@@V?$allocator@D@2@@std@@V?$weak_ptr@VRawImageData@@@2@@std@@PAX@1@$$QA_N@Z 00408ff0 f i ChooseLevelState.obj
 0001:00008040       ??$?0AAV?$basic_string@DU?$char_traits@D@std@@V?$allocator@D@2@@std@@AAV?$shared_ptr@VRawImageData@@@1@$0A@@?$pair@V?$basic_string@DU?$char_traits@D@std@@V?$allocator@D@2@@std@@V?$shared_ptr@VRawImageData@@@2@@std@@QAE@AAV?$basic_string@DU?$char_traits@D@std@@V?$allocator@D@2@@1@AAV?$shared_ptr@VRawImageData@@@1@@Z 00409040 f i ChooseLevelState.obj
 0001:00008090       ??$?0AAV?$basic_string@DU?$char_traits@D@std@@V?$allocator@D@2@@std@@AAV?$weak_ptr@VRawImageData@@@1@$0A@@?$pair@V?$basic_string@DU?$char_traits@D@std@@V?$allocator@D@2@@std@@V?$weak_ptr@VRawImageData@@@2@@std@@QAE@AAV?$basic_string@DU?$char_traits@D@std@@V?$allocator@D@2@@1@AAV?$weak_ptr@VRawImageData@@@1@@Z 00409090 f i ChooseLevelState.obj
 0001:000080e0       ??$?0ABU?$less@V?$basic_string@DU?$char_traits@D@std@@V?$allocator@D@2@@std@@@std@@U_Zero_then_variadic_args_t@1@@?$_Compressed_pair@U?$less@V?$basic_string@DU?$char_traits@D@std@@V?$allocator@D@2@@std@@@std@@V?$_Compressed_pair@V?$allocator@U?$_Tree_node@U?$pair@$$CBV?$basic_string@DU?$char_traits@D@std@@V?$allocator@D@2@@std@@V?$shared_ptr@VRawImageData@@@2@@std@@PAX@std@@@std@@V?$_Tree_val@U?$_Tree_simple_types@U?$pair@$$CBV?$basic_string@DU?$char_traits@D@std@@V?$allocator@D@2@@std@@V?$shared_ptr@VRawImageData@@@2@@std@@@std@@@2@$00@2@$00@std@@QAE@U_One_then_variadic_args_t@1@ABU?$less@V?$basic_string@DU?$char_traits@D@std@@V?$allocator@D@2@@std@@@1@$$QAU_Zero_then_variadic_args_t@1@@Z 004090e0 f i ChooseLevelState.obj
 0001:00008130       ??$?0ABU?$less@V?$basic_string@DU?$char_traits@D@std@@V?$allocator@D@2@@std@@@std@@U_Zero_then_variadic_args_t@1@@?$_Compressed_pair@U?$less@V?$basic_string@DU?$char_traits@D@std@@V?$allocator@D@2@@std@@@std@@V?$_Compressed_pair@V?$allocator@U?$_Tree_node@U?$pair@$$CBV?$basic_string@DU?$char_traits@D@std@@V?$allocator@D@2@@std@@V?$weak_ptr@VRawImageData@@@2@@std@@PAX@std@@@std@@V?$_Tree_val@U?$_Tree_simple_types@U?$pair@$$CBV?$basic_string@DU?$char_traits@D@std@@V?$allocator@D@2@@std@@V?$weak_ptr@VRawImageData@@@2@@std@@@std@@@2@$00@2@$00@std@@QAE@U_One_then_variadic_args_t@1@ABU?$less@V?$basic_string@DU?$char_traits@D@std@@V?$allocator@D@2@@std@@@1@$$QAU_Zero_then_variadic_args_t@1@@Z 00409130 f i ChooseLevelState.obj
 0001:00008180       ??$?0D@?$allocator@U_Container_proxy@std@@@std@@QAE@ABV?$allocator@D@1@@Z 00409180 f i ChooseLevelState.obj
 0001:000081a0       ??$?0PAU?$_Tree_node@U?$pair@$$CBV?$basic_string@DU?$char_traits@D@std@@V?$allocator@D@2@@std@@V?$shared_ptr@VRawImageData@@@2@@std@@PAX@std@@_N$0A@@?$pair@PAU?$_Tree_node@U?$pair@$$CBV?$basic_string@DU?$char_traits@D@std@@V?$allocator@D@2@@std@@V?$shared_ptr@VRawImageData@@@2@@std@@PAX@std@@_N@std@@QAE@$$QAPAU?$_Tree_node@U?$pair@$$CBV?$basic_string@DU?$char_traits@D@std@@V?$allocator@D@2@@std@@V?$shared_ptr@VRawImageData@@@2@@std@@PAX@1@$$QA_N@Z 004091a0 f i ChooseLevelState.obj
 0001:000081f0       ??$?0PAU?$_Tree_node@U?$pair@$$CBV?$basic_string@DU?$char_traits@D@std@@V?$allocator@D@2@@std@@V?$weak_ptr@VRawImageData@@@2@@std@@PAX@std@@_N$0A@@?$pair@PAU?$_Tree_node@U?$pair@$$CBV?$basic_string@DU?$char_traits@D@std@@V?$allocator@D@2@@std@@V?$weak_ptr@VRawImageData@@@2@@std@@PAX@std@@_N@std@@QAE@$$QAPAU?$_Tree_node@U?$pair@$$CBV?$basic_string@DU?$char_traits@D@std@@V?$allocator@D@2@@std@@V?$weak_ptr@VRawImageData@@@2@@std@@PAX@1@$$QA_N@Z 004091f0 f i ChooseLevelState.obj
 0001:00008240       ??$?0U?$_Tree_node@U?$pair@$$CBV?$basic_string@DU?$char_traits@D@std@@V?$allocator@D@2@@std@@V?$shared_ptr@VRawImageData@@@2@@std@@PAX@std@@@?$allocator@U_Container_proxy@std@@@std@@QAE@ABV?$allocator@U?$_Tree_node@U?$pair@$$CBV?$basic_string@DU?$char_traits@D@std@@V?$allocator@D@2@@std@@V?$shared_ptr@VRawImageData@@@2@@std@@PAX@std@@@1@@Z 00409240 f i ChooseLevelState.obj
 0001:00008260       ??$?0U?$_Tree_node@U?$pair@$$CBV?$basic_string@DU?$char_traits@D@std@@V?$allocator@D@2@@std@@V?$weak_ptr@VRawImageData@@@2@@std@@PAX@std@@@?$allocator@U_Container_proxy@std@@@std@@QAE@ABV?$allocator@U?$_Tree_node@U?$pair@$$CBV?$basic_string@DU?$char_traits@D@std@@V?$allocator@D@2@@std@@V?$weak_ptr@VRawImageData@@@2@@std@@PAX@std@@@1@@Z 00409260 f i ChooseLevelState.obj
 0001:00008280       ??$?0U?$pair@V?$basic_string@DU?$char_traits@D@std@@V?$allocator@D@2@@std@@V?$shared_ptr@VRawImageData@@@2@@std@@@?$_Tree_temp_node@V?$allocator@U?$_Tree_node@U?$pair@$$CBV?$basic_string@DU?$char_traits@D@std@@V?$allocator@D@2@@std@@V?$shared_ptr@VRawImageData@@@2@@std@@PAX@std@@@std@@@std@@QAE@AAV?$allocator@U?$_Tree_node@U?$pair@$$CBV?$basic_string@DU?$char_traits@D@std@@V?$allocator@D@2@@std@@V?$shared_ptr@VRawImageData@@@2@@std@@PAX@std@@@1@PAU?$_Tree_node@U?$pair@$$CBV?$basic_string@DU?$char_traits@D@std@@V?$allocator@D@2@@std@@V?$shared_ptr@VRawImageData@@@2@@std@@PAX@1@$$QAU?$pair@V?$basic_string@DU?$char_traits@D@std@@V?$allocator@D@2@@std@@V?$shared_ptr@VRawImageData@@@2@@1@@Z 00409280 f i ChooseLevelState.obj
 0001:00008390       ??$?0U?$pair@V?$basic_string@DU?$char_traits@D@std@@V?$allocator@D@2@@std@@V?$weak_ptr@VRawImageData@@@2@@std@@@?$_Tree_temp_node@V?$allocator@U?$_Tree_node@U?$pair@$$CBV?$basic_string@DU?$char_traits@D@std@@V?$allocator@D@2@@std@@V?$weak_ptr@VRawImageData@@@2@@std@@PAX@std@@@std@@@std@@QAE@AAV?$allocator@U?$_Tree_node@U?$pair@$$CBV?$basic_string@DU?$char_traits@D@std@@V?$allocator@D@2@@std@@V?$weak_ptr@VRawImageData@@@2@@std@@PAX@std@@@1@PAU?$_Tree_node@U?$pair@$$CBV?$basic_string@DU?$char_traits@D@std@@V?$allocator@D@2@@std@@V?$weak_ptr@VRawImageData@@@2@@std@@PAX@1@$$QAU?$pair@V?$basic_string@DU?$char_traits@D@std@@V?$allocator@D@2@@std@@V?$weak_ptr@VRawImageData@@@2@@1@@Z 00409390 f i ChooseLevelState.obj
 0001:000084a0       ??$?0V?$_Tree_iterator@V?$_Tree_val@U?$_Tree_simple_types@U?$pair@$$CBV?$basic_string@DU?$char_traits@D@std@@V?$allocator@D@2@@std@@V?$shared_ptr@VRawImageData@@@2@@std@@@std@@@std@@@std@@AB_N$0A@@?$pair@V?$_Tree_iterator@V?$_Tree_val@U?$_Tree_simple_types@U?$pair@$$CBV?$basic_string@DU?$char_traits@D@std@@V?$allocator@D@2@@std@@V?$shared_ptr@VRawImageData@@@2@@std@@@std@@@std@@@std@@_N@std@@QAE@$$QAV?$_Tree_iterator@V?$_Tree_val@U?$_Tree_simple_types@U?$pair@$$CBV?$basic_string@DU?$char_traits@D@std@@V?$allocator@D@2@@std@@V?$shared_ptr@VRawImageData@@@2@@std@@@std@@@std@@@1@AB_N@Z 004094a0 f i ChooseLevelState.obj
 0001:000084f0       ??$?0V?$_Tree_iterator@V?$_Tree_val@U?$_Tree_simple_types@U?$pair@$$CBV?$basic_string@DU?$char_traits@D@std@@V?$allocator@D@2@@std@@V?$weak_ptr@VRawImageData@@@2@@std@@@std@@@std@@@std@@AB_N$0A@@?$pair@V?$_Tree_iterator@V?$_Tree_val@U?$_Tree_simple_types@U?$pair@$$CBV?$basic_string@DU?$char_traits@D@std@@V?$allocator@D@2@@std@@V?$weak_ptr@VRawImageData@@@2@@std@@@std@@@std@@@std@@_N@std@@QAE@$$QAV?$_Tree_iterator@V?$_Tree_val@U?$_Tree_simple_types@U?$pair@$$CBV?$basic_string@DU?$char_traits@D@std@@V?$allocator@D@2@@std@@V?$weak_ptr@VRawImageData@@@2@@std@@@std@@@std@@@1@AB_N@Z 004094f0 f i ChooseLevelState.obj
 0001:00008540       ??$?0V?$allocator@D@std@@$$V@?$_Compressed_pair@V?$allocator@D@std@@V?$_String_val@U?$_Simple_types@D@std@@@2@$00@std@@QAE@U_One_then_variadic_args_t@1@$$QAV?$allocator@D@1@@Z 00409540 f i ChooseLevelState.obj
 0001:00008570       ??$?0V?$basic_string@DU?$char_traits@D@std@@V?$allocator@D@2@@std@@V?$shared_ptr@VRawImageData@@@1@$0A@@?$pair@$$CBV?$basic_string@DU?$char_traits@D@std@@V?$allocator@D@2@@std@@V?$shared_ptr@VRawImageData@@@2@@std@@QAE@$$QAU?$pair@V?$basic_string@DU?$char_traits@D@std@@V?$allocator@D@2@@std@@V?$shared_ptr@VRawImageData@@@2@@1@@Z 00409570 f i ChooseLevelState.obj
 0001:000085c0       ??$?0V?$basic_string@DU?$char_traits@D@std@@V?$allocator@D@2@@std@@V?$weak_ptr@VRawImageData@@@1@$0A@@?$pair@$$CBV?$basic_string@DU?$char_traits@D@std@@V?$allocator@D@2@@std@@V?$weak_ptr@VRawImageData@@@2@@std@@QAE@$$QAU?$pair@V?$basic_string@DU?$char_traits@D@std@@V?$allocator@D@2@@std@@V?$weak_ptr@VRawImageData@@@2@@1@@Z 004095c0 f i ChooseLevelState.obj
 0001:00008610       ??$?0VRawImageData@@$0A@@?$shared_ptr@VRawImageData@@@std@@QAE@PAVRawImageData@@@Z 00409610 f i ChooseLevelState.obj
 0001:00008700       ??$?0VRawImageData@@$0A@@?$weak_ptr@VRawImageData@@@std@@QAE@ABV?$shared_ptr@VRawImageData@@@1@@Z 00409700 f i ChooseLevelState.obj
 0001:00008730       ??$?6DU?$char_traits@D@std@@V?$allocator@D@1@@std@@YAAAV?$basic_ostream@DU?$char_traits@D@std@@@0@AAV10@ABV?$basic_string@DU?$char_traits@D@std@@V?$allocator@D@2@@0@@Z 00409730 f i ChooseLevelState.obj
 0001:00008760       ??$?6U?$char_traits@D@std@@@std@@YAAAV?$basic_ostream@DU?$char_traits@D@std@@@0@AAV10@PBD@Z 00409760 f i ChooseLevelState.obj
 0001:00008b60       ??$?9VRawImageData@@@std@@YA_NABV?$shared_ptr@VRawImageData@@@0@$$T@Z 00409b60 f i ChooseLevelState.obj
 0001:00008b90       ??$?CVRawImageData@@$0A@@?$shared_ptr@VRawImageData@@@std@@QBEPAVRawImageData@@XZ 00409b90 f i ChooseLevelState.obj
 0001:00008bb0       ??$?MDU?$char_traits@D@std@@V?$allocator@D@1@@std@@YA_NABV?$basic_string@DU?$char_traits@D@std@@V?$allocator@D@2@@0@0@Z 00409bb0 f i ChooseLevelState.obj
 0001:00008bf0       ??$_Alloc_proxy@V?$allocator@U_Container_proxy@std@@@std@@@_Container_base12@std@@QAEX$$QAV?$allocator@U_Container_proxy@std@@@1@@Z 00409bf0 f i ChooseLevelState.obj
 0001:00008c50       ??$_Allocate@$07U_Default_allocate_traits@std@@$0A@@std@@YAPAXI@Z 00409c50 f i ChooseLevelState.obj
 0001:00008c90       ??$_Allocate_manually_vector_aligned@U_Default_allocate_traits@std@@@std@@YAPAXI@Z 00409c90 f i ChooseLevelState.obj
 0001:00008d80       ??$_Buyheadnode@V?$allocator@U?$_Tree_node@U?$pair@$$CBV?$basic_string@DU?$char_traits@D@std@@V?$allocator@D@2@@std@@V?$shared_ptr@VRawImageData@@@2@@std@@PAX@std@@@std@@@?$_Tree_node@U?$pair@$$CBV?$basic_string@DU?$char_traits@D@std@@V?$allocator@D@2@@std@@V?$shared_ptr@VRawImageData@@@2@@std@@PAX@std@@SAPAU01@AAV?$allocator@U?$_Tree_node@U?$pair@$$CBV?$basic_string@DU?$char_traits@D@std@@V?$allocator@D@2@@std@@V?$shared_ptr@VRawImageData@@@2@@std@@PAX@std@@@1@@Z 00409d80 f i ChooseLevelState.obj
 0001:00008e00       ??$_Buyheadnode@V?$allocator@U?$_Tree_node@U?$pair@$$CBV?$basic_string@DU?$char_traits@D@std@@V?$allocator@D@2@@std@@V?$weak_ptr@VRawImageData@@@2@@std@@PAX@std@@@std@@@?$_Tree_node@U?$pair@$$CBV?$basic_string@DU?$char_traits@D@std@@V?$allocator@D@2@@std@@V?$weak_ptr@VRawImageData@@@2@@std@@PAX@std@@SAPAU01@AAV?$allocator@U?$_Tree_node@U?$pair@$$CBV?$basic_string@DU?$char_traits@D@std@@V?$allocator@D@2@@std@@V?$weak_ptr@VRawImageData@@@2@@std@@PAX@std@@@1@@Z 00409e00 f i ChooseLevelState.obj
 0001:00008e80       ??$_Construct_from_weak@VRawImageData@@@?$_Ptr_base@VRawImageData@@@std@@IAE_NABV?$weak_ptr@VRawImageData@@@1@@Z 00409e80 f i ChooseLevelState.obj
 0001:00008ee0       ??$_Construct_in_place@PADAAPAD@std@@YAXAAPAD0@Z 00409ee0 f i ChooseLevelState.obj
 0001:00008f30       ??$_Construct_in_place@PADABQAD@std@@YAXAAPADABQAD@Z 00409f30 f i ChooseLevelState.obj
 0001:00008f80       ??$_Construct_in_place@PAU?$_Tree_node@U?$pair@$$CBV?$basic_string@DU?$char_traits@D@std@@V?$allocator@D@2@@std@@V?$shared_ptr@VRawImageData@@@2@@std@@PAX@std@@AAPAU12@@std@@YAXAAPAU?$_Tree_node@U?$pair@$$CBV?$basic_string@DU?$char_traits@D@std@@V?$allocator@D@2@@std@@V?$shared_ptr@VRawImageData@@@2@@std@@PAX@0@0@Z 00409f80 f i ChooseLevelState.obj
 0001:00008fd0       ??$_Construct_in_place@PAU?$_Tree_node@U?$pair@$$CBV?$basic_string@DU?$char_traits@D@std@@V?$allocator@D@2@@std@@V?$shared_ptr@VRawImageData@@@2@@std@@PAX@std@@ABQAU12@@std@@YAXAAPAU?$_Tree_node@U?$pair@$$CBV?$basic_string@DU?$char_traits@D@std@@V?$allocator@D@2@@std@@V?$shared_ptr@VRawImageData@@@2@@std@@PAX@0@ABQAU10@@Z 00409fd0 f i ChooseLevelState.obj
 0001:00009020       ??$_Construct_in_place@PAU?$_Tree_node@U?$pair@$$CBV?$basic_string@DU?$char_traits@D@std@@V?$allocator@D@2@@std@@V?$weak_ptr@VRawImageData@@@2@@std@@PAX@std@@AAPAU12@@std@@YAXAAPAU?$_Tree_node@U?$pair@$$CBV?$basic_string@DU?$char_traits@D@std@@V?$allocator@D@2@@std@@V?$weak_ptr@VRawImageData@@@2@@std@@PAX@0@0@Z 0040a020 f i ChooseLevelState.obj
 0001:00009070       ??$_Construct_in_place@PAU?$_Tree_node@U?$pair@$$CBV?$basic_string@DU?$char_traits@D@std@@V?$allocator@D@2@@std@@V?$weak_ptr@VRawImageData@@@2@@std@@PAX@std@@ABQAU12@@std@@YAXAAPAU?$_Tree_node@U?$pair@$$CBV?$basic_string@DU?$char_traits@D@std@@V?$allocator@D@2@@std@@V?$weak_ptr@VRawImageData@@@2@@std@@PAX@0@ABQAU10@@Z 0040a070 f i ChooseLevelState.obj
 0001:000090c0       ??$_Construct_in_place@U_Container_proxy@std@@PAU_Container_base12@2@@std@@YAXAAU_Container_proxy@0@$$QAPAU_Container_base12@0@@Z 0040a0c0 f i ChooseLevelState.obj
 0001:00009120       ??$_Convert_size@I@std@@YAII@Z 0040a120 f i ChooseLevelState.obj
 0001:00009130       ??$_Copy_construct_from@VRawImageData@@@?$_Ptr_base@VRawImageData@@@std@@IAEXABV?$shared_ptr@VRawImageData@@@1@@Z 0040a130 f i ChooseLevelState.obj
 0001:00009170       ??$_Deallocate@$07$0A@@std@@YAXPAXI@Z 0040a170 f i ChooseLevelState.obj
 0001:000091f0       ??$_Deallocate_plain@V?$allocator@U_Container_proxy@std@@@std@@@std@@YAXAAV?$allocator@U_Container_proxy@std@@@0@QAU_Container_proxy@0@@Z 0040a1f0 f i ChooseLevelState.obj
 0001:00009250       ??$_Debug_lt_pred@ABU?$less@V?$basic_string@DU?$char_traits@D@std@@V?$allocator@D@2@@std@@@std@@ABV?$basic_string@DU?$char_traits@D@std@@V?$allocator@D@2@@2@ABV32@$0A@@std@@YA_NABU?$less@V?$basic_string@DU?$char_traits@D@std@@V?$allocator@D@2@@std@@@0@ABV?$basic_string@DU?$char_traits@D@std@@V?$allocator@D@2@@0@1@Z 0040a250 f i ChooseLevelState.obj
 0001:00009300       ??$_Delete_plain_internal@V?$allocator@U_Container_proxy@std@@@std@@@std@@YAXAAV?$allocator@U_Container_proxy@std@@@0@QAU_Container_proxy@0@@Z 0040a300 f i ChooseLevelState.obj
 0001:00009320       ??$_Destroy_in_place@PAD@std@@YAXAAPAD@Z 0040a320 f i ChooseLevelState.obj
 0001:00009330       ??$_Destroy_in_place@PAU?$_Tree_node@U?$pair@$$CBV?$basic_string@DU?$char_traits@D@std@@V?$allocator@D@2@@std@@V?$shared_ptr@VRawImageData@@@2@@std@@PAX@std@@@std@@YAXAAPAU?$_Tree_node@U?$pair@$$CBV?$basic_string@DU?$char_traits@D@std@@V?$allocator@D@2@@std@@V?$shared_ptr@VRawImageData@@@2@@std@@PAX@0@@Z 0040a330 f i ChooseLevelState.obj
 0001:00009340       ??$_Destroy_in_place@PAU?$_Tree_node@U?$pair@$$CBV?$basic_string@DU?$char_traits@D@std@@V?$allocator@D@2@@std@@V?$weak_ptr@VRawImageData@@@2@@std@@PAX@std@@@std@@YAXAAPAU?$_Tree_node@U?$pair@$$CBV?$basic_string@DU?$char_traits@D@std@@V?$allocator@D@2@@std@@V?$weak_ptr@VRawImageData@@@2@@std@@PAX@0@@Z 0040a340 f i ChooseLevelState.obj
 0001:00009350       ??$_Emplace@U?$pair@V?$basic_string@DU?$char_traits@D@std@@V?$allocator@D@2@@std@@V?$shared_ptr@VRawImageData@@@2@@std@@@?$_Tree@V?$_Tmap_traits@V?$basic_string@DU?$char_traits@D@std@@V?$allocator@D@2@@std@@V?$shared_ptr@VRawImageData@@@2@U?$less@V?$basic_string@DU?$char_traits@D@std@@V?$allocator@D@2@@std@@@2@V?$allocator@U?$pair@$$CBV?$basic_string@DU?$char_traits@D@std@@V?$allocator@D@2@@std@@V?$shared_ptr@VRawImageData@@@2@@std@@@2@$0A@@std@@@std@@IAE?AU?$pair@PAU?$_Tree_node@U?$pair@$$CBV?$basic_string@DU?$char_traits@D@std@@V?$allocator@D@2@@std@@V?$shared_ptr@VRawImageData@@@2@@std@@PAX@std@@_N@1@$$QAU?$pair@V?$basic_string@DU?$char_traits@D@std@@V?$allocator@D@2@@std@@V?$shared_ptr@VRawImageData@@@2@@1@@Z 0040a350 f i ChooseLevelState.obj
 0001:00009480       ??$_Emplace@U?$pair@V?$basic_string@DU?$char_traits@D@std@@V?$allocator@D@2@@std@@V?$weak_ptr@VRawImageData@@@2@@std@@@?$_Tree@V?$_Tmap_traits@V?$basic_string@DU?$char_traits@D@std@@V?$allocator@D@2@@std@@V?$weak_ptr@VRawImageData@@@2@U?$less@V?$basic_string@DU?$char_traits@D@std@@V?$allocator@D@2@@std@@@2@V?$allocator@U?$pair@$$CBV?$basic_string@DU?$char_traits@D@std@@V?$allocator@D@2@@std@@V?$weak_ptr@VRawImageData@@@2@@std@@@2@$0A@@std@@@std@@IAE?AU?$pair@PAU?$_Tree_node@U?$pair@$$CBV?$basic_string@DU?$char_traits@D@std@@V?$allocator@D@2@@std@@V?$weak_ptr@VRawImageData@@@2@@std@@PAX@std@@_N@1@$$QAU?$pair@V?$basic_string@DU?$char_traits@D@std@@V?$allocator@D@2@@std@@V?$weak_ptr@VRawImageData@@@2@@1@@Z 0040a480 f i ChooseLevelState.obj
 0001:000095b0       ??$_Erase_head@V?$allocator@U?$_Tree_node@U?$pair@$$CBV?$basic_string@DU?$char_traits@D@std@@V?$allocator@D@2@@std@@V?$weak_ptr@VRawImageData@@@2@@std@@PAX@std@@@std@@@?$_Tree_val@U?$_Tree_simple_types@U?$pair@$$CBV?$basic_string@DU?$char_traits@D@std@@V?$allocator@D@2@@std@@V?$weak_ptr@VRawImageData@@@2@@std@@@std@@@std@@QAEXAAV?$allocator@U?$_Tree_node@U?$pair@$$CBV?$basic_string@DU?$char_traits@D@std@@V?$allocator@D@2@@std@@V?$weak_ptr@VRawImageData@@@2@@std@@PAX@std@@@1@@Z 0040a5b0 f i ChooseLevelState.obj
 0001:00009600       ??$_Erase_tree@V?$allocator@U?$_Tree_node@U?$pair@$$CBV?$basic_string@DU?$char_traits@D@std@@V?$allocator@D@2@@std@@V?$weak_ptr@VRawImageData@@@2@@std@@PAX@std@@@std@@@?$_Tree_val@U?$_Tree_simple_types@U?$pair@$$CBV?$basic_string@DU?$char_traits@D@std@@V?$allocator@D@2@@std@@V?$weak_ptr@VRawImageData@@@2@@std@@@std@@@std@@QAEXAAV?$allocator@U?$_Tree_node@U?$pair@$$CBV?$basic_string@DU?$char_traits@D@std@@V?$allocator@D@2@@std@@V?$weak_ptr@VRawImageData@@@2@@std@@PAX@std@@@1@PAU?$_Tree_node@U?$pair@$$CBV?$basic_string@DU?$char_traits@D@std@@V?$allocator@D@2@@std@@V?$weak_ptr@VRawImageData@@@2@@std@@PAX@1@@Z 0040a600 f i ChooseLevelState.obj
 0001:00009660       ??$_Find@V?$basic_string@DU?$char_traits@D@std@@V?$allocator@D@2@@std@@@?$_Tree@V?$_Tmap_traits@V?$basic_string@DU?$char_traits@D@std@@V?$allocator@D@2@@std@@V?$weak_ptr@VRawImageData@@@2@U?$less@V?$basic_string@DU?$char_traits@D@std@@V?$allocator@D@2@@std@@@2@V?$allocator@U?$pair@$$CBV?$basic_string@DU?$char_traits@D@std@@V?$allocator@D@2@@std@@V?$weak_ptr@VRawImageData@@@2@@std@@@2@$0A@@std@@@std@@ABEPAU?$_Tree_node@U?$pair@$$CBV?$basic_string@DU?$char_traits@D@std@@V?$allocator@D@2@@std@@V?$weak_ptr@VRawImageData@@@2@@std@@PAX@1@ABV?$basic_string@DU?$char_traits@D@std@@V?$allocator@D@2@@1@@Z 0040a660 f i ChooseLevelState.obj
 0001:000096c0       ??$_Find_lower_bound@V?$basic_string@DU?$char_traits@D@std@@V?$allocator@D@2@@std@@@?$_Tree@V?$_Tmap_traits@V?$basic_string@DU?$char_traits@D@std@@V?$allocator@D@2@@std@@V?$shared_ptr@VRawImageData@@@2@U?$less@V?$basic_string@DU?$char_traits@D@std@@V?$allocator@D@2@@std@@@2@V?$allocator@U?$pair@$$CBV?$basic_string@DU?$char_traits@D@std@@V?$allocator@D@2@@std@@V?$shared_ptr@VRawImageData@@@2@@std@@@2@$0A@@std@@@std@@IBE?AU?$_Tree_find_result@PAU?$_Tree_node@U?$pair@$$CBV?$basic_string@DU?$char_traits@D@std@@V?$allocator@D@2@@std@@V?$shared_ptr@VRawImageData@@@2@@std@@PAX@std@@@1@ABV?$basic_string@DU?$char_traits@D@std@@V?$allocator@D@2@@1@@Z 0040a6c0 f i ChooseLevelState.obj
 0001:000097b0       ??$_Find_lower_bound@V?$basic_string@DU?$char_traits@D@std@@V?$allocator@D@2@@std@@@?$_Tree@V?$_Tmap_traits@V?$basic_string@DU?$char_traits@D@std@@V?$allocator@D@2@@std@@V?$weak_ptr@VRawImageData@@@2@U?$less@V?$basic_string@DU?$char_traits@D@std@@V?$allocator@D@2@@std@@@2@V?$allocator@U?$pair@$$CBV?$basic_string@DU?$char_traits@D@std@@V?$allocator@D@2@@std@@V?$weak_ptr@VRawImageData@@@2@@std@@@2@$0A@@std@@@std@@IBE?AU?$_Tree_find_result@PAU?$_Tree_node@U?$pair@$$CBV?$basic_string@DU?$char_traits@D@std@@V?$allocator@D@2@@std@@V?$weak_ptr@VRawImageData@@@2@@std@@PAX@std@@@1@ABV?$basic_string@DU?$char_traits@D@std@@V?$allocator@D@2@@1@@Z 0040a7b0 f i ChooseLevelState.obj
 0001:000098a0       ??$_Freenode0@V?$allocator@U?$_Tree_node@U?$pair@$$CBV?$basic_string@DU?$char_traits@D@std@@V?$allocator@D@2@@std@@V?$weak_ptr@VRawImageData@@@2@@std@@PAX@std@@@std@@@?$_Tree_node@U?$pair@$$CBV?$basic_string@DU?$char_traits@D@std@@V?$allocator@D@2@@std@@V?$weak_ptr@VRawImageData@@@2@@std@@PAX@std@@SAXAAV?$allocator@U?$_Tree_node@U?$pair@$$CBV?$basic_string@DU?$char_traits@D@std@@V?$allocator@D@2@@std@@V?$weak_ptr@VRawImageData@@@2@@std@@PAX@std@@@1@PAU01@@Z 0040a8a0 f i ChooseLevelState.obj
 0001:00009930       ??$_Freenode@V?$allocator@U?$_Tree_node@U?$pair@$$CBV?$basic_string@DU?$char_traits@D@std@@V?$allocator@D@2@@std@@V?$weak_ptr@VRawImageData@@@2@@std@@PAX@std@@@std@@@?$_Tree_node@U?$pair@$$CBV?$basic_string@DU?$char_traits@D@std@@V?$allocator@D@2@@std@@V?$weak_ptr@VRawImageData@@@2@@std@@PAX@std@@SAXAAV?$allocator@U?$_Tree_node@U?$pair@$$CBV?$basic_string@DU?$char_traits@D@std@@V?$allocator@D@2@@std@@V?$weak_ptr@VRawImageData@@@2@@std@@PAX@std@@@1@PAU01@@Z 0040a930 f i ChooseLevelState.obj
 0001:000099b0       ??$_Get_size_of_n@$00@std@@YAII@Z 0040a9b0 f i ChooseLevelState.obj
 0001:000099d0       ??$_Get_size_of_n@$07@std@@YAII@Z 0040a9d0 f i ChooseLevelState.obj
 0001:00009a10       ??$_Get_size_of_n@$0DE@@std@@YAII@Z 0040aa10 f i ChooseLevelState.obj
 0001:00009a40       ??$_Insert_string@DU?$char_traits@D@std@@I@std@@YAAAV?$basic_ostream@DU?$char_traits@D@std@@@0@AAV10@QBDI@Z 0040aa40 f i ChooseLevelState.obj
 0001:00009dc0       ??$_Kfn@$$CBV?$basic_string@DU?$char_traits@D@std@@V?$allocator@D@2@@std@@V?$shared_ptr@VRawImageData@@@2@@?$_Tmap_traits@V?$basic_string@DU?$char_traits@D@std@@V?$allocator@D@2@@std@@V?$shared_ptr@VRawImageData@@@2@U?$less@V?$basic_string@DU?$char_traits@D@std@@V?$allocator@D@2@@std@@@2@V?$allocator@U?$pair@$$CBV?$basic_string@DU?$char_traits@D@std@@V?$allocator@D@2@@std@@V?$shared_ptr@VRawImageData@@@2@@std@@@2@$0A@@std@@SAABV?$basic_string@DU?$char_traits@D@std@@V?$allocator@D@2@@1@ABU?$pair@$$CBV?$basic_string@DU?$char_traits@D@std@@V?$allocator@D@2@@std@@V?$shared_ptr@VRawImageData@@@2@@1@@Z 0040adc0 f i ChooseLevelState.obj
 0001:00009dd0       ??$_Kfn@$$CBV?$basic_string@DU?$char_traits@D@std@@V?$allocator@D@2@@std@@V?$weak_ptr@VRawImageData@@@2@@?$_Tmap_traits@V?$basic_string@DU?$char_traits@D@std@@V?$allocator@D@2@@std@@V?$weak_ptr@VRawImageData@@@2@U?$less@V?$basic_string@DU?$char_traits@D@std@@V?$allocator@D@2@@std@@@2@V?$allocator@U?$pair@$$CBV?$basic_string@DU?$char_traits@D@std@@V?$allocator@D@2@@std@@V?$weak_ptr@VRawImageData@@@2@@std@@@2@$0A@@std@@SAABV?$basic_string@DU?$char_traits@D@std@@V?$allocator@D@2@@1@ABU?$pair@$$CBV?$basic_string@DU?$char_traits@D@std@@V?$allocator@D@2@@std@@V?$weak_ptr@VRawImageData@@@2@@1@@Z 0040add0 f i ChooseLevelState.obj
 0001:00009de0       ??$_Lower_bound_duplicate@V?$basic_string@DU?$char_traits@D@std@@V?$allocator@D@2@@std@@@?$_Tree@V?$_Tmap_traits@V?$basic_string@DU?$char_traits@D@std@@V?$allocator@D@2@@std@@V?$shared_ptr@VRawImageData@@@2@U?$less@V?$basic_string@DU?$char_traits@D@std@@V?$allocator@D@2@@std@@@2@V?$allocator@U?$pair@$$CBV?$basic_string@DU?$char_traits@D@std@@V?$allocator@D@2@@std@@V?$shared_ptr@VRawImageData@@@2@@std@@@2@$0A@@std@@@std@@IBE_NQAU?$_Tree_node@U?$pair@$$CBV?$basic_string@DU?$char_traits@D@std@@V?$allocator@D@2@@std@@V?$shared_ptr@VRawImageData@@@2@@std@@PAX@1@ABV?$basic_string@DU?$char_traits@D@std@@V?$allocator@D@2@@1@@Z 0040ade0 f i ChooseLevelState.obj
 0001:00009e50       ??$_Lower_bound_duplicate@V?$basic_string@DU?$char_traits@D@std@@V?$allocator@D@2@@std@@@?$_Tree@V?$_Tmap_traits@V?$basic_string@DU?$char_traits@D@std@@V?$allocator@D@2@@std@@V?$weak_ptr@VRawImageData@@@2@U?$less@V?$basic_string@DU?$char_traits@D@std@@V?$allocator@D@2@@std@@@2@V?$allocator@U?$pair@$$CBV?$basic_string@DU?$char_traits@D@std@@V?$allocator@D@2@@std@@V?$weak_ptr@VRawImageData@@@2@@std@@@2@$0A@@std@@@std@@IBE_NQAU?$_Tree_node@U?$pair@$$CBV?$basic_string@DU?$char_traits@D@std@@V?$allocator@D@2@@std@@V?$weak_ptr@VRawImageData@@@2@@std@@PAX@1@ABV?$basic_string@DU?$char_traits@D@std@@V?$allocator@D@2@@1@@Z 0040ae50 f i ChooseLevelState.obj
 0001:00009ec0       ??$_Move_construct_from@VRawImageData@@@?$_Ptr_base@VRawImageData@@@std@@IAEX$$QAV01@@Z 0040aec0 f i ChooseLevelState.obj
 0001:00009f10       ??$_Reallocate_for@V<lambda_9366063389c5f42a00a5088cf24e69de>@@PBD@?$basic_string@DU?$char_traits@D@std@@V?$allocator@D@2@@std@@AAEAAV01@IV<lambda_9366063389c5f42a00a5088cf24e69de>@@PBD@Z 0040af10 f i ChooseLevelState.obj
 0001:0000a010       ??$_Set_ptr_rep_and_enable_shared@VRawImageData@@@?$shared_ptr@VRawImageData@@@std@@AAEXQAVRawImageData@@QAV_Ref_count_base@1@@Z 0040b010 f i ChooseLevelState.obj
 0001:0000a040       ??$_Traits_compare@U?$char_traits@D@std@@@std@@YAHQBDI0I@Z 0040b040 f i ChooseLevelState.obj
 0001:0000a0b0       ??$_Unfancy@D@std@@YAPADPAD@Z 0040b0b0 f i ChooseLevelState.obj
 0001:0000a0c0       ??$_Unfancy@U_Container_proxy@std@@@std@@YAPAU_Container_proxy@0@PAU10@@Z 0040b0c0 f i ChooseLevelState.obj
 0001:0000a0d0       ??$_Voidify_iter@PAPAD@std@@YAPAXPAPAD@Z 0040b0d0 f i ChooseLevelState.obj
 0001:0000a0e0       ??$_Voidify_iter@PAPAU?$_Tree_node@U?$pair@$$CBV?$basic_string@DU?$char_traits@D@std@@V?$allocator@D@2@@std@@V?$shared_ptr@VRawImageData@@@2@@std@@PAX@std@@@std@@YAPAXPAPAU?$_Tree_node@U?$pair@$$CBV?$basic_string@DU?$char_traits@D@std@@V?$allocator@D@2@@std@@V?$shared_ptr@VRawImageData@@@2@@std@@PAX@0@@Z 0040b0e0 f i ChooseLevelState.obj
 0001:0000a0f0       ??$_Voidify_iter@PAPAU?$_Tree_node@U?$pair@$$CBV?$basic_string@DU?$char_traits@D@std@@V?$allocator@D@2@@std@@V?$weak_ptr@VRawImageData@@@2@@std@@PAX@std@@@std@@YAPAXPAPAU?$_Tree_node@U?$pair@$$CBV?$basic_string@DU?$char_traits@D@std@@V?$allocator@D@2@@std@@V?$weak_ptr@VRawImageData@@@2@@std@@PAX@0@@Z 0040b0f0 f i ChooseLevelState.obj
 0001:0000a100       ??$_Voidify_iter@PAU?$pair@$$CBV?$basic_string@DU?$char_traits@D@std@@V?$allocator@D@2@@std@@V?$shared_ptr@VRawImageData@@@2@@std@@@std@@YAPAXPAU?$pair@$$CBV?$basic_string@DU?$char_traits@D@std@@V?$allocator@D@2@@std@@V?$shared_ptr@VRawImageData@@@2@@0@@Z 0040b100 f i ChooseLevelState.obj
 0001:0000a110       ??$_Voidify_iter@PAU?$pair@$$CBV?$basic_string@DU?$char_traits@D@std@@V?$allocator@D@2@@std@@V?$weak_ptr@VRawImageData@@@2@@std@@@std@@YAPAXPAU?$pair@$$CBV?$basic_string@DU?$char_traits@D@std@@V?$allocator@D@2@@std@@V?$weak_ptr@VRawImageData@@@2@@0@@Z 0040b110 f i ChooseLevelState.obj
 0001:0000a120       ??$_Voidify_iter@PAU_Container_proxy@std@@@std@@YAPAXPAU_Container_proxy@0@@Z 0040b120 f i ChooseLevelState.obj
 0001:0000a130       ??$_Weakly_construct_from@VRawImageData@@@?$_Ptr_base@VRawImageData@@@std@@IAEXABV01@@Z 0040b130 f i ChooseLevelState.obj
 0001:0000a180       ??$addressof@$$CBV?$_String_val@U?$_Simple_types@D@std@@@std@@@std@@YAPBV?$_String_val@U?$_Simple_types@D@std@@@0@ABV10@@Z 0040b180 f i ChooseLevelState.obj
 0001:0000a190       ??$addressof@$$CBV?$_Tree_val@U?$_Tree_simple_types@U?$pair@$$CBV?$basic_string@DU?$char_traits@D@std@@V?$allocator@D@2@@std@@V?$shared_ptr@VRawImageData@@@2@@std@@@std@@@std@@@std@@YAPBV?$_Tree_val@U?$_Tree_simple_types@U?$pair@$$CBV?$basic_string@DU?$char_traits@D@std@@V?$allocator@D@2@@std@@V?$shared_ptr@VRawImageData@@@2@@std@@@std@@@0@ABV10@@Z 0040b190 f i ChooseLevelState.obj
 0001:0000a1a0       ??$addressof@$$CBV?$_Tree_val@U?$_Tree_simple_types@U?$pair@$$CBV?$basic_string@DU?$char_traits@D@std@@V?$allocator@D@2@@std@@V?$weak_ptr@VRawImageData@@@2@@std@@@std@@@std@@@std@@YAPBV?$_Tree_val@U?$_Tree_simple_types@U?$pair@$$CBV?$basic_string@DU?$char_traits@D@std@@V?$allocator@D@2@@std@@V?$weak_ptr@VRawImageData@@@2@@std@@@std@@@0@ABV10@@Z 0040b1a0 f i ChooseLevelState.obj
 0001:0000a1b0       ??$addressof@PAD@std@@YAPAPADAAPAD@Z 0040b1b0 f i ChooseLevelState.obj
 0001:0000a1c0       ??$addressof@PAU?$_Tree_node@U?$pair@$$CBV?$basic_string@DU?$char_traits@D@std@@V?$allocator@D@2@@std@@V?$shared_ptr@VRawImageData@@@2@@std@@PAX@std@@@std@@YAPAPAU?$_Tree_node@U?$pair@$$CBV?$basic_string@DU?$char_traits@D@std@@V?$allocator@D@2@@std@@V?$shared_ptr@VRawImageData@@@2@@std@@PAX@0@AAPAU10@@Z 0040b1c0 f i ChooseLevelState.obj
 0001:0000a1d0       ??$addressof@PAU?$_Tree_node@U?$pair@$$CBV?$basic_string@DU?$char_traits@D@std@@V?$allocator@D@2@@std@@V?$weak_ptr@VRawImageData@@@2@@std@@PAX@std@@@std@@YAPAPAU?$_Tree_node@U?$pair@$$CBV?$basic_string@DU?$char_traits@D@std@@V?$allocator@D@2@@std@@V?$weak_ptr@VRawImageData@@@2@@std@@PAX@0@AAPAU10@@Z 0040b1d0 f i ChooseLevelState.obj
 0001:0000a1e0       ??$addressof@U?$pair@$$CBV?$basic_string@DU?$char_traits@D@std@@V?$allocator@D@2@@std@@V?$shared_ptr@VRawImageData@@@2@@std@@@std@@YAPAU?$pair@$$CBV?$basic_string@DU?$char_traits@D@std@@V?$allocator@D@2@@std@@V?$shared_ptr@VRawImageData@@@2@@0@AAU10@@Z 0040b1e0 f i ChooseLevelState.obj
 0001:0000a1f0       ??$addressof@U?$pair@$$CBV?$basic_string@DU?$char_traits@D@std@@V?$allocator@D@2@@std@@V?$weak_ptr@VRawImageData@@@2@@std@@@std@@YAPAU?$pair@$$CBV?$basic_string@DU?$char_traits@D@std@@V?$allocator@D@2@@std@@V?$weak_ptr@VRawImageData@@@2@@0@AAU10@@Z 0040b1f0 f i ChooseLevelState.obj
 0001:0000a200       ??$addressof@U_Container_base12@std@@@std@@YAPAU_Container_base12@0@AAU10@@Z 0040b200 f i ChooseLevelState.obj
 0001:0000a210       ??$addressof@U_Container_proxy@std@@@std@@YAPAU_Container_proxy@0@AAU10@@Z 0040b210 f i ChooseLevelState.obj
 0001:0000a220       ??$addressof@V?$_String_val@U?$_Simple_types@D@std@@@std@@@std@@YAPAV?$_String_val@U?$_Simple_types@D@std@@@0@AAV10@@Z 0040b220 f i ChooseLevelState.obj
 0001:0000a230       ??$addressof@V?$_Tree_val@U?$_Tree_simple_types@U?$pair@$$CBV?$basic_string@DU?$char_traits@D@std@@V?$allocator@D@2@@std@@V?$shared_ptr@VRawImageData@@@2@@std@@@std@@@std@@@std@@YAPAV?$_Tree_val@U?$_Tree_simple_types@U?$pair@$$CBV?$basic_string@DU?$char_traits@D@std@@V?$allocator@D@2@@std@@V?$shared_ptr@VRawImageData@@@2@@std@@@std@@@0@AAV10@@Z 0040b230 f i ChooseLevelState.obj
 0001:0000a240       ??$addressof@V?$_Tree_val@U?$_Tree_simple_types@U?$pair@$$CBV?$basic_string@DU?$char_traits@D@std@@V?$allocator@D@2@@std@@V?$weak_ptr@VRawImageData@@@2@@std@@@std@@@std@@@std@@YAPAV?$_Tree_val@U?$_Tree_simple_types@U?$pair@$$CBV?$basic_string@DU?$char_traits@D@std@@V?$allocator@D@2@@std@@V?$weak_ptr@VRawImageData@@@2@@std@@@std@@@0@AAV10@@Z 0040b240 f i ChooseLevelState.obj
 0001:0000a250       ??$construct@U?$pair@$$CBV?$basic_string@DU?$char_traits@D@std@@V?$allocator@D@2@@std@@V?$shared_ptr@VRawImageData@@@2@@std@@U?$pair@V?$basic_string@DU?$char_traits@D@std@@V?$allocator@D@2@@std@@V?$shared_ptr@VRawImageData@@@2@@2@@?$_Default_allocator_traits@V?$allocator@U?$_Tree_node@U?$pair@$$CBV?$basic_string@DU?$char_traits@D@std@@V?$allocator@D@2@@std@@V?$shared_ptr@VRawImageData@@@2@@std@@PAX@std@@@std@@@std@@SAXAAV?$allocator@U?$_Tree_node@U?$pair@$$CBV?$basic_string@DU?$char_traits@D@std@@V?$allocator@D@2@@std@@V?$shared_ptr@VRawImageData@@@2@@std@@PAX@std@@@1@QAU?$pair@$$CBV?$basic_string@DU?$char_traits@D@std@@V?$allocator@D@2@@std@@V?$shared_ptr@VRawImageData@@@2@@1@$$QAU?$pair@V?$basic_string@DU?$char_traits@D@std@@V?$allocator@D@2@@std@@V?$shared_ptr@VRawImageData@@@2@@1@@Z 0040b250 f i ChooseLevelState.obj
 0001:0000a2a0       ??$construct@U?$pair@$$CBV?$basic_string@DU?$char_traits@D@std@@V?$allocator@D@2@@std@@V?$weak_ptr@VRawImageData@@@2@@std@@U?$pair@V?$basic_string@DU?$char_traits@D@std@@V?$allocator@D@2@@std@@V?$weak_ptr@VRawImageData@@@2@@2@@?$_Default_allocator_traits@V?$allocator@U?$_Tree_node@U?$pair@$$CBV?$basic_string@DU?$char_traits@D@std@@V?$allocator@D@2@@std@@V?$weak_ptr@VRawImageData@@@2@@std@@PAX@std@@@std@@@std@@SAXAAV?$allocator@U?$_Tree_node@U?$pair@$$CBV?$basic_string@DU?$char_traits@D@std@@V?$allocator@D@2@@std@@V?$weak_ptr@VRawImageData@@@2@@std@@PAX@std@@@1@QAU?$pair@$$CBV?$basic_string@DU?$char_traits@D@std@@V?$allocator@D@2@@std@@V?$weak_ptr@VRawImageData@@@2@@1@$$QAU?$pair@V?$basic_string@DU?$char_traits@D@std@@V?$allocator@D@2@@std@@V?$weak_ptr@VRawImageData@@@2@@1@@Z 0040b2a0 f i ChooseLevelState.obj
 0001:0000a2f0       ??$destroy@U?$pair@$$CBV?$basic_string@DU?$char_traits@D@std@@V?$allocator@D@2@@std@@V?$shared_ptr@VRawImageData@@@2@@std@@@?$_Default_allocator_traits@V?$allocator@U?$_Tree_node@U?$pair@$$CBV?$basic_string@DU?$char_traits@D@std@@V?$allocator@D@2@@std@@V?$shared_ptr@VRawImageData@@@2@@std@@PAX@std@@@std@@@std@@SAXAAV?$allocator@U?$_Tree_node@U?$pair@$$CBV?$basic_string@DU?$char_traits@D@std@@V?$allocator@D@2@@std@@V?$shared_ptr@VRawImageData@@@2@@std@@PAX@std@@@1@QAU?$pair@$$CBV?$basic_string@DU?$char_traits@D@std@@V?$allocator@D@2@@std@@V?$shared_ptr@VRawImageData@@@2@@1@@Z 0040b2f0 f i ChooseLevelState.obj
 0001:0000a310       ??$destroy@U?$pair@$$CBV?$basic_string@DU?$char_traits@D@std@@V?$allocator@D@2@@std@@V?$weak_ptr@VRawImageData@@@2@@std@@@?$_Default_allocator_traits@V?$allocator@U?$_Tree_node@U?$pair@$$CBV?$basic_string@DU?$char_traits@D@std@@V?$allocator@D@2@@std@@V?$weak_ptr@VRawImageData@@@2@@std@@PAX@std@@@std@@@std@@SAXAAV?$allocator@U?$_Tree_node@U?$pair@$$CBV?$basic_string@DU?$char_traits@D@std@@V?$allocator@D@2@@std@@V?$weak_ptr@VRawImageData@@@2@@std@@PAX@std@@@1@QAU?$pair@$$CBV?$basic_string@DU?$char_traits@D@std@@V?$allocator@D@2@@std@@V?$weak_ptr@VRawImageData@@@2@@1@@Z 0040b310 f i ChooseLevelState.obj
 0001:0000a330       ??$emplace@U?$pair@V?$basic_string@DU?$char_traits@D@std@@V?$allocator@D@2@@std@@V?$shared_ptr@VRawImageData@@@2@@std@@@?$_Tree@V?$_Tmap_traits@V?$basic_string@DU?$char_traits@D@std@@V?$allocator@D@2@@std@@V?$shared_ptr@VRawImageData@@@2@U?$less@V?$basic_string@DU?$char_traits@D@std@@V?$allocator@D@2@@std@@@2@V?$allocator@U?$pair@$$CBV?$basic_string@DU?$char_traits@D@std@@V?$allocator@D@2@@std@@V?$shared_ptr@VRawImageData@@@2@@std@@@2@$0A@@std@@@std@@QAE?AU?$pair@V?$_Tree_iterator@V?$_Tree_val@U?$_Tree_simple_types@U?$pair@$$CBV?$basic_string@DU?$char_traits@D@std@@V?$allocator@D@2@@std@@V?$shared_ptr@VRawImageData@@@2@@std@@@std@@@std@@@std@@_N@1@$$QAU?$pair@V?$basic_string@DU?$char_traits@D@std@@V?$allocator@D@2@@std@@V?$shared_ptr@VRawImageData@@@2@@1@@Z 0040b330 f i ChooseLevelState.obj
 0001:0000a3c0       ??$emplace@U?$pair@V?$basic_string@DU?$char_traits@D@std@@V?$allocator@D@2@@std@@V?$weak_ptr@VRawImageData@@@2@@std@@@?$_Tree@V?$_Tmap_traits@V?$basic_string@DU?$char_traits@D@std@@V?$allocator@D@2@@std@@V?$weak_ptr@VRawImageData@@@2@U?$less@V?$basic_string@DU?$char_traits@D@std@@V?$allocator@D@2@@std@@@2@V?$allocator@U?$pair@$$CBV?$basic_string@DU?$char_traits@D@std@@V?$allocator@D@2@@std@@V?$weak_ptr@VRawImageData@@@2@@std@@@2@$0A@@std@@@std@@QAE?AU?$pair@V?$_Tree_iterator@V?$_Tree_val@U?$_Tree_simple_types@U?$pair@$$CBV?$basic_string@DU?$char_traits@D@std@@V?$allocator@D@2@@std@@V?$weak_ptr@VRawImageData@@@2@@std@@@std@@@std@@@std@@_N@1@$$QAU?$pair@V?$basic_string@DU?$char_traits@D@std@@V?$allocator@D@2@@std@@V?$weak_ptr@VRawImageData@@@2@@1@@Z 0040b3c0 f i ChooseLevelState.obj
 0001:0000a450       ??$endl@DU?$char_traits@D@std@@@std@@YAAAV?$basic_ostream@DU?$char_traits@D@std@@@0@AAV10@@Z 0040b450 f i ChooseLevelState.obj
 0001:0000a490       ??$erase@V?$_Tree_iterator@V?$_Tree_val@U?$_Tree_simple_types@U?$pair@$$CBV?$basic_string@DU?$char_traits@D@std@@V?$allocator@D@2@@std@@V?$weak_ptr@VRawImageData@@@2@@std@@@std@@@std@@@std@@$0A@@?$_Tree@V?$_Tmap_traits@V?$basic_string@DU?$char_traits@D@std@@V?$allocator@D@2@@std@@V?$weak_ptr@VRawImageData@@@2@U?$less@V?$basic_string@DU?$char_traits@D@std@@V?$allocator@D@2@@std@@@2@V?$allocator@U?$pair@$$CBV?$basic_string@DU?$char_traits@D@std@@V?$allocator@D@2@@std@@V?$weak_ptr@VRawImageData@@@2@@std@@@2@$0A@@std@@@std@@QAE?AV?$_Tree_iterator@V?$_Tree_val@U?$_Tree_simple_types@U?$pair@$$CBV?$basic_string@DU?$char_traits@D@std@@V?$allocator@D@2@@std@@V?$weak_ptr@VRawImageData@@@2@@std@@@std@@@std@@@1@V21@@Z 0040b490 f i ChooseLevelState.obj
 0001:0000a5e0       ??$exchange@PAU?$_Tree_node@U?$pair@$$CBV?$basic_string@DU?$char_traits@D@std@@V?$allocator@D@2@@std@@V?$shared_ptr@VRawImageData@@@2@@std@@PAX@std@@$$T@std@@YAPAU?$_Tree_node@U?$pair@$$CBV?$basic_string@DU?$char_traits@D@std@@V?$allocator@D@2@@std@@V?$shared_ptr@VRawImageData@@@2@@std@@PAX@0@AAPAU10@$$QA$$T@Z 0040b5e0 f i ChooseLevelState.obj
 0001:0000a610       ??$exchange@PAU?$_Tree_node@U?$pair@$$CBV?$basic_string@DU?$char_traits@D@std@@V?$allocator@D@2@@std@@V?$weak_ptr@VRawImageData@@@2@@std@@PAX@std@@$$T@std@@YAPAU?$_Tree_node@U?$pair@$$CBV?$basic_string@DU?$char_traits@D@std@@V?$allocator@D@2@@std@@V?$weak_ptr@VRawImageData@@@2@@std@@PAX@0@AAPAU10@$$QA$$T@Z 0040b610 f i ChooseLevelState.obj
 0001:0000a640       ??$exchange@PAU?$_Tree_node@U?$pair@$$CBV?$basic_string@DU?$char_traits@D@std@@V?$allocator@D@2@@std@@V?$weak_ptr@VRawImageData@@@2@@std@@PAX@std@@AAPAU12@@std@@YAPAU?$_Tree_node@U?$pair@$$CBV?$basic_string@DU?$char_traits@D@std@@V?$allocator@D@2@@std@@V?$weak_ptr@VRawImageData@@@2@@std@@PAX@0@AAPAU10@0@Z 0040b640 f i ChooseLevelState.obj
 0001:0000a670       ??$forward@AAPAD@std@@YAAAPADAAPAD@Z 0040b670 f i ChooseLevelState.obj
 0001:0000a680       ??$forward@AAPAU?$_Tree_node@U?$pair@$$CBV?$basic_string@DU?$char_traits@D@std@@V?$allocator@D@2@@std@@V?$shared_ptr@VRawImageData@@@2@@std@@PAX@std@@@std@@YAAAPAU?$_Tree_node@U?$pair@$$CBV?$basic_string@DU?$char_traits@D@std@@V?$allocator@D@2@@std@@V?$shared_ptr@VRawImageData@@@2@@std@@PAX@0@AAPAU10@@Z 0040b680 f i ChooseLevelState.obj
 0001:0000a690       ??$forward@AAPAU?$_Tree_node@U?$pair@$$CBV?$basic_string@DU?$char_traits@D@std@@V?$allocator@D@2@@std@@V?$weak_ptr@VRawImageData@@@2@@std@@PAX@std@@@std@@YAAAPAU?$_Tree_node@U?$pair@$$CBV?$basic_string@DU?$char_traits@D@std@@V?$allocator@D@2@@std@@V?$weak_ptr@VRawImageData@@@2@@std@@PAX@0@AAPAU10@@Z 0040b690 f i ChooseLevelState.obj
 0001:0000a6a0       ??$forward@AAV?$basic_string@DU?$char_traits@D@std@@V?$allocator@D@2@@std@@@std@@YAAAV?$basic_string@DU?$char_traits@D@std@@V?$allocator@D@2@@0@AAV10@@Z 0040b6a0 f i ChooseLevelState.obj
 0001:0000a6b0       ??$forward@AAV?$shared_ptr@VRawImageData@@@std@@@std@@YAAAV?$shared_ptr@VRawImageData@@@0@AAV10@@Z 0040b6b0 f i ChooseLevelState.obj
 0001:0000a6c0       ??$forward@AAV?$weak_ptr@VRawImageData@@@std@@@std@@YAAAV?$weak_ptr@VRawImageData@@@0@AAV10@@Z 0040b6c0 f i ChooseLevelState.obj
 0001:0000a6d0       ??$forward@ABQAD@std@@YAABQADABQAD@Z 0040b6d0 f i ChooseLevelState.obj
 0001:0000a6e0       ??$forward@ABQAU?$_Tree_node@U?$pair@$$CBV?$basic_string@DU?$char_traits@D@std@@V?$allocator@D@2@@std@@V?$shared_ptr@VRawImageData@@@2@@std@@PAX@std@@@std@@YAABQAU?$_Tree_node@U?$pair@$$CBV?$basic_string@DU?$char_traits@D@std@@V?$allocator@D@2@@std@@V?$shared_ptr@VRawImageData@@@2@@std@@PAX@0@ABQAU10@@Z 0040b6e0 f i ChooseLevelState.obj
 0001:0000a6f0       ??$forward@ABQAU?$_Tree_node@U?$pair@$$CBV?$basic_string@DU?$char_traits@D@std@@V?$allocator@D@2@@std@@V?$weak_ptr@VRawImageData@@@2@@std@@PAX@std@@@std@@YAABQAU?$_Tree_node@U?$pair@$$CBV?$basic_string@DU?$char_traits@D@std@@V?$allocator@D@2@@std@@V?$weak_ptr@VRawImageData@@@2@@std@@PAX@0@ABQAU10@@Z 0040b6f0 f i ChooseLevelState.obj
 0001:0000a700       ??$forward@ABU?$less@V?$basic_string@DU?$char_traits@D@std@@V?$allocator@D@2@@std@@@std@@@std@@YAABU?$less@V?$basic_string@DU?$char_traits@D@std@@V?$allocator@D@2@@std@@@0@ABU10@@Z 0040b700 f i ChooseLevelState.obj
 0001:0000a710       ??$forward@AB_N@std@@YAAB_NAB_N@Z 0040b710 f i ChooseLevelState.obj
 0001:0000a720       ??$forward@PAU?$_Tree_node@U?$pair@$$CBV?$basic_string@DU?$char_traits@D@std@@V?$allocator@D@2@@std@@V?$shared_ptr@VRawImageData@@@2@@std@@PAX@std@@@std@@YA$$QAPAU?$_Tree_node@U?$pair@$$CBV?$basic_string@DU?$char_traits@D@std@@V?$allocator@D@2@@std@@V?$shared_ptr@VRawImageData@@@2@@std@@PAX@0@AAPAU10@@Z 0040b720 f i ChooseLevelState.obj
 0001:0000a730       ??$forward@PAU?$_Tree_node@U?$pair@$$CBV?$basic_string@DU?$char_traits@D@std@@V?$allocator@D@2@@std@@V?$weak_ptr@VRawImageData@@@2@@std@@PAX@std@@@std@@YA$$QAPAU?$_Tree_node@U?$pair@$$CBV?$basic_string@DU?$char_traits@D@std@@V?$allocator@D@2@@std@@V?$weak_ptr@VRawImageData@@@2@@std@@PAX@0@AAPAU10@@Z 0040b730 f i ChooseLevelState.obj
 0001:0000a740       ??$forward@PAU_Container_base12@std@@@std@@YA$$QAPAU_Container_base12@0@AAPAU10@@Z 0040b740 f i ChooseLevelState.obj
 0001:0000a750       ??$forward@U?$pair@V?$basic_string@DU?$char_traits@D@std@@V?$allocator@D@2@@std@@V?$shared_ptr@VRawImageData@@@2@@std@@@std@@YA$$QAU?$pair@V?$basic_string@DU?$char_traits@D@std@@V?$allocator@D@2@@std@@V?$shared_ptr@VRawImageData@@@2@@0@AAU10@@Z 0040b750 f i ChooseLevelState.obj
 0001:0000a760       ??$forward@U?$pair@V?$basic_string@DU?$char_traits@D@std@@V?$allocator@D@2@@std@@V?$weak_ptr@VRawImageData@@@2@@std@@@std@@YA$$QAU?$pair@V?$basic_string@DU?$char_traits@D@std@@V?$allocator@D@2@@std@@V?$weak_ptr@VRawImageData@@@2@@0@AAU10@@Z 0040b760 f i ChooseLevelState.obj
 0001:0000a770       ??$forward@U_Zero_then_variadic_args_t@std@@@std@@YA$$QAU_Zero_then_variadic_args_t@0@AAU10@@Z 0040b770 f i ChooseLevelState.obj
 0001:0000a780       ??$forward@V?$_Tree_iterator@V?$_Tree_val@U?$_Tree_simple_types@U?$pair@$$CBV?$basic_string@DU?$char_traits@D@std@@V?$allocator@D@2@@std@@V?$shared_ptr@VRawImageData@@@2@@std@@@std@@@std@@@std@@@std@@YA$$QAV?$_Tree_iterator@V?$_Tree_val@U?$_Tree_simple_types@U?$pair@$$CBV?$basic_string@DU?$char_traits@D@std@@V?$allocator@D@2@@std@@V?$shared_ptr@VRawImageData@@@2@@std@@@std@@@std@@@0@AAV10@@Z 0040b780 f i ChooseLevelState.obj
 0001:0000a790       ??$forward@V?$_Tree_iterator@V?$_Tree_val@U?$_Tree_simple_types@U?$pair@$$CBV?$basic_string@DU?$char_traits@D@std@@V?$allocator@D@2@@std@@V?$weak_ptr@VRawImageData@@@2@@std@@@std@@@std@@@std@@@std@@YA$$QAV?$_Tree_iterator@V?$_Tree_val@U?$_Tree_simple_types@U?$pair@$$CBV?$basic_string@DU?$char_traits@D@std@@V?$allocator@D@2@@std@@V?$weak_ptr@VRawImageData@@@2@@std@@@std@@@std@@@0@AAV10@@Z 0040b790 f i ChooseLevelState.obj
 0001:0000a7a0       ??$forward@V?$allocator@D@std@@@std@@YA$$QAV?$allocator@D@0@AAV10@@Z 0040b7a0 f i ChooseLevelState.obj
 0001:0000a7b0       ??$forward@V?$basic_string@DU?$char_traits@D@std@@V?$allocator@D@2@@std@@@std@@YA$$QAV?$basic_string@DU?$char_traits@D@std@@V?$allocator@D@2@@0@AAV10@@Z 0040b7b0 f i ChooseLevelState.obj
 0001:0000a7c0       ??$forward@V?$shared_ptr@VRawImageData@@@std@@@std@@YA$$QAV?$shared_ptr@VRawImageData@@@0@AAV10@@Z 0040b7c0 f i ChooseLevelState.obj
 0001:0000a7d0       ??$forward@V?$weak_ptr@VRawImageData@@@std@@@std@@YA$$QAV?$weak_ptr@VRawImageData@@@0@AAV10@@Z 0040b7d0 f i ChooseLevelState.obj
 0001:0000a7e0       ??$forward@_N@std@@YA$$QA_NAA_N@Z 0040b7e0 f i ChooseLevelState.obj
 0001:0000a7f0       ??$insert@U?$pair@V?$basic_string@DU?$char_traits@D@std@@V?$allocator@D@2@@std@@V?$shared_ptr@VRawImageData@@@2@@std@@$0A@@?$map@V?$basic_string@DU?$char_traits@D@std@@V?$allocator@D@2@@std@@V?$shared_ptr@VRawImageData@@@2@U?$less@V?$basic_string@DU?$char_traits@D@std@@V?$allocator@D@2@@std@@@2@V?$allocator@U?$pair@$$CBV?$basic_string@DU?$char_traits@D@std@@V?$allocator@D@2@@std@@V?$shared_ptr@VRawImageData@@@2@@std@@@2@@std@@QAE?AU?$pair@V?$_Tree_iterator@V?$_Tree_val@U?$_Tree_simple_types@U?$pair@$$CBV?$basic_string@DU?$char_traits@D@std@@V?$allocator@D@2@@std@@V?$shared_ptr@VRawImageData@@@2@@std@@@std@@@std@@@std@@_N@1@$$QAU?$pair@V?$basic_string@DU?$char_traits@D@std@@V?$allocator@D@2@@std@@V?$shared_ptr@VRawImageData@@@2@@1@@Z 0040b7f0 f i ChooseLevelState.obj
 0001:0000a840       ??$insert@U?$pair@V?$basic_string@DU?$char_traits@D@std@@V?$allocator@D@2@@std@@V?$weak_ptr@VRawImageData@@@2@@std@@$0A@@?$map@V?$basic_string@DU?$char_traits@D@std@@V?$allocator@D@2@@std@@V?$weak_ptr@VRawImageData@@@2@U?$less@V?$basic_string@DU?$char_traits@D@std@@V?$allocator@D@2@@std@@@2@V?$allocator@U?$pair@$$CBV?$basic_string@DU?$char_traits@D@std@@V?$allocator@D@2@@std@@V?$weak_ptr@VRawImageData@@@2@@std@@@2@@std@@QAE?AU?$pair@V?$_Tree_iterator@V?$_Tree_val@U?$_Tree_simple_types@U?$pair@$$CBV?$basic_string@DU?$char_traits@D@std@@V?$allocator@D@2@@std@@V?$weak_ptr@VRawImageData@@@2@@std@@@std@@@std@@@std@@_N@1@$$QAU?$pair@V?$basic_string@DU?$char_traits@D@std@@V?$allocator@D@2@@std@@V?$weak_ptr@VRawImageData@@@2@@1@@Z 0040b840 f i ChooseLevelState.obj
 0001:0000a890       ??$max@I@std@@YAABIABI0@Z  0040b890 f i ChooseLevelState.obj
 0001:0000a8d0       ??$min@I@std@@YAABIABI0@Z  0040b8d0 f i ChooseLevelState.obj
 0001:0000a910       ??$move@AAD@std@@YA$$QADAAD@Z 0040b910 f i ChooseLevelState.obj
 0001:0000a920       ??$move@AAV?$allocator@D@std@@@std@@YA$$QAV?$allocator@D@0@AAV10@@Z 0040b920 f i ChooseLevelState.obj
 0001:0000a930       ??$move@AAV?$shared_ptr@VRawImageData@@@std@@@std@@YA$$QAV?$shared_ptr@VRawImageData@@@0@AAV10@@Z 0040b930 f i ChooseLevelState.obj
 0001:0000a940       ??$move@AAV?$weak_ptr@VRawImageData@@@std@@@std@@YA$$QAV?$weak_ptr@VRawImageData@@@0@AAV10@@Z 0040b940 f i ChooseLevelState.obj
 0001:0000a950       ??$swap@D$0A@@std@@YAXAAD0@Z 0040b950 f i ChooseLevelState.obj
 0001:0000a9a0       ??0?$_Alloc_construct_ptr@V?$allocator@U?$_Tree_node@U?$pair@$$CBV?$basic_string@DU?$char_traits@D@std@@V?$allocator@D@2@@std@@V?$shared_ptr@VRawImageData@@@2@@std@@PAX@std@@@std@@@std@@QAE@AAV?$allocator@U?$_Tree_node@U?$pair@$$CBV?$basic_string@DU?$char_traits@D@std@@V?$allocator@D@2@@std@@V?$shared_ptr@VRawImageData@@@2@@std@@PAX@std@@@1@@Z 0040b9a0 f i ChooseLevelState.obj
 0001:0000a9d0       ??0?$_Alloc_construct_ptr@V?$allocator@U?$_Tree_node@U?$pair@$$CBV?$basic_string@DU?$char_traits@D@std@@V?$allocator@D@2@@std@@V?$weak_ptr@VRawImageData@@@2@@std@@PAX@std@@@std@@@std@@QAE@AAV?$allocator@U?$_Tree_node@U?$pair@$$CBV?$basic_string@DU?$char_traits@D@std@@V?$allocator@D@2@@std@@V?$weak_ptr@VRawImageData@@@2@@std@@PAX@std@@@1@@Z 0040b9d0 f i ChooseLevelState.obj
 0001:0000aa00       ??0?$_Container_proxy_ptr12@V?$allocator@U_Container_proxy@std@@@std@@@std@@QAE@AAV?$allocator@U_Container_proxy@std@@@1@AAU_Container_base12@1@@Z 0040ba00 f i ChooseLevelState.obj
 0001:0000aa80       ??0?$_Ptr_base@VRawImageData@@@std@@IAE@XZ 0040ba80 f i ChooseLevelState.obj
 0001:0000aab0       ??0?$_Ref_count@VRawImageData@@@std@@QAE@PAVRawImageData@@@Z 0040bab0 f i ChooseLevelState.obj
 0001:0000ab00       ??0?$_String_val@U?$_Simple_types@D@std@@@std@@QAE@XZ 0040bb00 f i ChooseLevelState.obj
 0001:0000ab50       ??0?$_Temporary_owner@VRawImageData@@@std@@QAE@QAVRawImageData@@@Z 0040bb50 f i ChooseLevelState.obj
 0001:0000ab70       ??0?$_Tree@V?$_Tmap_traits@V?$basic_string@DU?$char_traits@D@std@@V?$allocator@D@2@@std@@V?$shared_ptr@VRawImageData@@@2@U?$less@V?$basic_string@DU?$char_traits@D@std@@V?$allocator@D@2@@std@@@2@V?$allocator@U?$pair@$$CBV?$basic_string@DU?$char_traits@D@std@@V?$allocator@D@2@@std@@V?$shared_ptr@VRawImageData@@@2@@std@@@2@$0A@@std@@@std@@QAE@ABU?$less@V?$basic_string@DU?$char_traits@D@std@@V?$allocator@D@2@@std@@@1@@Z 0040bb70 f i ChooseLevelState.obj
 0001:0000abb0       ??0?$_Tree@V?$_Tmap_traits@V?$basic_string@DU?$char_traits@D@std@@V?$allocator@D@2@@std@@V?$weak_ptr@VRawImageData@@@2@U?$less@V?$basic_string@DU?$char_traits@D@std@@V?$allocator@D@2@@std@@@2@V?$allocator@U?$pair@$$CBV?$basic_string@DU?$char_traits@D@std@@V?$allocator@D@2@@std@@V?$weak_ptr@VRawImageData@@@2@@std@@@2@$0A@@std@@@std@@QAE@ABU?$less@V?$basic_string@DU?$char_traits@D@std@@V?$allocator@D@2@@std@@@1@@Z 0040bbb0 f i ChooseLevelState.obj
 0001:0000abf0       ??0?$_Tree_const_iterator@V?$_Tree_val@U?$_Tree_simple_types@U?$pair@$$CBV?$basic_string@DU?$char_traits@D@std@@V?$allocator@D@2@@std@@V?$shared_ptr@VRawImageData@@@2@@std@@@std@@@std@@@std@@QAE@$$QAV01@@Z 0040bbf0 f i ChooseLevelState.obj
 0001:0000ac20       ??0?$_Tree_const_iterator@V?$_Tree_val@U?$_Tree_simple_types@U?$pair@$$CBV?$basic_string@DU?$char_traits@D@std@@V?$allocator@D@2@@std@@V?$shared_ptr@VRawImageData@@@2@@std@@@std@@@std@@@std@@QAE@PAU?$_Tree_node@U?$pair@$$CBV?$basic_string@DU?$char_traits@D@std@@V?$allocator@D@2@@std@@V?$shared_ptr@VRawImageData@@@2@@std@@PAX@1@PBV?$_Tree_val@U?$_Tree_simple_types@U?$pair@$$CBV?$basic_string@DU?$char_traits@D@std@@V?$allocator@D@2@@std@@V?$shared_ptr@VRawImageData@@@2@@std@@@std@@@1@@Z 0040bc20 f i ChooseLevelState.obj
 0001:0000ac50       ??0?$_Tree_const_iterator@V?$_Tree_val@U?$_Tree_simple_types@U?$pair@$$CBV?$basic_string@DU?$char_traits@D@std@@V?$allocator@D@2@@std@@V?$weak_ptr@VRawImageData@@@2@@std@@@std@@@std@@@std@@QAE@$$QAV01@@Z 0040bc50 f i ChooseLevelState.obj
 0001:0000ac80       ??0?$_Tree_const_iterator@V?$_Tree_val@U?$_Tree_simple_types@U?$pair@$$CBV?$basic_string@DU?$char_traits@D@std@@V?$allocator@D@2@@std@@V?$weak_ptr@VRawImageData@@@2@@std@@@std@@@std@@@std@@QAE@ABV01@@Z 0040bc80 f i ChooseLevelState.obj
 0001:0000acb0       ??0?$_Tree_const_iterator@V?$_Tree_val@U?$_Tree_simple_types@U?$pair@$$CBV?$basic_string@DU?$char_traits@D@std@@V?$allocator@D@2@@std@@V?$weak_ptr@VRawImageData@@@2@@std@@@std@@@std@@@std@@QAE@PAU?$_Tree_node@U?$pair@$$CBV?$basic_string@DU?$char_traits@D@std@@V?$allocator@D@2@@std@@V?$weak_ptr@VRawImageData@@@2@@std@@PAX@1@PBV?$_Tree_val@U?$_Tree_simple_types@U?$pair@$$CBV?$basic_string@DU?$char_traits@D@std@@V?$allocator@D@2@@std@@V?$weak_ptr@VRawImageData@@@2@@std@@@std@@@1@@Z 0040bcb0 f i ChooseLevelState.obj
 0001:0000ace0       ??0?$_Tree_iterator@V?$_Tree_val@U?$_Tree_simple_types@U?$pair@$$CBV?$basic_string@DU?$char_traits@D@std@@V?$allocator@D@2@@std@@V?$shared_ptr@VRawImageData@@@2@@std@@@std@@@std@@@std@@QAE@$$QAV01@@Z 0040bce0 f i ChooseLevelState.obj
 0001:0000ad10       ??0?$_Tree_iterator@V?$_Tree_val@U?$_Tree_simple_types@U?$pair@$$CBV?$basic_string@DU?$char_traits@D@std@@V?$allocator@D@2@@std@@V?$shared_ptr@VRawImageData@@@2@@std@@@std@@@std@@@std@@QAE@PAU?$_Tree_node@U?$pair@$$CBV?$basic_string@DU?$char_traits@D@std@@V?$allocator@D@2@@std@@V?$shared_ptr@VRawImageData@@@2@@std@@PAX@1@PBV?$_Tree_val@U?$_Tree_simple_types@U?$pair@$$CBV?$basic_string@DU?$char_traits@D@std@@V?$allocator@D@2@@std@@V?$shared_ptr@VRawImageData@@@2@@std@@@std@@@1@@Z 0040bd10 f i ChooseLevelState.obj
 0001:0000ad40       ??0?$_Tree_iterator@V?$_Tree_val@U?$_Tree_simple_types@U?$pair@$$CBV?$basic_string@DU?$char_traits@D@std@@V?$allocator@D@2@@std@@V?$weak_ptr@VRawImageData@@@2@@std@@@std@@@std@@@std@@QAE@$$QAV01@@Z 0040bd40 f i ChooseLevelState.obj
 0001:0000ad70       ??0?$_Tree_iterator@V?$_Tree_val@U?$_Tree_simple_types@U?$pair@$$CBV?$basic_string@DU?$char_traits@D@std@@V?$allocator@D@2@@std@@V?$weak_ptr@VRawImageData@@@2@@std@@@std@@@std@@@std@@QAE@ABV01@@Z 0040bd70 f i ChooseLevelState.obj
 0001:0000ada0       ??0?$_Tree_iterator@V?$_Tree_val@U?$_Tree_simple_types@U?$pair@$$CBV?$basic_string@DU?$char_traits@D@std@@V?$allocator@D@2@@std@@V?$weak_ptr@VRawImageData@@@2@@std@@@std@@@std@@@std@@QAE@PAU?$_Tree_node@U?$pair@$$CBV?$basic_string@DU?$char_traits@D@std@@V?$allocator@D@2@@std@@V?$weak_ptr@VRawImageData@@@2@@std@@PAX@1@PBV?$_Tree_val@U?$_Tree_simple_types@U?$pair@$$CBV?$basic_string@DU?$char_traits@D@std@@V?$allocator@D@2@@std@@V?$weak_ptr@VRawImageData@@@2@@std@@@std@@@1@@Z 0040bda0 f i ChooseLevelState.obj
 0001:0000add0       ??0?$_Tree_temp_node_alloc@V?$allocator@U?$_Tree_node@U?$pair@$$CBV?$basic_string@DU?$char_traits@D@std@@V?$allocator@D@2@@std@@V?$shared_ptr@VRawImageData@@@2@@std@@PAX@std@@@std@@@std@@QAE@AAV?$allocator@U?$_Tree_node@U?$pair@$$CBV?$basic_string@DU?$char_traits@D@std@@V?$allocator@D@2@@std@@V?$shared_ptr@VRawImageData@@@2@@std@@PAX@std@@@1@@Z 0040bdd0 f i ChooseLevelState.obj
 0001:0000ae50       ??0?$_Tree_temp_node_alloc@V?$allocator@U?$_Tree_node@U?$pair@$$CBV?$basic_string@DU?$char_traits@D@std@@V?$allocator@D@2@@std@@V?$weak_ptr@VRawImageData@@@2@@std@@PAX@std@@@std@@@std@@QAE@AAV?$allocator@U?$_Tree_node@U?$pair@$$CBV?$basic_string@DU?$char_traits@D@std@@V?$allocator@D@2@@std@@V?$weak_ptr@VRawImageData@@@2@@std@@PAX@std@@@1@@Z 0040be50 f i ChooseLevelState.obj
 0001:0000aed0       ??0?$_Tree_unchecked_const_iterator@V?$_Tree_val@U?$_Tree_simple_types@U?$pair@$$CBV?$basic_string@DU?$char_traits@D@std@@V?$allocator@D@2@@std@@V?$shared_ptr@VRawImageData@@@2@@std@@@std@@@std@@U_Iterator_base12@2@@std@@QAE@$$QAV01@@Z 0040bed0 f i ChooseLevelState.obj
 0001:0000af10       ??0?$_Tree_unchecked_const_iterator@V?$_Tree_val@U?$_Tree_simple_types@U?$pair@$$CBV?$basic_string@DU?$char_traits@D@std@@V?$allocator@D@2@@std@@V?$shared_ptr@VRawImageData@@@2@@std@@@std@@@std@@U_Iterator_base12@2@@std@@QAE@PAU?$_Tree_node@U?$pair@$$CBV?$basic_string@DU?$char_traits@D@std@@V?$allocator@D@2@@std@@V?$shared_ptr@VRawImageData@@@2@@std@@PAX@1@PBV?$_Tree_val@U?$_Tree_simple_types@U?$pair@$$CBV?$basic_string@DU?$char_traits@D@std@@V?$allocator@D@2@@std@@V?$shared_ptr@VRawImageData@@@2@@std@@@std@@@1@@Z 0040bf10 f i ChooseLevelState.obj
 0001:0000af50       ??0?$_Tree_unchecked_const_iterator@V?$_Tree_val@U?$_Tree_simple_types@U?$pair@$$CBV?$basic_string@DU?$char_traits@D@std@@V?$allocator@D@2@@std@@V?$weak_ptr@VRawImageData@@@2@@std@@@std@@@std@@U_Iterator_base0@2@@std@@QAE@PAU?$_Tree_node@U?$pair@$$CBV?$basic_string@DU?$char_traits@D@std@@V?$allocator@D@2@@std@@V?$weak_ptr@VRawImageData@@@2@@std@@PAX@1@PBV?$_Tree_val@U?$_Tree_simple_types@U?$pair@$$CBV?$basic_string@DU?$char_traits@D@std@@V?$allocator@D@2@@std@@V?$weak_ptr@VRawImageData@@@2@@std@@@std@@@1@@Z 0040bf50 f i ChooseLevelState.obj
 0001:0000af80       ??0?$_Tree_unchecked_const_iterator@V?$_Tree_val@U?$_Tree_simple_types@U?$pair@$$CBV?$basic_string@DU?$char_traits@D@std@@V?$allocator@D@2@@std@@V?$weak_ptr@VRawImageData@@@2@@std@@@std@@@std@@U_Iterator_base12@2@@std@@QAE@$$QAV01@@Z 0040bf80 f i ChooseLevelState.obj
 0001:0000afc0       ??0?$_Tree_unchecked_const_iterator@V?$_Tree_val@U?$_Tree_simple_types@U?$pair@$$CBV?$basic_string@DU?$char_traits@D@std@@V?$allocator@D@2@@std@@V?$weak_ptr@VRawImageData@@@2@@std@@@std@@@std@@U_Iterator_base12@2@@std@@QAE@ABV01@@Z 0040bfc0 f i ChooseLevelState.obj
 0001:0000b000       ??0?$_Tree_unchecked_const_iterator@V?$_Tree_val@U?$_Tree_simple_types@U?$pair@$$CBV?$basic_string@DU?$char_traits@D@std@@V?$allocator@D@2@@std@@V?$weak_ptr@VRawImageData@@@2@@std@@@std@@@std@@U_Iterator_base12@2@@std@@QAE@PAU?$_Tree_node@U?$pair@$$CBV?$basic_string@DU?$char_traits@D@std@@V?$allocator@D@2@@std@@V?$weak_ptr@VRawImageData@@@2@@std@@PAX@1@PBV?$_Tree_val@U?$_Tree_simple_types@U?$pair@$$CBV?$basic_string@DU?$char_traits@D@std@@V?$allocator@D@2@@std@@V?$weak_ptr@VRawImageData@@@2@@std@@@std@@@1@@Z 0040c000 f i ChooseLevelState.obj
 0001:0000b040       ??0?$_Tree_unchecked_iterator@V?$_Tree_val@U?$_Tree_simple_types@U?$pair@$$CBV?$basic_string@DU?$char_traits@D@std@@V?$allocator@D@2@@std@@V?$weak_ptr@VRawImageData@@@2@@std@@@std@@@std@@@std@@QAE@PAU?$_Tree_node@U?$pair@$$CBV?$basic_string@DU?$char_traits@D@std@@V?$allocator@D@2@@std@@V?$weak_ptr@VRawImageData@@@2@@std@@PAX@1@PBV?$_Tree_val@U?$_Tree_simple_types@U?$pair@$$CBV?$basic_string@DU?$char_traits@D@std@@V?$allocator@D@2@@std@@V?$weak_ptr@VRawImageData@@@2@@std@@@std@@@1@@Z 0040c040 f i ChooseLevelState.obj
 0001:0000b070       ??0?$_Tree_val@U?$_Tree_simple_types@U?$pair@$$CBV?$basic_string@DU?$char_traits@D@std@@V?$allocator@D@2@@std@@V?$shared_ptr@VRawImageData@@@2@@std@@@std@@@std@@QAE@XZ 0040c070 f i ChooseLevelState.obj
 0001:0000b0b0       ??0?$_Tree_val@U?$_Tree_simple_types@U?$pair@$$CBV?$basic_string@DU?$char_traits@D@std@@V?$allocator@D@2@@std@@V?$weak_ptr@VRawImageData@@@2@@std@@@std@@@std@@QAE@XZ 0040c0b0 f i ChooseLevelState.obj
 0001:0000b0f0       ??0?$allocator@D@std@@QAE@XZ 0040c0f0 f i ChooseLevelState.obj
 0001:0000b110       ??0?$allocator@U?$_Tree_node@U?$pair@$$CBV?$basic_string@DU?$char_traits@D@std@@V?$allocator@D@2@@std@@V?$shared_ptr@VRawImageData@@@2@@std@@PAX@std@@@std@@QAE@XZ 0040c110 f i ChooseLevelState.obj
 0001:0000b130       ??0?$allocator@U?$_Tree_node@U?$pair@$$CBV?$basic_string@DU?$char_traits@D@std@@V?$allocator@D@2@@std@@V?$weak_ptr@VRawImageData@@@2@@std@@PAX@std@@@std@@QAE@XZ 0040c130 f i ChooseLevelState.obj
 0001:0000b150       ??0?$basic_string@DU?$char_traits@D@std@@V?$allocator@D@2@@std@@QAE@$$QAV01@@Z 0040c150 f i ChooseLevelState.obj
 0001:0000b200       ??0?$basic_string@DU?$char_traits@D@std@@V?$allocator@D@2@@std@@QAE@ABV01@@Z 0040c200 f i ChooseLevelState.obj
 0001:0000b2f0       ??0?$basic_string@DU?$char_traits@D@std@@V?$allocator@D@2@@std@@QAE@QBD@Z 0040c2f0 f i ChooseLevelState.obj
 0001:0000b3d0       ??0?$map@V?$basic_string@DU?$char_traits@D@std@@V?$allocator@D@2@@std@@V?$shared_ptr@VRawImageData@@@2@U?$less@V?$basic_string@DU?$char_traits@D@std@@V?$allocator@D@2@@std@@@2@V?$allocator@U?$pair@$$CBV?$basic_string@DU?$char_traits@D@std@@V?$allocator@D@2@@std@@V?$shared_ptr@VRawImageData@@@2@@std@@@2@@std@@QAE@XZ 0040c3d0 f i ChooseLevelState.obj
 0001:0000b400       ??0?$map@V?$basic_string@DU?$char_traits@D@std@@V?$allocator@D@2@@std@@V?$weak_ptr@VRawImageData@@@2@U?$less@V?$basic_string@DU?$char_traits@D@std@@V?$allocator@D@2@@std@@@2@V?$allocator@U?$pair@$$CBV?$basic_string@DU?$char_traits@D@std@@V?$allocator@D@2@@std@@V?$weak_ptr@VRawImageData@@@2@@std@@@2@@std@@QAE@XZ 0040c400 f i ChooseLevelState.obj
 0001:0000b430       ??0?$shared_ptr@VRawImageData@@@std@@QAE@$$QAV01@@Z 0040c430 f i ChooseLevelState.obj
 0001:0000b470       ??0?$shared_ptr@VRawImageData@@@std@@QAE@$$T@Z 0040c470 f i ChooseLevelState.obj
 0001:0000b490       ??0?$shared_ptr@VRawImageData@@@std@@QAE@ABV01@@Z 0040c490 f i ChooseLevelState.obj
 0001:0000b4c0       ??0?$shared_ptr@VRawImageData@@@std@@QAE@XZ 0040c4c0 f i ChooseLevelState.obj
 0001:0000b4e0       ??0?$weak_ptr@VRawImageData@@@std@@QAE@$$QAV01@@Z 0040c4e0 f i ChooseLevelState.obj
 0001:0000b520       ??0?$weak_ptr@VRawImageData@@@std@@QAE@ABV01@@Z 0040c520 f i ChooseLevelState.obj
 0001:0000b550       ??0ImageManager@@QAE@XZ    0040c550 f i ChooseLevelState.obj
 0001:0000b5c0       ??0ImagePixelMapping@@QAE@XZ 0040c5c0 f i ChooseLevelState.obj
 0001:0000b5e0       ??0ImagePixelMappingRotate@@QAE@N@Z 0040c5e0 f i ChooseLevelState.obj
 0001:0000b620       ??0ImagePixelMappingRotateAndColour@@QAE@NHH@Z 0040c620 f i ChooseLevelState.obj
 0001:0000b6e0       ??0RawImageData@@QAE@V?$basic_string@DU?$char_traits@D@std@@V?$allocator@D@2@@std@@@Z 0040c6e0 f i ChooseLevelState.obj
 0001:0000b790       ??0_Basic_container_proxy_ptr12@std@@IAE@XZ 0040c790 f i ChooseLevelState.obj
 0001:0000b7b0       ??0_Bxty@?$_String_val@U?$_Simple_types@D@std@@@std@@QAE@XZ 0040c7b0 f i ChooseLevelState.obj
 0001:0000b7d0       ??0_Container_base12@std@@QAE@XZ 0040c7d0 f i ChooseLevelState.obj
 0001:0000b7f0       ??0_Container_proxy@std@@QAE@PAU_Container_base12@1@@Z 0040c7f0 f i ChooseLevelState.obj
 0001:0000b820       ??0_Iterator_base12@std@@QAE@ABU01@@Z 0040c820 f i ChooseLevelState.obj
 0001:0000b860       ??0_Iterator_base12@std@@QAE@XZ 0040c860 f i ChooseLevelState.obj
 0001:0000b890       ??0_Ref_count_base@std@@IAE@XZ 0040c890 f i ChooseLevelState.obj
 0001:0000b8c0       ??0_Sentry_base@?$basic_ostream@DU?$char_traits@D@std@@@std@@QAE@AAV12@@Z 0040c8c0 f i ChooseLevelState.obj
 0001:0000b920       ??0bad_alloc@std@@AAE@QBD@Z 0040c920 f i ChooseLevelState.obj
 0001:0000b950       ??0bad_alloc@std@@QAE@ABV01@@Z 0040c950 f i ChooseLevelState.obj
 0001:0000b980       ??0bad_array_new_length@std@@QAE@ABV01@@Z 0040c980 f i ChooseLevelState.obj
 0001:0000b9b0       ??0bad_array_new_length@std@@QAE@XZ 0040c9b0 f i ChooseLevelState.obj
 0001:0000b9e0       ??0exception@std@@QAE@ABV01@@Z 0040c9e0 f i ChooseLevelState.obj
 0001:0000ba30       ??0exception@std@@QAE@QBDH@Z 0040ca30 f i ChooseLevelState.obj
 0001:0000ba70       ??0sentry@?$basic_ostream@DU?$char_traits@D@std@@@std@@QAE@AAV12@@Z 0040ca70 f i ChooseLevelState.obj
 0001:0000bb70       ??1?$_Alloc_construct_ptr@V?$allocator@U?$_Tree_node@U?$pair@$$CBV?$basic_string@DU?$char_traits@D@std@@V?$allocator@D@2@@std@@V?$shared_ptr@VRawImageData@@@2@@std@@PAX@std@@@std@@@std@@QAE@XZ 0040cb70 f i ChooseLevelState.obj
 0001:0000bbe0       ??1?$_Alloc_construct_ptr@V?$allocator@U?$_Tree_node@U?$pair@$$CBV?$basic_string@DU?$char_traits@D@std@@V?$allocator@D@2@@std@@V?$weak_ptr@VRawImageData@@@2@@std@@PAX@std@@@std@@@std@@QAE@XZ 0040cbe0 f i ChooseLevelState.obj
 0001:0000bc50       ??1?$_Compressed_pair@V?$allocator@D@std@@V?$_String_val@U?$_Simple_types@D@std@@@2@$00@std@@QAE@XZ 0040cc50 f i ChooseLevelState.obj
 0001:0000bc70       ??1?$_Container_proxy_ptr12@V?$allocator@U_Container_proxy@std@@@std@@@std@@QAE@XZ 0040cc70 f i ChooseLevelState.obj
 0001:0000bcb0       ??1?$_Ref_count@VRawImageData@@@std@@UAE@XZ 0040ccb0 f i ChooseLevelState.obj
 0001:0000bcd0       ??1?$_String_val@U?$_Simple_types@D@std@@@std@@QAE@XZ 0040ccd0 f i ChooseLevelState.obj
 0001:0000bcf0       ??1?$_Temporary_owner@VRawImageData@@@std@@QAE@XZ 0040ccf0 f i ChooseLevelState.obj
 0001:0000bd30       ??1?$_Tree@V?$_Tmap_traits@V?$basic_string@DU?$char_traits@D@std@@V?$allocator@D@2@@std@@V?$weak_ptr@VRawImageData@@@2@U?$less@V?$basic_string@DU?$char_traits@D@std@@V?$allocator@D@2@@std@@@2@V?$allocator@U?$pair@$$CBV?$basic_string@DU?$char_traits@D@std@@V?$allocator@D@2@@std@@V?$weak_ptr@VRawImageData@@@2@@std@@@2@$0A@@std@@@std@@QAE@XZ 0040cd30 f i ChooseLevelState.obj
 0001:0000bda0       ??1?$_Tree_const_iterator@V?$_Tree_val@U?$_Tree_simple_types@U?$pair@$$CBV?$basic_string@DU?$char_traits@D@std@@V?$allocator@D@2@@std@@V?$shared_ptr@VRawImageData@@@2@@std@@@std@@@std@@@std@@QAE@XZ 0040cda0 f i ChooseLevelState.obj
 0001:0000bdc0       ??1?$_Tree_const_iterator@V?$_Tree_val@U?$_Tree_simple_types@U?$pair@$$CBV?$basic_string@DU?$char_traits@D@std@@V?$allocator@D@2@@std@@V?$weak_ptr@VRawImageData@@@2@@std@@@std@@@std@@@std@@QAE@XZ 0040cdc0 f i ChooseLevelState.obj
 0001:0000bde0       ??1?$_Tree_iterator@V?$_Tree_val@U?$_Tree_simple_types@U?$pair@$$CBV?$basic_string@DU?$char_traits@D@std@@V?$allocator@D@2@@std@@V?$shared_ptr@VRawImageData@@@2@@std@@@std@@@std@@@std@@QAE@XZ 0040cde0 f i ChooseLevelState.obj
 0001:0000be00       ??1?$_Tree_iterator@V?$_Tree_val@U?$_Tree_simple_types@U?$pair@$$CBV?$basic_string@DU?$char_traits@D@std@@V?$allocator@D@2@@std@@V?$weak_ptr@VRawImageData@@@2@@std@@@std@@@std@@@std@@QAE@XZ 0040ce00 f i ChooseLevelState.obj
 0001:0000be20       ??1?$_Tree_temp_node@V?$allocator@U?$_Tree_node@U?$pair@$$CBV?$basic_string@DU?$char_traits@D@std@@V?$allocator@D@2@@std@@V?$shared_ptr@VRawImageData@@@2@@std@@PAX@std@@@std@@@std@@QAE@XZ 0040ce20 f i ChooseLevelState.obj
 0001:0000bef0       ??1?$_Tree_temp_node@V?$allocator@U?$_Tree_node@U?$pair@$$CBV?$basic_string@DU?$char_traits@D@std@@V?$allocator@D@2@@std@@V?$weak_ptr@VRawImageData@@@2@@std@@PAX@std@@@std@@@std@@QAE@XZ 0040cef0 f i ChooseLevelState.obj
 0001:0000bfc0       ??1?$_Tree_temp_node_alloc@V?$allocator@U?$_Tree_node@U?$pair@$$CBV?$basic_string@DU?$char_traits@D@std@@V?$allocator@D@2@@std@@V?$shared_ptr@VRawImageData@@@2@@std@@PAX@std@@@std@@@std@@QAE@XZ 0040cfc0 f i ChooseLevelState.obj
 0001:0000bfe0       ??1?$_Tree_temp_node_alloc@V?$allocator@U?$_Tree_node@U?$pair@$$CBV?$basic_string@DU?$char_traits@D@std@@V?$allocator@D@2@@std@@V?$weak_ptr@VRawImageData@@@2@@std@@PAX@std@@@std@@@std@@QAE@XZ 0040cfe0 f i ChooseLevelState.obj
 0001:0000c000       ??1?$_Tree_unchecked_const_iterator@V?$_Tree_val@U?$_Tree_simple_types@U?$pair@$$CBV?$basic_string@DU?$char_traits@D@std@@V?$allocator@D@2@@std@@V?$shared_ptr@VRawImageData@@@2@@std@@@std@@@std@@U_Iterator_base12@2@@std@@QAE@XZ 0040d000 f i ChooseLevelState.obj
 0001:0000c020       ??1?$_Tree_unchecked_const_iterator@V?$_Tree_val@U?$_Tree_simple_types@U?$pair@$$CBV?$basic_string@DU?$char_traits@D@std@@V?$allocator@D@2@@std@@V?$weak_ptr@VRawImageData@@@2@@std@@@std@@@std@@U_Iterator_base12@2@@std@@QAE@XZ 0040d020 f i ChooseLevelState.obj
 0001:0000c040       ??1?$basic_string@DU?$char_traits@D@std@@V?$allocator@D@2@@std@@QAE@XZ 0040d040 f i ChooseLevelState.obj
 0001:0000c0b0       ??1?$map@V?$basic_string@DU?$char_traits@D@std@@V?$allocator@D@2@@std@@V?$weak_ptr@VRawImageData@@@2@U?$less@V?$basic_string@DU?$char_traits@D@std@@V?$allocator@D@2@@std@@@2@V?$allocator@U?$pair@$$CBV?$basic_string@DU?$char_traits@D@std@@V?$allocator@D@2@@std@@V?$weak_ptr@VRawImageData@@@2@@std@@@2@@std@@QAE@XZ 0040d0b0 f i ChooseLevelState.obj
 0001:0000c0d0       ??1?$pair@$$CBV?$basic_string@DU?$char_traits@D@std@@V?$allocator@D@2@@std@@V?$shared_ptr@VRawImageData@@@2@@std@@QAE@XZ 0040d0d0 f i ChooseLevelState.obj
 0001:0000c100       ??1?$pair@$$CBV?$basic_string@DU?$char_traits@D@std@@V?$allocator@D@2@@std@@V?$weak_ptr@VRawImageData@@@2@@std@@QAE@XZ 0040d100 f i ChooseLevelState.obj
 0001:0000c130       ??1?$pair@V?$_Tree_iterator@V?$_Tree_val@U?$_Tree_simple_types@U?$pair@$$CBV?$basic_string@DU?$char_traits@D@std@@V?$allocator@D@2@@std@@V?$shared_ptr@VRawImageData@@@2@@std@@@std@@@std@@@std@@_N@std@@QAE@XZ 0040d130 f i ChooseLevelState.obj
 0001:0000c150       ??1?$pair@V?$_Tree_iterator@V?$_Tree_val@U?$_Tree_simple_types@U?$pair@$$CBV?$basic_string@DU?$char_traits@D@std@@V?$allocator@D@2@@std@@V?$weak_ptr@VRawImageData@@@2@@std@@@std@@@std@@@std@@_N@std@@QAE@XZ 0040d150 f i ChooseLevelState.obj
 0001:0000c170       ??1?$pair@V?$basic_string@DU?$char_traits@D@std@@V?$allocator@D@2@@std@@V?$shared_ptr@VRawImageData@@@2@@std@@QAE@XZ 0040d170 f i ChooseLevelState.obj
 0001:0000c1a0       ??1?$pair@V?$basic_string@DU?$char_traits@D@std@@V?$allocator@D@2@@std@@V?$weak_ptr@VRawImageData@@@2@@std@@QAE@XZ 0040d1a0 f i ChooseLevelState.obj
 0001:0000c1d0       ??1?$shared_ptr@VRawImageData@@@std@@QAE@XZ 0040d1d0 f i ChooseLevelState.obj
 0001:0000c1f0       ??1?$weak_ptr@VRawImageData@@@std@@QAE@XZ 0040d1f0 f i ChooseLevelState.obj
 0001:0000c210       ??1ImagePixelMappingRotateAndColour@@UAE@XZ 0040d210 f i ChooseLevelState.obj
 0001:0000c230       ??1RawImageData@@QAE@XZ    0040d230 f i ChooseLevelState.obj
 0001:0000c290       ??1SimpleImage@@QAE@XZ     0040d290 f i ChooseLevelState.obj
 0001:0000c2e0       ??1_Bxty@?$_String_val@U?$_Simple_types@D@std@@@std@@QAE@XZ 0040d2e0 f i ChooseLevelState.obj
 0001:0000c2f0       ??1_Iterator_base12@std@@QAE@XZ 0040d2f0 f i ChooseLevelState.obj
 0001:0000c310       ??1_Ref_count_base@std@@UAE@XZ 0040d310 f i ChooseLevelState.obj
 0001:0000c320       ??1_Sentry_base@?$basic_ostream@DU?$char_traits@D@std@@@std@@QAE@XZ 0040d320 f i ChooseLevelState.obj
 0001:0000c3b0       ??1bad_alloc@std@@UAE@XZ   0040d3b0 f i ChooseLevelState.obj
 0001:0000c3d0       ??1bad_array_new_length@std@@UAE@XZ 0040d3d0 f i ChooseLevelState.obj
 0001:0000c3f0       ??1exception@std@@UAE@XZ   0040d3f0 f i ChooseLevelState.obj
 0001:0000c420       ??1sentry@?$basic_ostream@DU?$char_traits@D@std@@@std@@QAE@XZ 0040d420 f i ChooseLevelState.obj
 0001:0000c4b0       ??2@YAPAXIPAX@Z            0040d4b0 f i ChooseLevelState.obj
 0001:0000c4c0       ??4_Iterator_base12@std@@QAEAAU01@ABU01@@Z 0040d4c0 f i ChooseLevelState.obj
 0001:0000c4f0       ??8?$_Tree_const_iterator@V?$_Tree_val@U?$_Tree_simple_types@U?$pair@$$CBV?$basic_string@DU?$char_traits@D@std@@V?$allocator@D@2@@std@@V?$weak_ptr@VRawImageData@@@2@@std@@@std@@@std@@@std@@QBE_NABV01@@Z 0040d4f0 f i ChooseLevelState.obj
 0001:0000c5b0       ??9?$_Tree_const_iterator@V?$_Tree_val@U?$_Tree_simple_types@U?$pair@$$CBV?$basic_string@DU?$char_traits@D@std@@V?$allocator@D@2@@std@@V?$weak_ptr@VRawImageData@@@2@@std@@@std@@@std@@@std@@QBE_NABV01@@Z 0040d5b0 f i ChooseLevelState.obj
 0001:0000c600       ??Bsentry@?$basic_ostream@DU?$char_traits@D@std@@@std@@QBE_NXZ 0040d600 f i ChooseLevelState.obj
 0001:0000c620       ??C?$_Tree_iterator@V?$_Tree_val@U?$_Tree_simple_types@U?$pair@$$CBV?$basic_string@DU?$char_traits@D@std@@V?$allocator@D@2@@std@@V?$weak_ptr@VRawImageData@@@2@@std@@@std@@@std@@@std@@QBEPAU?$pair@$$CBV?$basic_string@DU?$char_traits@D@std@@V?$allocator@D@2@@std@@V?$weak_ptr@VRawImageData@@@2@@1@XZ 0040d620 f i ChooseLevelState.obj
 0001:0000c650       ??D?$_Tree_const_iterator@V?$_Tree_val@U?$_Tree_simple_types@U?$pair@$$CBV?$basic_string@DU?$char_traits@D@std@@V?$allocator@D@2@@std@@V?$weak_ptr@VRawImageData@@@2@@std@@@std@@@std@@@std@@QBEABU?$pair@$$CBV?$basic_string@DU?$char_traits@D@std@@V?$allocator@D@2@@std@@V?$weak_ptr@VRawImageData@@@2@@1@XZ 0040d650 f i ChooseLevelState.obj
 0001:0000c760       ??D?$_Tree_iterator@V?$_Tree_val@U?$_Tree_simple_types@U?$pair@$$CBV?$basic_string@DU?$char_traits@D@std@@V?$allocator@D@2@@std@@V?$weak_ptr@VRawImageData@@@2@@std@@@std@@@std@@@std@@QBEAAU?$pair@$$CBV?$basic_string@DU?$char_traits@D@std@@V?$allocator@D@2@@std@@V?$weak_ptr@VRawImageData@@@2@@1@XZ 0040d760 f i ChooseLevelState.obj
 0001:0000c780       ??E?$_Tree_unchecked_const_iterator@V?$_Tree_val@U?$_Tree_simple_types@U?$pair@$$CBV?$basic_string@DU?$char_traits@D@std@@V?$allocator@D@2@@std@@V?$weak_ptr@VRawImageData@@@2@@std@@@std@@@std@@U_Iterator_base0@2@@std@@QAEAAV01@XZ 0040d780 f i ChooseLevelState.obj
 0001:0000c810       ??R<lambda_9366063389c5f42a00a5088cf24e69de>@@QBE@QADIQBD@Z 0040d810 f i ChooseLevelState.obj
 0001:0000c860       ??R?$less@V?$basic_string@DU?$char_traits@D@std@@V?$allocator@D@2@@std@@@std@@QBE_NABV?$basic_string@DU?$char_traits@D@std@@V?$allocator@D@2@@1@0@Z 0040d860 f i ChooseLevelState.obj
 0001:0000c890       ??_G?$_Ref_count@VRawImageData@@@std@@UAEPAXI@Z 0040d890 f i ChooseLevelState.obj
 0001:0000c890       ??_E?$_Ref_count@VRawImageData@@@std@@UAEPAXI@Z 0040d890 f i ChooseLevelState.obj
 0001:0000c8d0       ??_G?$pair@$$CBV?$basic_string@DU?$char_traits@D@std@@V?$allocator@D@2@@std@@V?$shared_ptr@VRawImageData@@@2@@std@@QAEPAXI@Z 0040d8d0 f i ChooseLevelState.obj
 0001:0000c910       ??_G?$pair@$$CBV?$basic_string@DU?$char_traits@D@std@@V?$allocator@D@2@@std@@V?$weak_ptr@VRawImageData@@@2@@std@@QAEPAXI@Z 0040d910 f i ChooseLevelState.obj
 0001:0000c950       ??_GImagePixelMappingRotateAndColour@@UAEPAXI@Z 0040d950 f i ChooseLevelState.obj
 0001:0000c950       ??_EImagePixelMappingRotateAndColour@@UAEPAXI@Z 0040d950 f i ChooseLevelState.obj
 0001:0000c990       ??_GRawImageData@@QAEPAXI@Z 0040d990 f i ChooseLevelState.obj
 0001:0000c9d0       ??_Gbad_alloc@std@@UAEPAXI@Z 0040d9d0 f i ChooseLevelState.obj
 0001:0000c9d0       ??_Ebad_alloc@std@@UAEPAXI@Z 0040d9d0 f i ChooseLevelState.obj
 0001:0000ca10       ??_Gbad_array_new_length@std@@UAEPAXI@Z 0040da10 f i ChooseLevelState.obj
 0001:0000ca10       ??_Ebad_array_new_length@std@@UAEPAXI@Z 0040da10 f i ChooseLevelState.obj
 0001:0000ca50       ??_Gexception@std@@UAEPAXI@Z 0040da50 f i ChooseLevelState.obj
 0001:0000ca50       ??_Eexception@std@@UAEPAXI@Z 0040da50 f i ChooseLevelState.obj
 0001:0000ca90       ?_Adjust_manually_vector_aligned@std@@YAXAAPAXAAI@Z 0040da90 f i ChooseLevelState.obj
 0001:0000cbe0       ?_Adopt@_Iterator_base0@std@@QAEXPBX@Z 0040dbe0 f i ChooseLevelState.obj
 0001:0000cbf0       ?_Adopt@_Iterator_base12@std@@QAEXPBU_Container_base12@2@@Z 0040dbf0 f i ChooseLevelState.obj
 0001:0000cc10       ?_Adopt_locked@_Iterator_base12@std@@AAEXPBU_Container_base12@2@@Z 0040dc10 f i ChooseLevelState.obj
 0001:0000cc50       ?_Adopt_unlocked@_Iterator_base12@std@@AAEXPBU_Container_base12@2@@Z 0040dc50 f i ChooseLevelState.obj
 0001:0000ccd0       ?_Alloc_sentinel_and_proxy@?$_Tree@V?$_Tmap_traits@V?$basic_string@DU?$char_traits@D@std@@V?$allocator@D@2@@std@@V?$shared_ptr@VRawImageData@@@2@U?$less@V?$basic_string@DU?$char_traits@D@std@@V?$allocator@D@2@@std@@@2@V?$allocator@U?$pair@$$CBV?$basic_string@DU?$char_traits@D@std@@V?$allocator@D@2@@std@@V?$shared_ptr@VRawImageData@@@2@@std@@@2@$0A@@std@@@std@@IAEXXZ 0040dcd0 f i ChooseLevelState.obj
 0001:0000cda0       ?_Alloc_sentinel_and_proxy@?$_Tree@V?$_Tmap_traits@V?$basic_string@DU?$char_traits@D@std@@V?$allocator@D@2@@std@@V?$weak_ptr@VRawImageData@@@2@U?$less@V?$basic_string@DU?$char_traits@D@std@@V?$allocator@D@2@@std@@@2@V?$allocator@U?$pair@$$CBV?$basic_string@DU?$char_traits@D@std@@V?$allocator@D@2@@std@@V?$weak_ptr@VRawImageData@@@2@@std@@@2@$0A@@std@@@std@@IAEXXZ 0040dda0 f i ChooseLevelState.obj
 0001:0000ce70       ?_Allocate@?$_Alloc_construct_ptr@V?$allocator@U?$_Tree_node@U?$pair@$$CBV?$basic_string@DU?$char_traits@D@std@@V?$allocator@D@2@@std@@V?$shared_ptr@VRawImageData@@@2@@std@@PAX@std@@@std@@@std@@QAEXXZ 0040de70 f i ChooseLevelState.obj
 0001:0000cea0       ?_Allocate@?$_Alloc_construct_ptr@V?$allocator@U?$_Tree_node@U?$pair@$$CBV?$basic_string@DU?$char_traits@D@std@@V?$allocator@D@2@@std@@V?$weak_ptr@VRawImageData@@@2@@std@@PAX@std@@@std@@@std@@QAEXXZ 0040dea0 f i ChooseLevelState.obj
 0001:0000ced0       ?_Allocate@_Default_allocate_traits@std@@SAPAXI@Z 0040ded0 f i ChooseLevelState.obj
 0001:0000cef0       ?_Assign_locked@_Iterator_base12@std@@AAEXABU12@@Z 0040def0 f i ChooseLevelState.obj
 0001:0000cf30       ?_Assign_unlocked@_Iterator_base12@std@@AAEXABU12@@Z 0040df30 f i ChooseLevelState.obj
 0001:0000cf80       ?_Calculate_growth@?$basic_string@DU?$char_traits@D@std@@V?$allocator@D@2@@std@@ABEII@Z 0040df80 f i ChooseLevelState.obj
 0001:0000cfc0       ?_Calculate_growth@?$basic_string@DU?$char_traits@D@std@@V?$allocator@D@2@@std@@CAIIII@Z 0040dfc0 f i ChooseLevelState.obj
 0001:0000d030       ?_Check_grow_by_1@?$_Tree@V?$_Tmap_traits@V?$basic_string@DU?$char_traits@D@std@@V?$allocator@D@2@@std@@V?$shared_ptr@VRawImageData@@@2@U?$less@V?$basic_string@DU?$char_traits@D@std@@V?$allocator@D@2@@std@@@2@V?$allocator@U?$pair@$$CBV?$basic_string@DU?$char_traits@D@std@@V?$allocator@D@2@@std@@V?$shared_ptr@VRawImageData@@@2@@std@@@2@$0A@@std@@@std@@IAEXXZ 0040e030 f i ChooseLevelState.obj
 0001:0000d070       ?_Check_grow_by_1@?$_Tree@V?$_Tmap_traits@V?$basic_string@DU?$char_traits@D@std@@V?$allocator@D@2@@std@@V?$weak_ptr@VRawImageData@@@2@U?$less@V?$basic_string@DU?$char_traits@D@std@@V?$allocator@D@2@@std@@@2@V?$allocator@U?$pair@$$CBV?$basic_string@DU?$char_traits@D@std@@V?$allocator@D@2@@std@@V?$weak_ptr@VRawImageData@@@2@@std@@@2@$0A@@std@@@std@@IAEXXZ 0040e070 f i ChooseLevelState.obj
 0001:0000d0b0       ?_Construct_lv_contents@?$basic_string@DU?$char_traits@D@std@@V?$allocator@D@2@@std@@AAEXABV12@@Z 0040e0b0 f i ChooseLevelState.obj
 0001:0000d200       ?_Decref@?$_Ptr_base@VRawImageData@@@std@@IAEXXZ 0040e200 f i ChooseLevelState.obj
 0001:0000d230       ?_Decref@_Ref_count_base@std@@QAEXXZ 0040e230 f i ChooseLevelState.obj
 0001:0000d270       ?_Decwref@?$_Ptr_base@VRawImageData@@@std@@IAEXXZ 0040e270 f i ChooseLevelState.obj
 0001:0000d2a0       ?_Decwref@_Ref_count_base@std@@QAEXXZ 0040e2a0 f i ChooseLevelState.obj
 0001:0000d2e0       ?_Delete_this@?$_Ref_count@VRawImageData@@@std@@EAEXXZ 0040e2e0 f i ChooseLevelState.obj
 0001:0000d330       ?_Destroy@?$_Ref_count@VRawImageData@@@std@@EAEXXZ 0040e330 f i ChooseLevelState.obj
 0001:0000d370       ?_Erase_unchecked@?$_Tree@V?$_Tmap_traits@V?$basic_string@DU?$char_traits@D@std@@V?$allocator@D@2@@std@@V?$weak_ptr@VRawImageData@@@2@U?$less@V?$basic_string@DU?$char_traits@D@std@@V?$allocator@D@2@@std@@@2@V?$allocator@U?$pair@$$CBV?$basic_string@DU?$char_traits@D@std@@V?$allocator@D@2@@std@@V?$weak_ptr@VRawImageData@@@2@@std@@@2@$0A@@std@@@std@@AAEPAU?$_Tree_node@U?$pair@$$CBV?$basic_string@DU?$char_traits@D@std@@V?$allocator@D@2@@std@@V?$weak_ptr@VRawImageData@@@2@@std@@PAX@2@V?$_Tree_unchecked_const_iterator@V?$_Tree_val@U?$_Tree_simple_types@U?$pair@$$CBV?$basic_string@DU?$char_traits@D@std@@V?$allocator@D@2@@std@@V?$weak_ptr@VRawImageData@@@2@@std@@@std@@@std@@U_Iterator_base0@2@@2@@Z 0040e370 f i ChooseLevelState.obj
 0001:0000d3f0       ?_Extract@?$_In_place_key_extract_map@V?$basic_string@DU?$char_traits@D@std@@V?$allocator@D@2@@std@@U?$pair@V?$basic_string@DU?$char_traits@D@std@@V?$allocator@D@2@@std@@V?$shared_ptr@VRawImageData@@@2@@2@@std@@SAABV?$basic_string@DU?$char_traits@D@std@@V?$allocator@D@2@@2@ABU?$pair@V?$basic_string@DU?$char_traits@D@std@@V?$allocator@D@2@@std@@V?$shared_ptr@VRawImageData@@@2@@2@@Z 0040e3f0 f i ChooseLevelState.obj
 0001:0000d400       ?_Extract@?$_In_place_key_extract_map@V?$basic_string@DU?$char_traits@D@std@@V?$allocator@D@2@@std@@U?$pair@V?$basic_string@DU?$char_traits@D@std@@V?$allocator@D@2@@std@@V?$weak_ptr@VRawImageData@@@2@@2@@std@@SAABV?$basic_string@DU?$char_traits@D@std@@V?$allocator@D@2@@2@ABU?$pair@V?$basic_string@DU?$char_traits@D@std@@V?$allocator@D@2@@std@@V?$weak_ptr@VRawImageData@@@2@@2@@Z 0040e400 f i ChooseLevelState.obj
 0001:0000d410       ?_Extract@?$_Tree_val@U?$_Tree_simple_types@U?$pair@$$CBV?$basic_string@DU?$char_traits@D@std@@V?$allocator@D@2@@std@@V?$weak_ptr@VRawImageData@@@2@@std@@@std@@@std@@QAEPAU?$_Tree_node@U?$pair@$$CBV?$basic_string@DU?$char_traits@D@std@@V?$allocator@D@2@@std@@V?$weak_ptr@VRawImageData@@@2@@std@@PAX@2@V?$_Tree_unchecked_const_iterator@V?$_Tree_val@U?$_Tree_simple_types@U?$pair@$$CBV?$basic_string@DU?$char_traits@D@std@@V?$allocator@D@2@@std@@V?$weak_ptr@VRawImageData@@@2@@std@@@std@@@std@@U_Iterator_base0@2@@2@@Z 0040e410 f i ChooseLevelState.obj
 0001:0000d950       ?_Get_deleter@_Ref_count_base@std@@UBEPAXABVtype_info@@@Z 0040e950 f i ChooseLevelState.obj
 0001:0000d970       ?_Get_first@?$_Compressed_pair@U?$less@V?$basic_string@DU?$char_traits@D@std@@V?$allocator@D@2@@std@@@std@@V?$_Compressed_pair@V?$allocator@U?$_Tree_node@U?$pair@$$CBV?$basic_string@DU?$char_traits@D@std@@V?$allocator@D@2@@std@@V?$shared_ptr@VRawImageData@@@2@@std@@PAX@std@@@std@@V?$_Tree_val@U?$_Tree_simple_types@U?$pair@$$CBV?$basic_string@DU?$char_traits@D@std@@V?$allocator@D@2@@std@@V?$shared_ptr@VRawImageData@@@2@@std@@@std@@@2@$00@2@$00@std@@QBEABU?$less@V?$basic_string@DU?$char_traits@D@std@@V?$allocator@D@2@@std@@@2@XZ 0040e970 f i ChooseLevelState.obj
 0001:0000d990       ?_Get_first@?$_Compressed_pair@U?$less@V?$basic_string@DU?$char_traits@D@std@@V?$allocator@D@2@@std@@@std@@V?$_Compressed_pair@V?$allocator@U?$_Tree_node@U?$pair@$$CBV?$basic_string@DU?$char_traits@D@std@@V?$allocator@D@2@@std@@V?$weak_ptr@VRawImageData@@@2@@std@@PAX@std@@@std@@V?$_Tree_val@U?$_Tree_simple_types@U?$pair@$$CBV?$basic_string@DU?$char_traits@D@std@@V?$allocator@D@2@@std@@V?$weak_ptr@VRawImageData@@@2@@std@@@std@@@2@$00@2@$00@std@@QBEABU?$less@V?$basic_string@DU?$char_traits@D@std@@V?$allocator@D@2@@std@@@2@XZ 0040e990 f i ChooseLevelState.obj
 0001:0000d9b0       ?_Get_first@?$_Compressed_pair@V?$allocator@D@std@@V?$_String_val@U?$_Simple_types@D@std@@@2@$00@std@@QAEAAV?$allocator@D@2@XZ 0040e9b0 f i ChooseLevelState.obj
 0001:0000d9d0       ?_Get_first@?$_Compressed_pair@V?$allocator@D@std@@V?$_String_val@U?$_Simple_types@D@std@@@2@$00@std@@QBEABV?$allocator@D@2@XZ 0040e9d0 f i ChooseLevelState.obj
 0001:0000d9f0       ?_Get_first@?$_Compressed_pair@V?$allocator@U?$_Tree_node@U?$pair@$$CBV?$basic_string@DU?$char_traits@D@std@@V?$allocator@D@2@@std@@V?$shared_ptr@VRawImageData@@@2@@std@@PAX@std@@@std@@V?$_Tree_val@U?$_Tree_simple_types@U?$pair@$$CBV?$basic_string@DU?$char_traits@D@std@@V?$allocator@D@2@@std@@V?$shared_ptr@VRawImageData@@@2@@std@@@std@@@2@$00@std@@QAEAAV?$allocator@U?$_Tree_node@U?$pair@$$CBV?$basic_string@DU?$char_traits@D@std@@V?$allocator@D@2@@std@@V?$shared_ptr@VRawImageData@@@2@@std@@PAX@std@@@2@XZ 0040e9f0 f i ChooseLevelState.obj
 0001:0000da10       ?_Get_first@?$_Compressed_pair@V?$allocator@U?$_Tree_node@U?$pair@$$CBV?$basic_string@DU?$char_traits@D@std@@V?$allocator@D@2@@std@@V?$shared_ptr@VRawImageData@@@2@@std@@PAX@std@@@std@@V?$_Tree_val@U?$_Tree_simple_types@U?$pair@$$CBV?$basic_string@DU?$char_traits@D@std@@V?$allocator@D@2@@std@@V?$shared_ptr@VRawImageData@@@2@@std@@@std@@@2@$00@std@@QBEABV?$allocator@U?$_Tree_node@U?$pair@$$CBV?$basic_string@DU?$char_traits@D@std@@V?$allocator@D@2@@std@@V?$shared_ptr@VRawImageData@@@2@@std@@PAX@std@@@2@XZ 0040ea10 f i ChooseLevelState.obj
 0001:0000da30       ?_Get_first@?$_Compressed_pair@V?$allocator@U?$_Tree_node@U?$pair@$$CBV?$basic_string@DU?$char_traits@D@std@@V?$allocator@D@2@@std@@V?$weak_ptr@VRawImageData@@@2@@std@@PAX@std@@@std@@V?$_Tree_val@U?$_Tree_simple_types@U?$pair@$$CBV?$basic_string@DU?$char_traits@D@std@@V?$allocator@D@2@@std@@V?$weak_ptr@VRawImageData@@@2@@std@@@std@@@2@$00@std@@QAEAAV?$allocator@U?$_Tree_node@U?$pair@$$CBV?$basic_string@DU?$char_traits@D@std@@V?$allocator@D@2@@std@@V?$weak_ptr@VRawImageData@@@2@@std@@PAX@std@@@2@XZ 0040ea30 f i ChooseLevelState.obj
 0001:0000da50       ?_Get_first@?$_Compressed_pair@V?$allocator@U?$_Tree_node@U?$pair@$$CBV?$basic_string@DU?$char_traits@D@std@@V?$allocator@D@2@@std@@V?$weak_ptr@VRawImageData@@@2@@std@@PAX@std@@@std@@V?$_Tree_val@U?$_Tree_simple_types@U?$pair@$$CBV?$basic_string@DU?$char_traits@D@std@@V?$allocator@D@2@@std@@V?$weak_ptr@VRawImageData@@@2@@std@@@std@@@2@$00@std@@QBEABV?$allocator@U?$_Tree_node@U?$pair@$$CBV?$basic_string@DU?$char_traits@D@std@@V?$allocator@D@2@@std@@V?$weak_ptr@VRawImageData@@@2@@std@@PAX@std@@@2@XZ 0040ea50 f i ChooseLevelState.obj
 0001:0000da70       ?_Get_scary@?$_Tree@V?$_Tmap_traits@V?$basic_string@DU?$char_traits@D@std@@V?$allocator@D@2@@std@@V?$shared_ptr@VRawImageData@@@2@U?$less@V?$basic_string@DU?$char_traits@D@std@@V?$allocator@D@2@@std@@@2@V?$allocator@U?$pair@$$CBV?$basic_string@DU?$char_traits@D@std@@V?$allocator@D@2@@std@@V?$shared_ptr@VRawImageData@@@2@@std@@@2@$0A@@std@@@std@@IAEPAV?$_Tree_val@U?$_Tree_simple_types@U?$pair@$$CBV?$basic_string@DU?$char_traits@D@std@@V?$allocator@D@2@@std@@V?$shared_ptr@VRawImageData@@@2@@std@@@std@@@2@XZ 0040ea70 f i ChooseLevelState.obj
 0001:0000da90       ?_Get_scary@?$_Tree@V?$_Tmap_traits@V?$basic_string@DU?$char_traits@D@std@@V?$allocator@D@2@@std@@V?$shared_ptr@VRawImageData@@@2@U?$less@V?$basic_string@DU?$char_traits@D@std@@V?$allocator@D@2@@std@@@2@V?$allocator@U?$pair@$$CBV?$basic_string@DU?$char_traits@D@std@@V?$allocator@D@2@@std@@V?$shared_ptr@VRawImageData@@@2@@std@@@2@$0A@@std@@@std@@IBEPBV?$_Tree_val@U?$_Tree_simple_types@U?$pair@$$CBV?$basic_string@DU?$char_traits@D@std@@V?$allocator@D@2@@std@@V?$shared_ptr@VRawImageData@@@2@@std@@@std@@@2@XZ 0040ea90 f i ChooseLevelState.obj
 0001:0000dab0       ?_Get_scary@?$_Tree@V?$_Tmap_traits@V?$basic_string@DU?$char_traits@D@std@@V?$allocator@D@2@@std@@V?$weak_ptr@VRawImageData@@@2@U?$less@V?$basic_string@DU?$char_traits@D@std@@V?$allocator@D@2@@std@@@2@V?$allocator@U?$pair@$$CBV?$basic_string@DU?$char_traits@D@std@@V?$allocator@D@2@@std@@V?$weak_ptr@VRawImageData@@@2@@std@@@2@$0A@@std@@@std@@IAEPAV?$_Tree_val@U?$_Tree_simple_types@U?$pair@$$CBV?$basic_string@DU?$char_traits@D@std@@V?$allocator@D@2@@std@@V?$weak_ptr@VRawImageData@@@2@@std@@@std@@@2@XZ 0040eab0 f i ChooseLevelState.obj
 0001:0000dad0       ?_Get_scary@?$_Tree@V?$_Tmap_traits@V?$basic_string@DU?$char_traits@D@std@@V?$allocator@D@2@@std@@V?$weak_ptr@VRawImageData@@@2@U?$less@V?$basic_string@DU?$char_traits@D@std@@V?$allocator@D@2@@std@@@2@V?$allocator@U?$pair@$$CBV?$basic_string@DU?$char_traits@D@std@@V?$allocator@D@2@@std@@V?$weak_ptr@VRawImageData@@@2@@std@@@2@$0A@@std@@@std@@IBEPBV?$_Tree_val@U?$_Tree_simple_types@U?$pair@$$CBV?$basic_string@DU?$char_traits@D@std@@V?$allocator@D@2@@std@@V?$weak_ptr@VRawImageData@@@2@@std@@@std@@@2@XZ 0040ead0 f i ChooseLevelState.obj
 0001:0000daf0       ?_Getal@?$_Tree@V?$_Tmap_traits@V?$basic_string@DU?$char_traits@D@std@@V?$allocator@D@2@@std@@V?$shared_ptr@VRawImageData@@@2@U?$less@V?$basic_string@DU?$char_traits@D@std@@V?$allocator@D@2@@std@@@2@V?$allocator@U?$pair@$$CBV?$basic_string@DU?$char_traits@D@std@@V?$allocator@D@2@@std@@V?$shared_ptr@VRawImageData@@@2@@std@@@2@$0A@@std@@@std@@IAEAAV?$allocator@U?$_Tree_node@U?$pair@$$CBV?$basic_string@DU?$char_traits@D@std@@V?$allocator@D@2@@std@@V?$shared_ptr@VRawImageData@@@2@@std@@PAX@std@@@2@XZ 0040eaf0 f i ChooseLevelState.obj
 0001:0000db10       ?_Getal@?$_Tree@V?$_Tmap_traits@V?$basic_string@DU?$char_traits@D@std@@V?$allocator@D@2@@std@@V?$shared_ptr@VRawImageData@@@2@U?$less@V?$basic_string@DU?$char_traits@D@std@@V?$allocator@D@2@@std@@@2@V?$allocator@U?$pair@$$CBV?$basic_string@DU?$char_traits@D@std@@V?$allocator@D@2@@std@@V?$shared_ptr@VRawImageData@@@2@@std@@@2@$0A@@std@@@std@@IBEABV?$allocator@U?$_Tree_node@U?$pair@$$CBV?$basic_string@DU?$char_traits@D@std@@V?$allocator@D@2@@std@@V?$shared_ptr@VRawImageData@@@2@@std@@PAX@std@@@2@XZ 0040eb10 f i ChooseLevelState.obj
 0001:0000db30       ?_Getal@?$_Tree@V?$_Tmap_traits@V?$basic_string@DU?$char_traits@D@std@@V?$allocator@D@2@@std@@V?$weak_ptr@VRawImageData@@@2@U?$less@V?$basic_string@DU?$char_traits@D@std@@V?$allocator@D@2@@std@@@2@V?$allocator@U?$pair@$$CBV?$basic_string@DU?$char_traits@D@std@@V?$allocator@D@2@@std@@V?$weak_ptr@VRawImageData@@@2@@std@@@2@$0A@@std@@@std@@IAEAAV?$allocator@U?$_Tree_node@U?$pair@$$CBV?$basic_string@DU?$char_traits@D@std@@V?$allocator@D@2@@std@@V?$weak_ptr@VRawImageData@@@2@@std@@PAX@std@@@2@XZ 0040eb30 f i ChooseLevelState.obj
 0001:0000db50       ?_Getal@?$_Tree@V?$_Tmap_traits@V?$basic_string@DU?$char_traits@D@std@@V?$allocator@D@2@@std@@V?$weak_ptr@VRawImageData@@@2@U?$less@V?$basic_string@DU?$char_traits@D@std@@V?$allocator@D@2@@std@@@2@V?$allocator@U?$pair@$$CBV?$basic_string@DU?$char_traits@D@std@@V?$allocator@D@2@@std@@V?$weak_ptr@VRawImageData@@@2@@std@@@2@$0A@@std@@@std@@IBEABV?$allocator@U?$_Tree_node@U?$pair@$$CBV?$basic_string@DU?$char_traits@D@std@@V?$allocator@D@2@@std@@V?$weak_ptr@VRawImageData@@@2@@std@@PAX@std@@@2@XZ 0040eb50 f i ChooseLevelState.obj
 0001:0000db70       ?_Getal@?$basic_string@DU?$char_traits@D@std@@V?$allocator@D@2@@std@@AAEAAV?$allocator@D@2@XZ 0040eb70 f i ChooseLevelState.obj
 0001:0000db90       ?_Getal@?$basic_string@DU?$char_traits@D@std@@V?$allocator@D@2@@std@@ABEABV?$allocator@D@2@XZ 0040eb90 f i ChooseLevelState.obj
 0001:0000dbb0       ?_Getcomp@?$_Tree@V?$_Tmap_traits@V?$basic_string@DU?$char_traits@D@std@@V?$allocator@D@2@@std@@V?$shared_ptr@VRawImageData@@@2@U?$less@V?$basic_string@DU?$char_traits@D@std@@V?$allocator@D@2@@std@@@2@V?$allocator@U?$pair@$$CBV?$basic_string@DU?$char_traits@D@std@@V?$allocator@D@2@@std@@V?$shared_ptr@VRawImageData@@@2@@std@@@2@$0A@@std@@@std@@IBEABU?$less@V?$basic_string@DU?$char_traits@D@std@@V?$allocator@D@2@@std@@@2@XZ 0040ebb0 f i ChooseLevelState.obj
 0001:0000dbd0       ?_Getcomp@?$_Tree@V?$_Tmap_traits@V?$basic_string@DU?$char_traits@D@std@@V?$allocator@D@2@@std@@V?$weak_ptr@VRawImageData@@@2@U?$less@V?$basic_string@DU?$char_traits@D@std@@V?$allocator@D@2@@std@@@2@V?$allocator@U?$pair@$$CBV?$basic_string@DU?$char_traits@D@std@@V?$allocator@D@2@@std@@V?$weak_ptr@VRawImageData@@@2@@std@@@2@$0A@@std@@@std@@IBEABU?$less@V?$basic_string@DU?$char_traits@D@std@@V?$allocator@D@2@@std@@@2@XZ 0040ebd0 f i ChooseLevelState.obj
 0001:0000dbf0       ?_Getcont@_Iterator_base12@std@@QBEPBU_Container_base12@2@XZ 0040ebf0 f i ChooseLevelState.obj
 0001:0000dc30       ?_Incref@?$_Ptr_base@VRawImageData@@@std@@IBEXXZ 0040ec30 f i ChooseLevelState.obj
 0001:0000dc60       ?_Incref@_Ref_count_base@std@@QAEXXZ 0040ec60 f i ChooseLevelState.obj
 0001:0000dc80       ?_Incref_nz@_Ref_count_base@std@@QAE_NXZ 0040ec80 f i ChooseLevelState.obj
 0001:0000dcf0       ?_Incwref@_Ref_count_base@std@@QAEXXZ 0040ecf0 f i ChooseLevelState.obj
 0001:0000dd10       ?_Insert_node@?$_Tree_val@U?$_Tree_simple_types@U?$pair@$$CBV?$basic_string@DU?$char_traits@D@std@@V?$allocator@D@2@@std@@V?$shared_ptr@VRawImageData@@@2@@std@@@std@@@std@@QAEPAU?$_Tree_node@U?$pair@$$CBV?$basic_string@DU?$char_traits@D@std@@V?$allocator@D@2@@std@@V?$shared_ptr@VRawImageData@@@2@@std@@PAX@2@U?$_Tree_id@PAU?$_Tree_node@U?$pair@$$CBV?$basic_string@DU?$char_traits@D@std@@V?$allocator@D@2@@std@@V?$shared_ptr@VRawImageData@@@2@@std@@PAX@std@@@2@QAU32@@Z 0040ed10 f i ChooseLevelState.obj
 0001:0000dfa0       ?_Insert_node@?$_Tree_val@U?$_Tree_simple_types@U?$pair@$$CBV?$basic_string@DU?$char_traits@D@std@@V?$allocator@D@2@@std@@V?$weak_ptr@VRawImageData@@@2@@std@@@std@@@std@@QAEPAU?$_Tree_node@U?$pair@$$CBV?$basic_string@DU?$char_traits@D@std@@V?$allocator@D@2@@std@@V?$weak_ptr@VRawImageData@@@2@@std@@PAX@2@U?$_Tree_id@PAU?$_Tree_node@U?$pair@$$CBV?$basic_string@DU?$char_traits@D@std@@V?$allocator@D@2@@std@@V?$weak_ptr@VRawImageData@@@2@@std@@PAX@std@@@2@QAU32@@Z 0040efa0 f i ChooseLevelState.obj
 0001:0000e230       ?_Large_string_engaged@?$_String_val@U?$_Simple_types@D@std@@@std@@QBE_NXZ 0040f230 f i ChooseLevelState.obj
 0001:0000e270       ?_Lrotate@?$_Tree_val@U?$_Tree_simple_types@U?$pair@$$CBV?$basic_string@DU?$char_traits@D@std@@V?$allocator@D@2@@std@@V?$shared_ptr@VRawImageData@@@2@@std@@@std@@@std@@QAEXPAU?$_Tree_node@U?$pair@$$CBV?$basic_string@DU?$char_traits@D@std@@V?$allocator@D@2@@std@@V?$shared_ptr@VRawImageData@@@2@@std@@PAX@2@@Z 0040f270 f i ChooseLevelState.obj
 0001:0000e330       ?_Lrotate@?$_Tree_val@U?$_Tree_simple_types@U?$pair@$$CBV?$basic_string@DU?$char_traits@D@std@@V?$allocator@D@2@@std@@V?$weak_ptr@VRawImageData@@@2@@std@@@std@@@std@@QAEXPAU?$_Tree_node@U?$pair@$$CBV?$basic_string@DU?$char_traits@D@std@@V?$allocator@D@2@@std@@V?$weak_ptr@VRawImageData@@@2@@std@@PAX@2@@Z 0040f330 f i ChooseLevelState.obj
 0001:0000e3f0       ?_Max@?$_Tree_val@U?$_Tree_simple_types@U?$pair@$$CBV?$basic_string@DU?$char_traits@D@std@@V?$allocator@D@2@@std@@V?$weak_ptr@VRawImageData@@@2@@std@@@std@@@std@@SAPAU?$_Tree_node@U?$pair@$$CBV?$basic_string@DU?$char_traits@D@std@@V?$allocator@D@2@@std@@V?$weak_ptr@VRawImageData@@@2@@std@@PAX@2@PAU32@@Z 0040f3f0 f i ChooseLevelState.obj
 0001:0000e420       ?_Memcpy_val_from@?$basic_string@DU?$char_traits@D@std@@V?$allocator@D@2@@std@@AAEXABV12@@Z 0040f420 f i ChooseLevelState.obj
 0001:0000e480       ?_Min@?$_Tree_val@U?$_Tree_simple_types@U?$pair@$$CBV?$basic_string@DU?$char_traits@D@std@@V?$allocator@D@2@@std@@V?$weak_ptr@VRawImageData@@@2@@std@@@std@@@std@@SAPAU?$_Tree_node@U?$pair@$$CBV?$basic_string@DU?$char_traits@D@std@@V?$allocator@D@2@@std@@V?$weak_ptr@VRawImageData@@@2@@std@@PAX@2@PAU32@@Z 0040f480 f i ChooseLevelState.obj
 0001:0000e4b0       ?_Myptr@?$_String_val@U?$_Simple_types@D@std@@@std@@QAEPADXZ 0040f4b0 f i ChooseLevelState.obj
 0001:0000e500       ?_Myptr@?$_String_val@U?$_Simple_types@D@std@@@std@@QBEPBDXZ 0040f500 f i ChooseLevelState.obj
 0001:0000e550       ?_Orphan_all@_Container_base12@std@@QAEXXZ 0040f550 f i ChooseLevelState.obj
 0001:0000e570       ?_Orphan_all_locked_v3@_Container_base12@std@@AAEXXZ 0040f570 f i ChooseLevelState.obj
 0001:0000e5b0       ?_Orphan_all_unlocked_v3@_Container_base12@std@@AAEXXZ 0040f5b0 f i ChooseLevelState.obj
 0001:0000e620       ?_Orphan_me_locked_v3@_Iterator_base12@std@@AAEXXZ 0040f620 f i ChooseLevelState.obj
 0001:0000e660       ?_Orphan_me_unlocked_v3@_Iterator_base12@std@@AAEXXZ 0040f660 f i ChooseLevelState.obj
 0001:0000e750       ?_Orphan_ptr@?$_Tree_val@U?$_Tree_simple_types@U?$pair@$$CBV?$basic_string@DU?$char_traits@D@std@@V?$allocator@D@2@@std@@V?$weak_ptr@VRawImageData@@@2@@std@@@std@@@std@@QAEXQAU?$_Tree_node@U?$pair@$$CBV?$basic_string@DU?$char_traits@D@std@@V?$allocator@D@2@@std@@V?$weak_ptr@VRawImageData@@@2@@std@@PAX@2@@Z 0040f750 f i ChooseLevelState.obj
 0001:0000e800       ?_Release@?$_Alloc_construct_ptr@V?$allocator@U?$_Tree_node@U?$pair@$$CBV?$basic_string@DU?$char_traits@D@std@@V?$allocator@D@2@@std@@V?$shared_ptr@VRawImageData@@@2@@std@@PAX@std@@@std@@@std@@QAEPAU?$_Tree_node@U?$pair@$$CBV?$basic_string@DU?$char_traits@D@std@@V?$allocator@D@2@@std@@V?$shared_ptr@VRawImageData@@@2@@std@@PAX@2@XZ 0040f800 f i ChooseLevelState.obj
 0001:0000e830       ?_Release@?$_Alloc_construct_ptr@V?$allocator@U?$_Tree_node@U?$pair@$$CBV?$basic_string@DU?$char_traits@D@std@@V?$allocator@D@2@@std@@V?$weak_ptr@VRawImageData@@@2@@std@@PAX@std@@@std@@@std@@QAEPAU?$_Tree_node@U?$pair@$$CBV?$basic_string@DU?$char_traits@D@std@@V?$allocator@D@2@@std@@V?$weak_ptr@VRawImageData@@@2@@std@@PAX@2@XZ 0040f830 f i ChooseLevelState.obj
 0001:0000e860       ?_Release@_Basic_container_proxy_ptr12@std@@QAEXXZ 0040f860 f i ChooseLevelState.obj
 0001:0000e880       ?_Rrotate@?$_Tree_val@U?$_Tree_simple_types@U?$pair@$$CBV?$basic_string@DU?$char_traits@D@std@@V?$allocator@D@2@@std@@V?$shared_ptr@VRawImageData@@@2@@std@@@std@@@std@@QAEXPAU?$_Tree_node@U?$pair@$$CBV?$basic_string@DU?$char_traits@D@std@@V?$allocator@D@2@@std@@V?$shared_ptr@VRawImageData@@@2@@std@@PAX@2@@Z 0040f880 f i ChooseLevelState.obj
 0001:0000e950       ?_Rrotate@?$_Tree_val@U?$_Tree_simple_types@U?$pair@$$CBV?$basic_string@DU?$char_traits@D@std@@V?$allocator@D@2@@std@@V?$weak_ptr@VRawImageData@@@2@@std@@@std@@@std@@QAEXPAU?$_Tree_node@U?$pair@$$CBV?$basic_string@DU?$char_traits@D@std@@V?$allocator@D@2@@std@@V?$weak_ptr@VRawImageData@@@2@@std@@PAX@2@@Z 0040f950 f i ChooseLevelState.obj
 0001:0000ea20       ?_Swap_proxy_and_iterators@?$basic_string@DU?$char_traits@D@std@@V?$allocator@D@2@@std@@AAEXAAV12@@Z 0040fa20 f i ChooseLevelState.obj
 0001:0000ea40       ?_Swap_proxy_and_iterators@_Container_base12@std@@QAEXAAU12@@Z 0040fa40 f i ChooseLevelState.obj
 0001:0000ea60       ?_Swap_proxy_and_iterators_locked@_Container_base12@std@@AAEXAAU12@@Z 0040fa60 f i ChooseLevelState.obj
 0001:0000eaa0       ?_Swap_proxy_and_iterators_unlocked@_Container_base12@std@@AAEXAAU12@@Z 0040faa0 f i ChooseLevelState.obj
 0001:0000eb00       ?_Take_contents@?$basic_string@DU?$char_traits@D@std@@V?$allocator@D@2@@std@@AAEXAAV12@@Z 0040fb00 f i ChooseLevelState.obj
 0001:0000ec50       ?_Throw_bad_array_new_length@std@@YAXXZ 0040fc50 f i ChooseLevelState.obj
 0001:0000ec80       ?_Throw_tree_length_error@std@@YAXXZ 0040fc80 f i ChooseLevelState.obj
 0001:0000eca0       ?_Tidy_deallocate@?$basic_string@DU?$char_traits@D@std@@V?$allocator@D@2@@std@@AAEXXZ 0040fca0 f i ChooseLevelState.obj
 0001:0000ed90       ?_Tidy_init@?$basic_string@DU?$char_traits@D@std@@V?$allocator@D@2@@std@@AAEXXZ 0040fd90 f i ChooseLevelState.obj
 0001:0000edf0       ?_Unwrapped@?$_Tree_iterator@V?$_Tree_val@U?$_Tree_simple_types@U?$pair@$$CBV?$basic_string@DU?$char_traits@D@std@@V?$allocator@D@2@@std@@V?$weak_ptr@VRawImageData@@@2@@std@@@std@@@std@@@std@@QBE?AV?$_Tree_unchecked_iterator@V?$_Tree_val@U?$_Tree_simple_types@U?$pair@$$CBV?$basic_string@DU?$char_traits@D@std@@V?$allocator@D@2@@std@@V?$weak_ptr@VRawImageData@@@2@@std@@@std@@@std@@@2@XZ 0040fdf0 f i ChooseLevelState.obj
 0001:0000ee30       ?_Use_count@_Ref_count_base@std@@QBEJXZ 0040fe30 f i ChooseLevelState.obj
 0001:0000ee50       ?_Xlen_string@std@@YAXXZ   0040fe50 f i ChooseLevelState.obj
 0001:0000ee70       ?__empty_global_delete@@YAXPAX@Z 0040fe70 f i ChooseLevelState.obj
 0001:0000ee80       ?__empty_global_delete@@YAXPAXI@Z 0040fe80 f i ChooseLevelState.obj
 0001:0000ee80       ?__global_delete@@YAXPAXI@Z 0040fe80 f i ChooseLevelState.obj
 0001:0000ee90       ?allocate@?$allocator@D@std@@QAEPADI@Z 0040fe90 f i ChooseLevelState.obj
 0001:0000eec0       ?allocate@?$allocator@U?$_Tree_node@U?$pair@$$CBV?$basic_string@DU?$char_traits@D@std@@V?$allocator@D@2@@std@@V?$shared_ptr@VRawImageData@@@2@@std@@PAX@std@@@std@@QAEPAU?$_Tree_node@U?$pair@$$CBV?$basic_string@DU?$char_traits@D@std@@V?$allocator@D@2@@std@@V?$shared_ptr@VRawImageData@@@2@@std@@PAX@2@I@Z 0040fec0 f i ChooseLevelState.obj
 0001:0000eef0       ?allocate@?$allocator@U?$_Tree_node@U?$pair@$$CBV?$basic_string@DU?$char_traits@D@std@@V?$allocator@D@2@@std@@V?$weak_ptr@VRawImageData@@@2@@std@@PAX@std@@@std@@QAEPAU?$_Tree_node@U?$pair@$$CBV?$basic_string@DU?$char_traits@D@std@@V?$allocator@D@2@@std@@V?$weak_ptr@VRawImageData@@@2@@std@@PAX@2@I@Z 0040fef0 f i ChooseLevelState.obj
 0001:0000ef20       ?allocate@?$allocator@U_Container_proxy@std@@@std@@QAEPAU_Container_proxy@2@I@Z 0040ff20 f i ChooseLevelState.obj
 0001:0000ef50       ?assign@?$_Narrow_char_traits@DH@std@@SAXAADABD@Z 0040ff50 f i ChooseLevelState.obj
 0001:0000ef70       ?assign@?$basic_string@DU?$char_traits@D@std@@V?$allocator@D@2@@std@@QAEAAV12@QBD@Z 0040ff70 f i ChooseLevelState.obj
 0001:0000efb0       ?assign@?$basic_string@DU?$char_traits@D@std@@V?$allocator@D@2@@std@@QAEAAV12@QBDI@Z 0040ffb0 f i ChooseLevelState.obj
 0001:0000f050       ?c_str@?$basic_string@DU?$char_traits@D@std@@V?$allocator@D@2@@std@@QBEPBDXZ 00410050 f i ChooseLevelState.obj
 0001:0000f070       ?changePixelColour@ImagePixelMapping@@UAE_NHHAAHPAVDrawingSurface@@@Z 00410070 f i ChooseLevelState.obj
 0001:0000f090       ?changePixelColour@ImagePixelMappingRotateAndColour@@UAE_NHHAAHPAVDrawingSurface@@@Z 00410090 f i ChooseLevelState.obj
 0001:0000f470       ?compare@?$_Narrow_char_traits@DH@std@@SAHQBD0I@Z 00410470 f i ChooseLevelState.obj
 0001:0000f490       ?compare@?$basic_string@DU?$char_traits@D@std@@V?$allocator@D@2@@std@@QBEHABV12@@Z 00410490 f i ChooseLevelState.obj
 0001:0000f4e0       ?copy@?$_Char_traits@DH@std@@SAPADQADQBDI@Z 004104e0 f i ChooseLevelState.obj
 0001:0000f510       ?data@?$basic_string@DU?$char_traits@D@std@@V?$allocator@D@2@@std@@QBEPBDXZ 00410510 f i ChooseLevelState.obj
 0001:0000f530       ?deallocate@?$_Default_allocator_traits@V?$allocator@U?$_Tree_node@U?$pair@$$CBV?$basic_string@DU?$char_traits@D@std@@V?$allocator@D@2@@std@@V?$weak_ptr@VRawImageData@@@2@@std@@PAX@std@@@std@@@std@@SAXAAV?$allocator@U?$_Tree_node@U?$pair@$$CBV?$basic_string@DU?$char_traits@D@std@@V?$allocator@D@2@@std@@V?$weak_ptr@VRawImageData@@@2@@std@@PAX@std@@@2@QAU?$_Tree_node@U?$pair@$$CBV?$basic_string@DU?$char_traits@D@std@@V?$allocator@D@2@@std@@V?$weak_ptr@VRawImageData@@@2@@std@@PAX@2@I@Z 00410530 f i ChooseLevelState.obj
 0001:0000f550       ?deallocate@?$_Default_allocator_traits@V?$allocator@U_Container_proxy@std@@@std@@@std@@SAXAAV?$allocator@U_Container_proxy@std@@@2@QAU_Container_proxy@2@I@Z 00410550 f i ChooseLevelState.obj
 0001:0000f570       ?deallocate@?$allocator@D@std@@QAEXQADI@Z 00410570 f i ChooseLevelState.obj
 0001:0000f5a0       ?deallocate@?$allocator@U?$_Tree_node@U?$pair@$$CBV?$basic_string@DU?$char_traits@D@std@@V?$allocator@D@2@@std@@V?$shared_ptr@VRawImageData@@@2@@std@@PAX@std@@@std@@QAEXQAU?$_Tree_node@U?$pair@$$CBV?$basic_string@DU?$char_traits@D@std@@V?$allocator@D@2@@std@@V?$shared_ptr@VRawImageData@@@2@@std@@PAX@2@I@Z 004105a0 f i ChooseLevelState.obj
 0001:0000f5d0       ?deallocate@?$allocator@U?$_Tree_node@U?$pair@$$CBV?$basic_string@DU?$char_traits@D@std@@V?$allocator@D@2@@std@@V?$weak_ptr@VRawImageData@@@2@@std@@PAX@std@@@std@@QAEXQAU?$_Tree_node@U?$pair@$$CBV?$basic_string@DU?$char_traits@D@std@@V?$allocator@D@2@@std@@V?$weak_ptr@VRawImageData@@@2@@std@@PAX@2@I@Z 004105d0 f i ChooseLevelState.obj
 0001:0000f600       ?drawForegroundOval@BaseEngine@@QAEXHHHHI@Z 00410600 f i ChooseLevelState.obj
 0001:0000f640       ?drawForegroundRectangle@BaseEngine@@QAEXHHHHI@Z 00410640 f i ChooseLevelState.obj
 0001:0000f680       ?drawForegroundString@BaseEngine@@QAEXHHPBDIPAVFont@@@Z 00410680 f i ChooseLevelState.obj
 0001:0000f6c0       ?end@?$_Tree@V?$_Tmap_traits@V?$basic_string@DU?$char_traits@D@std@@V?$allocator@D@2@@std@@V?$weak_ptr@VRawImageData@@@2@U?$less@V?$basic_string@DU?$char_traits@D@std@@V?$allocator@D@2@@std@@@2@V?$allocator@U?$pair@$$CBV?$basic_string@DU?$char_traits@D@std@@V?$allocator@D@2@@std@@V?$weak_ptr@VRawImageData@@@2@@std@@@2@$0A@@std@@@std@@QAE?AV?$_Tree_iterator@V?$_Tree_val@U?$_Tree_simple_types@U?$pair@$$CBV?$basic_string@DU?$char_traits@D@std@@V?$allocator@D@2@@std@@V?$weak_ptr@VRawImageData@@@2@@std@@@std@@@std@@@2@XZ 004106c0 f i ChooseLevelState.obj
 0001:0000f700       ?eof@?$_Narrow_char_traits@DH@std@@SAHXZ 00410700 f i ChooseLevelState.obj
 0001:0000f710       ?eq_int_type@?$_Narrow_char_traits@DH@std@@SA_NABH0@Z 00410710 f i ChooseLevelState.obj
 0001:0000f740       ?expired@?$weak_ptr@VRawImageData@@@std@@QBE_NXZ 00410740 f i ChooseLevelState.obj
 0001:0000f780       ?find@?$_Tree@V?$_Tmap_traits@V?$basic_string@DU?$char_traits@D@std@@V?$allocator@D@2@@std@@V?$weak_ptr@VRawImageData@@@2@U?$less@V?$basic_string@DU?$char_traits@D@std@@V?$allocator@D@2@@std@@@2@V?$allocator@U?$pair@$$CBV?$basic_string@DU?$char_traits@D@std@@V?$allocator@D@2@@std@@V?$weak_ptr@VRawImageData@@@2@@std@@@2@$0A@@std@@@std@@QAE?AV?$_Tree_iterator@V?$_Tree_val@U?$_Tree_simple_types@U?$pair@$$CBV?$basic_string@DU?$char_traits@D@std@@V?$allocator@D@2@@std@@V?$weak_ptr@VRawImageData@@@2@@std@@@std@@@std@@@2@ABV?$basic_string@DU?$char_traits@D@std@@V?$allocator@D@2@@2@@Z 00410780 f i ChooseLevelState.obj
 0001:0000f7d0       ?freeSurface@RawImageData@@QAEXXZ 004107d0 f i ChooseLevelState.obj
 0001:0000f850       ?get@?$_Ptr_base@VRawImageData@@@std@@IBEPAVRawImageData@@XZ 00410850 f i ChooseLevelState.obj
 0001:0000f870       ?get@ImageManager@@SAPAV1@XZ 00410870 f i ChooseLevelState.obj
 0001:0000f920       ?getBackgroundSurface@BaseEngine@@QAEPAVDrawingSurface@@XZ 00410920 f i ChooseLevelState.obj
 0001:0000f940       ?getFont@BaseEngine@@QAEPAVFont@@PBDH@Z 00410940 f i ChooseLevelState.obj
 0001:0000f970       ?getForegroundSurface@BaseEngine@@QAEPAVDrawingSurface@@XZ 00410970 f i ChooseLevelState.obj
 0001:0000f990       ?getHeight@RawImageData@@QBEHXZ 00410990 f i ChooseLevelState.obj
 0001:0000f9b0       ?getHeight@SimpleImage@@QBEHXZ 004109b0 f i ChooseLevelState.obj
 0001:0000f9e0       ?getImagePtrbyURL@ImageManager@@QAE?AV?$shared_ptr@VRawImageData@@@std@@V?$basic_string@DU?$char_traits@D@std@@V?$allocator@D@2@@3@_N1@Z 004109e0 f i ChooseLevelState.obj
 0001:0000fe20       ?getImagebyURL@ImageManager@@QAE?AVSimpleImage@@V?$basic_string@DU?$char_traits@D@std@@V?$allocator@D@2@@std@@_N1@Z 00410e20 f i ChooseLevelState.obj
 0001:0000fef0       ?getIntsPerWindowRow@DrawingSurface@@QBEIXZ 00410ef0 f i ChooseLevelState.obj
 0001:0000ff10       ?getPixel@DrawingSurface@@QAEIHH@Z 00410f10 f i ChooseLevelState.obj
 0001:0000ff80       ?getSurfaceHeight@DrawingSurface@@QBEHXZ 00410f80 f i ChooseLevelState.obj
 0001:0000ffa0       ?getSurfaceWidth@DrawingSurface@@QBEHXZ 00410fa0 f i ChooseLevelState.obj
 0001:0000ffc0       ?getWidth@RawImageData@@QBEHXZ 00410fc0 f i ChooseLevelState.obj
 0001:0000ffe0       ?getWidth@SimpleImage@@QBEHXZ 00410fe0 f i ChooseLevelState.obj
 0001:00010010       ?getWindowHeight@BaseEngine@@QBEHXZ 00411010 f i ChooseLevelState.obj
 0001:00010030       ?getWindowWidth@BaseEngine@@QBEHXZ 00411030 f i ChooseLevelState.obj
 0001:00010050       ?getXForRotationAndCrop@RawImageData@@SAHHHHHHH@Z 00411050 f i ChooseLevelState.obj
 0001:000100c0       ?getYForRotationAndCrop@RawImageData@@SAHHHHHHH@Z 004110c0 f i ChooseLevelState.obj
 0001:00010130       ?length@?$_Narrow_char_traits@DH@std@@SAIQBD@Z 00411130 f i ChooseLevelState.obj
 0001:00010150       ?loadAsNew@ImageManager@@QAE?AV?$shared_ptr@VRawImageData@@@std@@V?$basic_string@DU?$char_traits@D@std@@V?$allocator@D@2@@3@@Z 00411150 f i ChooseLevelState.obj
 0001:00010320       ?loadImage@ImageManager@@SA?AVSimpleImage@@V?$basic_string@DU?$char_traits@D@std@@V?$allocator@D@2@@std@@_N@Z 00411320 f i ChooseLevelState.obj
 0001:000103e0       ?loadImage@RawImageData@@QAE_NV?$basic_string@DU?$char_traits@D@std@@V?$allocator@D@2@@std@@HHHHH_N@Z 004113e0 f i ChooseLevelState.obj
 0001:000106f0       ?lock@?$weak_ptr@VRawImageData@@@std@@QBE?AV?$shared_ptr@VRawImageData@@@2@XZ 004116f0 f i ChooseLevelState.obj
 0001:00010740       ?mapCoordinates@ImagePixelMappingRotate@@UAE_NAAN0ABVSimpleImage@@@Z 00411740 f i ChooseLevelState.obj
 0001:00010a30       ?mapCoordinates@ImagePixelMappingRotateAndColour@@UAE_NAAN0ABVSimpleImage@@@Z 00411a30 f i ChooseLevelState.obj
 0001:00010d50       ?max@?$numeric_limits@H@std@@SAHXZ 00411d50 f i ChooseLevelState.obj
 0001:00010d60       ?max_size@?$_Default_allocator_traits@V?$allocator@D@std@@@std@@SAIABV?$allocator@D@2@@Z 00411d60 f i ChooseLevelState.obj
 0001:00010d70       ?max_size@?$_Default_allocator_traits@V?$allocator@U?$_Tree_node@U?$pair@$$CBV?$basic_string@DU?$char_traits@D@std@@V?$allocator@D@2@@std@@V?$shared_ptr@VRawImageData@@@2@@std@@PAX@std@@@std@@@std@@SAIABV?$allocator@U?$_Tree_node@U?$pair@$$CBV?$basic_string@DU?$char_traits@D@std@@V?$allocator@D@2@@std@@V?$shared_ptr@VRawImageData@@@2@@std@@PAX@std@@@2@@Z 00411d70 f i ChooseLevelState.obj
 0001:00010d80       ?max_size@?$_Default_allocator_traits@V?$allocator@U?$_Tree_node@U?$pair@$$CBV?$basic_string@DU?$char_traits@D@std@@V?$allocator@D@2@@std@@V?$weak_ptr@VRawImageData@@@2@@std@@PAX@std@@@std@@@std@@SAIABV?$allocator@U?$_Tree_node@U?$pair@$$CBV?$basic_string@DU?$char_traits@D@std@@V?$allocator@D@2@@std@@V?$weak_ptr@VRawImageData@@@2@@std@@PAX@std@@@2@@Z 00411d80 f i ChooseLevelState.obj
 0001:00010d90       ?max_size@?$_Tree@V?$_Tmap_traits@V?$basic_string@DU?$char_traits@D@std@@V?$allocator@D@2@@std@@V?$shared_ptr@VRawImageData@@@2@U?$less@V?$basic_string@DU?$char_traits@D@std@@V?$allocator@D@2@@std@@@2@V?$allocator@U?$pair@$$CBV?$basic_string@DU?$char_traits@D@std@@V?$allocator@D@2@@std@@V?$shared_ptr@VRawImageData@@@2@@std@@@2@$0A@@std@@@std@@QBEIXZ 00411d90 f i ChooseLevelState.obj
 0001:00010de0       ?max_size@?$_Tree@V?$_Tmap_traits@V?$basic_string@DU?$char_traits@D@std@@V?$allocator@D@2@@std@@V?$weak_ptr@VRawImageData@@@2@U?$less@V?$basic_string@DU?$char_traits@D@std@@V?$allocator@D@2@@std@@@2@V?$allocator@U?$pair@$$CBV?$basic_string@DU?$char_traits@D@std@@V?$allocator@D@2@@std@@V?$weak_ptr@VRawImageData@@@2@@std@@@2@$0A@@std@@@std@@QBEIXZ 00411de0 f i ChooseLevelState.obj
 0001:00010e30       ?max_size@?$basic_string@DU?$char_traits@D@std@@V?$allocator@D@2@@std@@QBEIXZ 00411e30 f i ChooseLevelState.obj
 0001:00010eb0       ?move@?$_Char_traits@DH@std@@SAPADQADQBDI@Z 00411eb0 f i ChooseLevelState.obj
 0001:00010ee0       ?pointer_to@?$pointer_traits@PAU?$pair@$$CBV?$basic_string@DU?$char_traits@D@std@@V?$allocator@D@2@@std@@V?$weak_ptr@VRawImageData@@@2@@std@@@std@@SAPAU?$pair@$$CBV?$basic_string@DU?$char_traits@D@std@@V?$allocator@D@2@@std@@V?$weak_ptr@VRawImageData@@@2@@2@AAU32@@Z 00411ee0 f i ChooseLevelState.obj
 0001:00010f00       ?rawGetPixel@DrawingSurface@@QBEIHH@Z 00411f00 f i ChooseLevelState.obj
 0001:00010f70       ?redrawDisplay@BaseEngine@@QAEXXZ 00411f70 f i ChooseLevelState.obj
 0001:00010f90       ?select_on_container_copy_construction@?$_Default_allocator_traits@V?$allocator@D@std@@@std@@SA?AV?$allocator@D@2@ABV32@@Z 00411f90 f i ChooseLevelState.obj
 0001:00010fa0       ?setDrawPointsFilter@DrawingSurface@@QAEXPAVFilterPoints@@@Z 00411fa0 f i ChooseLevelState.obj
 0001:00010fc0       ?setRotation@ImagePixelMappingRotate@@QAEXN@Z 00411fc0 f i ChooseLevelState.obj
 0001:00010fe0       ?setTransparencyColour@ImagePixelMappingRotateAndColour@@QAEXH@Z 00411fe0 f i ChooseLevelState.obj
 0001:00011000       ?size@?$basic_string@DU?$char_traits@D@std@@V?$allocator@D@2@@std@@QBEIXZ 00412000 f i ChooseLevelState.obj
 0001:00011020       ?use_count@?$_Ptr_base@VRawImageData@@@std@@QBEJXZ 00412020 f i ChooseLevelState.obj
 0001:00011060       ?virtMouseWheel@BaseEngine@@UAEXHHHH@Z 00412060 f i ChooseLevelState.obj
 0001:00011070       ?what@exception@std@@UBEPBDXZ 00412070 f i ChooseLevelState.obj
 0001:000110b0       ___local_stdio_printf_options 004120b0 f i ChooseLevelState.obj
 0001:000110c0       __vfprintf_l               004120c0 f i ChooseLevelState.obj
 0001:00011100       _printf                    00412100 f i ChooseLevelState.obj
 0001:00011150       ?updateHighest10Scores@GameOverState@@AAEXXZ 00412150 f   GameOverState.obj
 0001:00011710       ?inputUserName@GameOverState@@AAEXH@Z 00412710 f   GameOverState.obj
 0001:00011770       ?deleteUserName@GameOverState@@AAEXXZ 00412770 f   GameOverState.obj
 0001:000117d0       ?virtInitialise@GameOverState@@UAEHPAVScyyz12Engine2@@@Z 004127d0 f   GameOverState.obj
 0001:000117f0       ?virtSetupBackgroundBuffer@GameOverState@@UAEXPAVScyyz12Engine2@@@Z 004127f0 f   GameOverState.obj
 0001:00011b40       ?virtDrawStringsOnTop@GameOverState@@UAEXPAVScyyz12Engine2@@@Z 00412b40 f   GameOverState.obj
 0001:00011b80       ?virtInitialiseObjects@GameOverState@@UAEHPAVScyyz12Engine2@@@Z 00412b80 f   GameOverState.obj
 0001:00011ba0       ?virtMouseDown@GameOverState@@UAEXPAVScyyz12Engine2@@HHH@Z 00412ba0 f   GameOverState.obj
 0001:00011c50       ?virtMouseWheel@GameOverState@@UAEXPAVScyyz12Engine2@@HHHH@Z 00412c50 f   GameOverState.obj
 0001:00011c80       ?virtMainLoopDoBeforeUpdate@GameOverState@@UAEXPAVScyyz12Engine2@@@Z 00412c80 f   GameOverState.obj
 0001:00011ca0       ?copyAllBackgroundBuffer@GameOverState@@UAEXPAVScyyz12Engine2@@@Z 00412ca0 f   GameOverState.obj
 0001:00011cc0       ?virtKeyDown@GameOverState@@UAEXPAVScyyz12Engine2@@H@Z 00412cc0 f   GameOverState.obj
 0001:00011d70       ?virtCreateSurfaces@GameOverState@@UAEXPAVScyyz12Engine2@@@Z 00412d70 f   GameOverState.obj
 0001:000120a0       ??$?0$$V@?$_Compressed_pair@V?$allocator@V?$basic_string@DU?$char_traits@D@std@@V?$allocator@D@2@@std@@@std@@V?$_Vector_val@U?$_Simple_types@V?$basic_string@DU?$char_traits@D@std@@V?$allocator@D@2@@std@@@std@@@2@$00@std@@QAE@U_Zero_then_variadic_args_t@1@@Z 004130a0 f i GameOverState.obj
 0001:000120d0       ??$?0AAPAV_Facet_base@std@@@?$_Compressed_pair@U?$default_delete@V_Facet_base@std@@@std@@PAV_Facet_base@2@$00@std@@QAE@U_Zero_then_variadic_args_t@1@AAPAV_Facet_base@1@@Z 004130d0 f i GameOverState.obj
 0001:00012100       ??$?0ABV?$allocator@D@std@@$$V@?$_Compressed_pair@V?$allocator@D@std@@V?$_String_val@U?$_Simple_types@D@std@@@2@$00@std@@QAE@U_One_then_variadic_args_t@1@ABV?$allocator@D@1@@Z 00413100 f i GameOverState.obj
 0001:00012130       ??$?0ABV?$basic_string@DU?$char_traits@D@std@@V?$allocator@D@2@@std@@@?$_Alloc_temporary@V?$allocator@V?$basic_string@DU?$char_traits@D@std@@V?$allocator@D@2@@std@@@std@@@std@@QAE@AAV?$allocator@V?$basic_string@DU?$char_traits@D@std@@V?$allocator@D@2@@std@@@1@ABV?$basic_string@DU?$char_traits@D@std@@V?$allocator@D@2@@1@@Z 00413130 f i GameOverState.obj
 0001:00012190       ??$?0PAD$0A@@?$basic_string@DU?$char_traits@D@std@@V?$allocator@D@2@@std@@QAE@PAD0ABV?$allocator@D@1@@Z 00413190 f i GameOverState.obj
 0001:000122a0       ??$?0U?$default_delete@V_Facet_base@std@@@std@@$0A@@?$unique_ptr@V_Facet_base@std@@U?$default_delete@V_Facet_base@std@@@2@@std@@QAE@PAV_Facet_base@1@@Z 004132a0 f i GameOverState.obj
 0001:000122d0       ??$?0V?$allocator@V?$basic_string@DU?$char_traits@D@std@@V?$allocator@D@2@@std@@@std@@PAV?$basic_string@DU?$char_traits@D@std@@V?$allocator@D@2@@1@PAV21@PAV21@@?$_Compressed_pair@V?$allocator@V?$basic_string@DU?$char_traits@D@std@@V?$allocator@D@2@@std@@@std@@V?$_Vector_val@U?$_Simple_types@V?$basic_string@DU?$char_traits@D@std@@V?$allocator@D@2@@std@@@std@@@2@$00@std@@QAE@U_One_then_variadic_args_t@1@$$QAV?$allocator@V?$basic_string@DU?$char_traits@D@std@@V?$allocator@D@2@@std@@@1@$$QAPAV?$basic_string@DU?$char_traits@D@std@@V?$allocator@D@2@@1@22@Z 004132d0 f i GameOverState.obj
 0001:00012340       ??$?0V?$basic_string@DU?$char_traits@D@std@@V?$allocator@D@2@@std@@@?$_Alloc_temporary@V?$allocator@V?$basic_string@DU?$char_traits@D@std@@V?$allocator@D@2@@std@@@std@@@std@@QAE@AAV?$allocator@V?$basic_string@DU?$char_traits@D@std@@V?$allocator@D@2@@std@@@1@$$QAV?$basic_string@DU?$char_traits@D@std@@V?$allocator@D@2@@1@@Z 00413340 f i GameOverState.obj
 0001:000123a0       ??$?0V?$basic_string@DU?$char_traits@D@std@@V?$allocator@D@2@@std@@@?$allocator@U_Container_proxy@std@@@std@@QAE@ABV?$allocator@V?$basic_string@DU?$char_traits@D@std@@V?$allocator@D@2@@std@@@1@@Z 004133a0 f i GameOverState.obj
 0001:000123c0       ??$?8DU?$char_traits@D@std@@V?$allocator@D@1@@std@@YA_NABV?$basic_string@DU?$char_traits@D@std@@V?$allocator@D@2@@0@QBD@Z 004133c0 f i GameOverState.obj
 0001:000123e0       ??$_Adl_verify_range@PADPAD@std@@YAXABQAD0@Z 004133e0 f i GameOverState.obj
 0001:00012400       ??$_Destroy_range@V?$allocator@V?$basic_string@DU?$char_traits@D@std@@V?$allocator@D@2@@std@@@std@@@std@@YAXPAV?$basic_string@DU?$char_traits@D@std@@V?$allocator@D@2@@0@QAV10@AAV?$allocator@V?$basic_string@DU?$char_traits@D@std@@V?$allocator@D@2@@std@@@0@@Z 00413400 f i GameOverState.obj
 0001:00012480       ??$_Emplace_back@V?$basic_string@DU?$char_traits@D@std@@V?$allocator@D@2@@std@@@?$_Uninitialized_backout_al@V?$allocator@V?$basic_string@DU?$char_traits@D@std@@V?$allocator@D@2@@std@@@std@@@std@@QAEX$$QAV?$basic_string@DU?$char_traits@D@std@@V?$allocator@D@2@@1@@Z 00413480 f i GameOverState.obj
 0001:000124e0       ??$_Emplace_back_with_unused_capacity@AAV?$basic_string@DU?$char_traits@D@std@@V?$allocator@D@2@@std@@@?$vector@V?$basic_string@DU?$char_traits@D@std@@V?$allocator@D@2@@std@@V?$allocator@V?$basic_string@DU?$char_traits@D@std@@V?$allocator@D@2@@std@@@2@@std@@AAE?A_TAAV?$basic_string@DU?$char_traits@D@std@@V?$allocator@D@2@@1@@Z 004134e0 f i GameOverState.obj
 0001:00012580       ??$_Emplace_back_with_unused_capacity@ABV?$basic_string@DU?$char_traits@D@std@@V?$allocator@D@2@@std@@@?$vector@V?$basic_string@DU?$char_traits@D@std@@V?$allocator@D@2@@std@@V?$allocator@V?$basic_string@DU?$char_traits@D@std@@V?$allocator@D@2@@std@@@2@@std@@AAE?A_TABV?$basic_string@DU?$char_traits@D@std@@V?$allocator@D@2@@1@@Z 00413580 f i GameOverState.obj
 0001:00012620       ??$_Emplace_back_with_unused_capacity@V?$basic_string@DU?$char_traits@D@std@@V?$allocator@D@2@@std@@@?$vector@V?$basic_string@DU?$char_traits@D@std@@V?$allocator@D@2@@std@@V?$allocator@V?$basic_string@DU?$char_traits@D@std@@V?$allocator@D@2@@std@@@2@@std@@AAE?A_T$$QAV?$basic_string@DU?$char_traits@D@std@@V?$allocator@D@2@@1@@Z 00413620 f i GameOverState.obj
 0001:000126c0       ??$_Emplace_reallocate@AAV?$basic_string@DU?$char_traits@D@std@@V?$allocator@D@2@@std@@@?$vector@V?$basic_string@DU?$char_traits@D@std@@V?$allocator@D@2@@std@@V?$allocator@V?$basic_string@DU?$char_traits@D@std@@V?$allocator@D@2@@std@@@2@@std@@QAEPAV?$basic_string@DU?$char_traits@D@std@@V?$allocator@D@2@@1@QAV21@AAV21@@Z 004136c0 f i GameOverState.obj
 0001:00012910       ??$_Emplace_reallocate@ABV?$basic_string@DU?$char_traits@D@std@@V?$allocator@D@2@@std@@@?$vector@V?$basic_string@DU?$char_traits@D@std@@V?$allocator@D@2@@std@@V?$allocator@V?$basic_string@DU?$char_traits@D@std@@V?$allocator@D@2@@std@@@2@@std@@QAEPAV?$basic_string@DU?$char_traits@D@std@@V?$allocator@D@2@@1@QAV21@ABV21@@Z 00413910 f i GameOverState.obj
 0001:00012b60       ??$_Emplace_reallocate@V?$basic_string@DU?$char_traits@D@std@@V?$allocator@D@2@@std@@@?$vector@V?$basic_string@DU?$char_traits@D@std@@V?$allocator@D@2@@std@@V?$allocator@V?$basic_string@DU?$char_traits@D@std@@V?$allocator@D@2@@std@@@2@@std@@QAEPAV?$basic_string@DU?$char_traits@D@std@@V?$allocator@D@2@@1@QAV21@$$QAV21@@Z 00413b60 f i GameOverState.obj
 0001:00012db0       ??$_Fgetc@D@std@@YA_NAADPAU_iobuf@@@Z 00413db0 f i GameOverState.obj
 0001:00012df0       ??$_Fputc@D@std@@YA_NDPAU_iobuf@@@Z 00413df0 f i GameOverState.obj
 0001:00012e30       ??$_Get_size_of_n@$0BM@@std@@YAII@Z 00413e30 f i GameOverState.obj
 0001:00012e60       ??$_Get_unwrapped@AAPAD@std@@YA?A_TAAPAD@Z 00413e60 f i GameOverState.obj
 0001:00012e70       ??$_Get_unwrapped@ABQAV?$basic_string@DU?$char_traits@D@std@@V?$allocator@D@2@@std@@@std@@YA?A_TABQAV?$basic_string@DU?$char_traits@D@std@@V?$allocator@D@2@@0@@Z 00413e70 f i GameOverState.obj
 0001:00012e80       ??$_Integral_to_string@DH@std@@YA?AV?$basic_string@DU?$char_traits@D@std@@V?$allocator@D@2@@0@H@Z 00413e80 f i GameOverState.obj
 0001:00012f50       ??$_Move_backward_unchecked@PAV?$basic_string@DU?$char_traits@D@std@@V?$allocator@D@2@@std@@PAV12@@std@@YAPAV?$basic_string@DU?$char_traits@D@std@@V?$allocator@D@2@@0@PAV10@00@Z 00413f50 f i GameOverState.obj
 0001:00012fa0       ??$_Pocma@V?$allocator@D@std@@@std@@YAXAAV?$allocator@D@0@0@Z 00413fa0 f i GameOverState.obj
 0001:00012fc0       ??$_Reallocate_grow_by@V<lambda_15711c68e099a15a58f4d77303cb286d>@@D@?$basic_string@DU?$char_traits@D@std@@V?$allocator@D@2@@std@@AAEAAV01@IV<lambda_15711c68e099a15a58f4d77303cb286d>@@D@Z 00413fc0 f i GameOverState.obj
 0001:00013130       ??$_Traits_equal@U?$char_traits@D@std@@@std@@YA_NQBDI0I@Z 00414130 f i GameOverState.obj
 0001:00013180       ??$_UIntegral_to_buff@DI@std@@YAPADPADI@Z 00414180 f i GameOverState.obj
 0001:000131e0       ??$_Unfancy@V?$basic_string@DU?$char_traits@D@std@@V?$allocator@D@2@@std@@@std@@YAPAV?$basic_string@DU?$char_traits@D@std@@V?$allocator@D@2@@0@PAV10@@Z 004141e0 f i GameOverState.obj
 0001:000131f0       ??$_Ungetc@D@std@@YA_NABDPAU_iobuf@@@Z 004141f0 f i GameOverState.obj
 0001:00013240       ??$_Uninitialized_move@PAV?$basic_string@DU?$char_traits@D@std@@V?$allocator@D@2@@std@@V?$allocator@V?$basic_string@DU?$char_traits@D@std@@V?$allocator@D@2@@std@@@2@@std@@YAPAV?$basic_string@DU?$char_traits@D@std@@V?$allocator@D@2@@0@QAV10@0PAV10@AAV?$allocator@V?$basic_string@DU?$char_traits@D@std@@V?$allocator@D@2@@std@@@0@@Z 00414240 f i GameOverState.obj
 0001:00013320       ??$_Verify_range@D@std@@YAXQBD0@Z 00414320 f i GameOverState.obj
 0001:000133a0       ??$_Voidify_iter@PAV?$basic_string@DU?$char_traits@D@std@@V?$allocator@D@2@@std@@@std@@YAPAXPAV?$basic_string@DU?$char_traits@D@std@@V?$allocator@D@2@@0@@Z 004143a0 f i GameOverState.obj
 0001:000133b0       ??$addressof@$$CBV?$codecvt@DDU_Mbstatet@@@std@@@std@@YAPBV?$codecvt@DDU_Mbstatet@@@0@ABV10@@Z 004143b0 f i GameOverState.obj
 0001:000133c0       ??$addressof@V?$_Vector_val@U?$_Simple_types@V?$basic_string@DU?$char_traits@D@std@@V?$allocator@D@2@@std@@@std@@@std@@@std@@YAPAV?$_Vector_val@U?$_Simple_types@V?$basic_string@DU?$char_traits@D@std@@V?$allocator@D@2@@std@@@std@@@0@AAV10@@Z 004143c0 f i GameOverState.obj
 0001:000133d0       ??$addressof@V?$basic_filebuf@DU?$char_traits@D@std@@@std@@@std@@YAPAV?$basic_filebuf@DU?$char_traits@D@std@@@0@AAV10@@Z 004143d0 f i GameOverState.obj
 0001:000133e0       ??$addressof@V?$basic_string@DU?$char_traits@D@std@@V?$allocator@D@2@@std@@@std@@YAPAV?$basic_string@DU?$char_traits@D@std@@V?$allocator@D@2@@0@AAV10@@Z 004143e0 f i GameOverState.obj
 0001:000133f0       ??$construct@V?$basic_string@DU?$char_traits@D@std@@V?$allocator@D@2@@std@@AAV12@@?$_Default_allocator_traits@V?$allocator@V?$basic_string@DU?$char_traits@D@std@@V?$allocator@D@2@@std@@@std@@@std@@SAXAAV?$allocator@V?$basic_string@DU?$char_traits@D@std@@V?$allocator@D@2@@std@@@1@QAV?$basic_string@DU?$char_traits@D@std@@V?$allocator@D@2@@1@AAV31@@Z 004143f0 f i GameOverState.obj
 0001:00013440       ??$construct@V?$basic_string@DU?$char_traits@D@std@@V?$allocator@D@2@@std@@ABV12@@?$_Default_allocator_traits@V?$allocator@V?$basic_string@DU?$char_traits@D@std@@V?$allocator@D@2@@std@@@std@@@std@@SAXAAV?$allocator@V?$basic_string@DU?$char_traits@D@std@@V?$allocator@D@2@@std@@@1@QAV?$basic_string@DU?$char_traits@D@std@@V?$allocator@D@2@@1@ABV31@@Z 00414440 f i GameOverState.obj
 0001:00013490       ??$construct@V?$basic_string@DU?$char_traits@D@std@@V?$allocator@D@2@@std@@V12@@?$_Default_allocator_traits@V?$allocator@V?$basic_string@DU?$char_traits@D@std@@V?$allocator@D@2@@std@@@std@@@std@@SAXAAV?$allocator@V?$basic_string@DU?$char_traits@D@std@@V?$allocator@D@2@@std@@@1@QAV?$basic_string@DU?$char_traits@D@std@@V?$allocator@D@2@@1@$$QAV31@@Z 00414490 f i GameOverState.obj
 0001:000134e0       ??$destroy@V?$basic_string@DU?$char_traits@D@std@@V?$allocator@D@2@@std@@@?$_Default_allocator_traits@V?$allocator@V?$basic_string@DU?$char_traits@D@std@@V?$allocator@D@2@@std@@@std@@@std@@SAXAAV?$allocator@V?$basic_string@DU?$char_traits@D@std@@V?$allocator@D@2@@std@@@1@QAV?$basic_string@DU?$char_traits@D@std@@V?$allocator@D@2@@1@@Z 004144e0 f i GameOverState.obj
 0001:00013500       ??$emplace@ABV?$basic_string@DU?$char_traits@D@std@@V?$allocator@D@2@@std@@@?$vector@V?$basic_string@DU?$char_traits@D@std@@V?$allocator@D@2@@std@@V?$allocator@V?$basic_string@DU?$char_traits@D@std@@V?$allocator@D@2@@std@@@2@@std@@QAE?AV?$_Vector_iterator@V?$_Vector_val@U?$_Simple_types@V?$basic_string@DU?$char_traits@D@std@@V?$allocator@D@2@@std@@@std@@@std@@@1@V?$_Vector_const_iterator@V?$_Vector_val@U?$_Simple_types@V?$basic_string@DU?$char_traits@D@std@@V?$allocator@D@2@@std@@@std@@@std@@@1@ABV?$basic_string@DU?$char_traits@D@std@@V?$allocator@D@2@@1@@Z 00414500 f i GameOverState.obj
 0001:000137b0       ??$emplace@V?$basic_string@DU?$char_traits@D@std@@V?$allocator@D@2@@std@@@?$vector@V?$basic_string@DU?$char_traits@D@std@@V?$allocator@D@2@@std@@V?$allocator@V?$basic_string@DU?$char_traits@D@std@@V?$allocator@D@2@@std@@@2@@std@@QAE?AV?$_Vector_iterator@V?$_Vector_val@U?$_Simple_types@V?$basic_string@DU?$char_traits@D@std@@V?$allocator@D@2@@std@@@std@@@std@@@1@V?$_Vector_const_iterator@V?$_Vector_val@U?$_Simple_types@V?$basic_string@DU?$char_traits@D@std@@V?$allocator@D@2@@std@@@std@@@std@@@1@$$QAV?$basic_string@DU?$char_traits@D@std@@V?$allocator@D@2@@1@@Z 004147b0 f i GameOverState.obj
 0001:00013a60       ??$emplace_back@AAV?$basic_string@DU?$char_traits@D@std@@V?$allocator@D@2@@std@@@?$vector@V?$basic_string@DU?$char_traits@D@std@@V?$allocator@D@2@@std@@V?$allocator@V?$basic_string@DU?$char_traits@D@std@@V?$allocator@D@2@@std@@@2@@std@@QAE?A_TAAV?$basic_string@DU?$char_traits@D@std@@V?$allocator@D@2@@1@@Z 00414a60 f i GameOverState.obj
 0001:00013ae0       ??$emplace_back@V?$basic_string@DU?$char_traits@D@std@@V?$allocator@D@2@@std@@@?$vector@V?$basic_string@DU?$char_traits@D@std@@V?$allocator@D@2@@std@@V?$allocator@V?$basic_string@DU?$char_traits@D@std@@V?$allocator@D@2@@std@@@2@@std@@QAE?A_T$$QAV?$basic_string@DU?$char_traits@D@std@@V?$allocator@D@2@@1@@Z 00414ae0 f i GameOverState.obj
 0001:00013b60       ??$end@D$0BF@@std@@YAPADAAY0BF@D@Z 00414b60 f i GameOverState.obj
 0001:00013b70       ??$exchange@PAU_Container_proxy@std@@$$T@std@@YAPAU_Container_proxy@0@AAPAU10@$$QA$$T@Z 00414b70 f i GameOverState.obj
 0001:00013ba0       ??$exchange@PAV?$basic_string@DU?$char_traits@D@std@@V?$allocator@D@2@@std@@$$T@std@@YAPAV?$basic_string@DU?$char_traits@D@std@@V?$allocator@D@2@@0@AAPAV10@$$QA$$T@Z 00414ba0 f i GameOverState.obj
 0001:00013bd0       ??$exchange@PAV_Facet_base@std@@$$T@std@@YAPAV_Facet_base@0@AAPAV10@$$QA$$T@Z 00414bd0 f i GameOverState.obj
 0001:00013c00       ??$forward@AAPAV_Facet_base@std@@@std@@YAAAPAV_Facet_base@0@AAPAV10@@Z 00414c00 f i GameOverState.obj
 0001:00013c10       ??$forward@ABV?$allocator@D@std@@@std@@YAABV?$allocator@D@0@ABV10@@Z 00414c10 f i GameOverState.obj
 0001:00013c20       ??$forward@ABV?$basic_string@DU?$char_traits@D@std@@V?$allocator@D@2@@std@@@std@@YAABV?$basic_string@DU?$char_traits@D@std@@V?$allocator@D@2@@0@ABV10@@Z 00414c20 f i GameOverState.obj
 0001:00013c30       ??$forward@PAV?$basic_string@DU?$char_traits@D@std@@V?$allocator@D@2@@std@@@std@@YA$$QAPAV?$basic_string@DU?$char_traits@D@std@@V?$allocator@D@2@@0@AAPAV10@@Z 00414c30 f i GameOverState.obj
 0001:00013c40       ??$forward@V?$allocator@V?$basic_string@DU?$char_traits@D@std@@V?$allocator@D@2@@std@@@std@@@std@@YA$$QAV?$allocator@V?$basic_string@DU?$char_traits@D@std@@V?$allocator@D@2@@std@@@0@AAV10@@Z 00414c40 f i GameOverState.obj
 0001:00013c50       ??$getline@DU?$char_traits@D@std@@V?$allocator@D@2@@std@@YAAAV?$basic_istream@DU?$char_traits@D@std@@@0@$$QAV10@AAV?$basic_string@DU?$char_traits@D@std@@V?$allocator@D@2@@0@D@Z 00414c50 f i GameOverState.obj
 0001:00013ed0       ??$getline@DU?$char_traits@D@std@@V?$allocator@D@2@@std@@YAAAV?$basic_istream@DU?$char_traits@D@std@@@0@AAV10@AAV?$basic_string@DU?$char_traits@D@std@@V?$allocator@D@2@@0@@Z 00414ed0 f i GameOverState.obj
 0001:00013f20       ??$move@AAV?$allocator@V?$basic_string@DU?$char_traits@D@std@@V?$allocator@D@2@@std@@@std@@@std@@YA$$QAV?$allocator@V?$basic_string@DU?$char_traits@D@std@@V?$allocator@D@2@@std@@@0@AAV10@@Z 00414f20 f i GameOverState.obj
 0001:00013f30       ??$move@AAV?$basic_istream@DU?$char_traits@D@std@@@std@@@std@@YA$$QAV?$basic_istream@DU?$char_traits@D@std@@@0@AAV10@@Z 00414f30 f i GameOverState.obj
 0001:00013f40       ??$move@AAV?$basic_string@DU?$char_traits@D@std@@V?$allocator@D@2@@std@@@std@@YA$$QAV?$basic_string@DU?$char_traits@D@std@@V?$allocator@D@2@@0@AAV10@@Z 00414f40 f i GameOverState.obj
 0001:00013f50       ??$size@V?$basic_string@DU?$char_traits@D@std@@V?$allocator@D@2@@std@@@std@@YAIABV?$basic_string@DU?$char_traits@D@std@@V?$allocator@D@2@@0@@Z 00414f50 f i GameOverState.obj
 0001:00013f60       ??$size@V?$vector@V?$basic_string@DU?$char_traits@D@std@@V?$allocator@D@2@@std@@V?$allocator@V?$basic_string@DU?$char_traits@D@std@@V?$allocator@D@2@@std@@@2@@std@@@std@@YAIABV?$vector@V?$basic_string@DU?$char_traits@D@std@@V?$allocator@D@2@@std@@V?$allocator@V?$basic_string@DU?$char_traits@D@std@@V?$allocator@D@2@@std@@@2@@0@@Z 00414f60 f i GameOverState.obj
 0001:00013f70       ??$use_facet@V?$codecvt@DDU_Mbstatet@@@std@@@std@@YAABV?$codecvt@DDU_Mbstatet@@@0@ABVlocale@0@@Z 00414f70 f i GameOverState.obj
 0001:000140c0       ??$write@V?$basic_string@DU?$char_traits@D@std@@V?$allocator@D@2@@std@@@FileWriter@@QAEXV?$basic_string@DU?$char_traits@D@std@@V?$allocator@D@2@@std@@@Z 004150c0 f i GameOverState.obj
 0001:00014150       ??0?$_Uninitialized_backout_al@V?$allocator@V?$basic_string@DU?$char_traits@D@std@@V?$allocator@D@2@@std@@@std@@@std@@QAE@PAV?$basic_string@DU?$char_traits@D@std@@V?$allocator@D@2@@1@AAV?$allocator@V?$basic_string@DU?$char_traits@D@std@@V?$allocator@D@2@@std@@@1@@Z 00415150 f i GameOverState.obj
 0001:00014190       ??0?$_Vector_const_iterator@V?$_Vector_val@U?$_Simple_types@V?$basic_string@DU?$char_traits@D@std@@V?$allocator@D@2@@std@@@std@@@std@@@std@@QAE@ABV01@@Z 00415190 f i GameOverState.obj
 0001:000141d0       ??0?$_Vector_const_iterator@V?$_Vector_val@U?$_Simple_types@V?$basic_string@DU?$char_traits@D@std@@V?$allocator@D@2@@std@@@std@@@std@@@std@@QAE@PAV?$basic_string@DU?$char_traits@D@std@@V?$allocator@D@2@@1@PBU_Container_base12@1@@Z 004151d0 f i GameOverState.obj
 0001:00014210       ??0?$_Vector_iterator@V?$_Vector_val@U?$_Simple_types@V?$basic_string@DU?$char_traits@D@std@@V?$allocator@D@2@@std@@@std@@@std@@@std@@QAE@ABV01@@Z 00415210 f i GameOverState.obj
 0001:00014240       ??0?$_Vector_iterator@V?$_Vector_val@U?$_Simple_types@V?$basic_string@DU?$char_traits@D@std@@V?$allocator@D@2@@std@@@std@@@std@@@std@@QAE@PAV?$basic_string@DU?$char_traits@D@std@@V?$allocator@D@2@@1@PBU_Container_base12@1@@Z 00415240 f i GameOverState.obj
 0001:00014270       ??0?$_Vector_val@U?$_Simple_types@V?$basic_string@DU?$char_traits@D@std@@V?$allocator@D@2@@std@@@std@@@std@@QAE@PAV?$basic_string@DU?$char_traits@D@std@@V?$allocator@D@2@@1@00@Z 00415270 f i GameOverState.obj
 0001:000142b0       ??0?$_Vector_val@U?$_Simple_types@V?$basic_string@DU?$char_traits@D@std@@V?$allocator@D@2@@std@@@std@@@std@@QAE@XZ 004152b0 f i GameOverState.obj
 0001:00014300       ??0?$allocator@V?$basic_string@DU?$char_traits@D@std@@V?$allocator@D@2@@std@@@std@@QAE@XZ 00415300 f i GameOverState.obj
 0001:00014320       ??0?$basic_filebuf@DU?$char_traits@D@std@@@std@@QAE@XZ 00415320 f i GameOverState.obj
 0001:000143a0       ??0?$basic_ifstream@DU?$char_traits@D@std@@@std@@QAE@PBDHH@Z 004153a0 f i GameOverState.obj
 0001:000144f0       ??0?$basic_ofstream@DU?$char_traits@D@std@@@std@@QAE@PBDHH@Z 004154f0 f i GameOverState.obj
 0001:00014640       ??0?$basic_string@DU?$char_traits@D@std@@V?$allocator@D@2@@std@@QAE@XZ 00415640 f i GameOverState.obj
 0001:000146d0       ??0?$fpos@U_Mbstatet@@@std@@QAE@U_Mbstatet@@_J@Z 004156d0 f i GameOverState.obj
 0001:00014720       ??0?$fpos@U_Mbstatet@@@std@@QAE@_J@Z 00415720 f i GameOverState.obj
 0001:00014770       ??0?$vector@V?$basic_string@DU?$char_traits@D@std@@V?$allocator@D@2@@std@@V?$allocator@V?$basic_string@DU?$char_traits@D@std@@V?$allocator@D@2@@std@@@2@@std@@QAE@$$QAV01@@Z 00415770 f i GameOverState.obj
 0001:000148a0       ??0?$vector@V?$basic_string@DU?$char_traits@D@std@@V?$allocator@D@2@@std@@V?$allocator@V?$basic_string@DU?$char_traits@D@std@@V?$allocator@D@2@@std@@@2@@std@@QAE@XZ 004158a0 f i GameOverState.obj
 0001:00014920       ??0FileReader@@QAE@PAD@Z   00415920 f i GameOverState.obj
 0001:00014950       ??0FileWriter@@QAE@PAD@Z   00415950 f i GameOverState.obj
 0001:00014980       ??0_Sentry_base@?$basic_istream@DU?$char_traits@D@std@@@std@@QAE@AAV12@@Z 00415980 f i GameOverState.obj
 0001:000149e0       ??0bad_cast@std@@QAE@ABV01@@Z 004159e0 f i GameOverState.obj
 0001:00014a10       ??0bad_cast@std@@QAE@XZ    00415a10 f i GameOverState.obj
 0001:00014a40       ??0sentry@?$basic_istream@DU?$char_traits@D@std@@@std@@QAE@AAV12@_N@Z 00415a40 f i GameOverState.obj
 0001:00014ad0       ??1?$_Alloc_temporary@V?$allocator@V?$basic_string@DU?$char_traits@D@std@@V?$allocator@D@2@@std@@@std@@@std@@QAE@XZ 00415ad0 f i GameOverState.obj
 0001:00014b40       ??1?$_Uninitialized_backout_al@V?$allocator@V?$basic_string@DU?$char_traits@D@std@@V?$allocator@D@2@@std@@@std@@@std@@QAE@XZ 00415b40 f i GameOverState.obj
 0001:00014b70       ??1?$_Vector_const_iterator@V?$_Vector_val@U?$_Simple_types@V?$basic_string@DU?$char_traits@D@std@@V?$allocator@D@2@@std@@@std@@@std@@@std@@QAE@XZ 00415b70 f i GameOverState.obj
 0001:00014b90       ??1?$_Vector_iterator@V?$_Vector_val@U?$_Simple_types@V?$basic_string@DU?$char_traits@D@std@@V?$allocator@D@2@@std@@@std@@@std@@@std@@QAE@XZ 00415b90 f i GameOverState.obj
 0001:00014bb0       ??1?$basic_filebuf@DU?$char_traits@D@std@@@std@@UAE@XZ 00415bb0 f i GameOverState.obj
 0001:00014c40       ??1?$basic_ifstream@DU?$char_traits@D@std@@@std@@UAE@XZ 00415c40 f i GameOverState.obj
 0001:00014cb0       ??1?$basic_ofstream@DU?$char_traits@D@std@@@std@@UAE@XZ 00415cb0 f i GameOverState.obj
 0001:00014d20       ??1?$unique_ptr@V_Facet_base@std@@U?$default_delete@V_Facet_base@std@@@2@@std@@QAE@XZ 00415d20 f i GameOverState.obj
 0001:00014d60       ??1?$vector@V?$basic_string@DU?$char_traits@D@std@@V?$allocator@D@2@@std@@V?$allocator@V?$basic_string@DU?$char_traits@D@std@@V?$allocator@D@2@@std@@@2@@std@@QAE@XZ 00415d60 f i GameOverState.obj
 0001:00014dd0       ??1FileReader@@QAE@XZ      00415dd0 f i GameOverState.obj
 0001:00014e30       ??1FileWriter@@QAE@XZ      00415e30 f i GameOverState.obj
 0001:00014e90       ??1_Sentry_base@?$basic_istream@DU?$char_traits@D@std@@@std@@QAE@XZ 00415e90 f i GameOverState.obj
 0001:00014f20       ??1bad_cast@std@@UAE@XZ    00415f20 f i GameOverState.obj
 0001:00014f40       ??1locale@std@@QAE@XZ      00415f40 f i GameOverState.obj
 0001:00014fa0       ??1sentry@?$basic_istream@DU?$char_traits@D@std@@@std@@QAE@XZ 00415fa0 f i GameOverState.obj
 0001:00014fc0       ??4?$basic_string@DU?$char_traits@D@std@@V?$allocator@D@2@@std@@QAEAAV01@$$QAV01@@Z 00415fc0 f i GameOverState.obj
 0001:00015010       ??4?$basic_string@DU?$char_traits@D@std@@V?$allocator@D@2@@std@@QAEAAV01@QBD@Z 00416010 f i GameOverState.obj
 0001:00015030       ??A?$vector@V?$basic_string@DU?$char_traits@D@std@@V?$allocator@D@2@@std@@V?$allocator@V?$basic_string@DU?$char_traits@D@std@@V?$allocator@D@2@@std@@@2@@std@@QAEAAV?$basic_string@DU?$char_traits@D@std@@V?$allocator@D@2@@1@I@Z 00416030 f i GameOverState.obj
 0001:000150e0       ??B?$fpos@U_Mbstatet@@@std@@QBE_JXZ 004160e0 f i GameOverState.obj
 0001:00015110       ??Bsentry@?$basic_istream@DU?$char_traits@D@std@@@std@@QBE_NXZ 00416110 f i GameOverState.obj
 0001:00015130       ??H?$_Vector_iterator@V?$_Vector_val@U?$_Simple_types@V?$basic_string@DU?$char_traits@D@std@@V?$allocator@D@2@@std@@@std@@@std@@@std@@QBE?AV01@H@Z 00416130 f i GameOverState.obj
 0001:00015180       ??R<lambda_15711c68e099a15a58f4d77303cb286d>@@QBE@QADQBDID@Z 00416180 f i GameOverState.obj
 0001:000151f0       ??R?$default_delete@V_Facet_base@std@@@std@@QBEXPAV_Facet_base@1@@Z 004161f0 f i GameOverState.obj
 0001:00015240       ??Y?$_Vector_const_iterator@V?$_Vector_val@U?$_Simple_types@V?$basic_string@DU?$char_traits@D@std@@V?$allocator@D@2@@std@@@std@@@std@@@std@@QAEAAV01@H@Z 00416240 f i GameOverState.obj
 0001:00015280       ??Y?$_Vector_iterator@V?$_Vector_val@U?$_Simple_types@V?$basic_string@DU?$char_traits@D@std@@V?$allocator@D@2@@std@@@std@@@std@@@std@@QAEAAV01@H@Z 00416280 f i GameOverState.obj
 0001:000152b0       ??Y?$basic_string@DU?$char_traits@D@std@@V?$allocator@D@2@@std@@QAEAAV01@D@Z 004162b0 f i GameOverState.obj
 0001:000152e0       ??_D?$basic_ifstream@DU?$char_traits@D@std@@@std@@QAEXXZ 004162e0 f i GameOverState.obj
 0001:00015310       ??_D?$basic_ofstream@DU?$char_traits@D@std@@@std@@QAEXXZ 00416310 f i GameOverState.obj
 0001:0001533a       ??_E?$basic_ifstream@DU?$char_traits@D@std@@@std@@$4PPPPPPPM@A@AEPAXI@Z 0041633a f i GameOverState.obj
 0001:00015344       ??_E?$basic_ofstream@DU?$char_traits@D@std@@@std@@$4PPPPPPPM@A@AEPAXI@Z 00416344 f i GameOverState.obj
 0001:00015350       ??_G?$basic_filebuf@DU?$char_traits@D@std@@@std@@UAEPAXI@Z 00416350 f i GameOverState.obj
 0001:00015350       ??_E?$basic_filebuf@DU?$char_traits@D@std@@@std@@UAEPAXI@Z 00416350 f i GameOverState.obj
 0001:00015390       ??_E?$basic_ifstream@DU?$char_traits@D@std@@@std@@UAEPAXI@Z 00416390 f i GameOverState.obj
 0001:00015390       ??_G?$basic_ifstream@DU?$char_traits@D@std@@@std@@UAEPAXI@Z 00416390 f i GameOverState.obj
 0001:000153e0       ??_E?$basic_ofstream@DU?$char_traits@D@std@@@std@@UAEPAXI@Z 004163e0 f i GameOverState.obj
 0001:000153e0       ??_G?$basic_ofstream@DU?$char_traits@D@std@@@std@@UAEPAXI@Z 004163e0 f i GameOverState.obj
 0001:00015430       ??_G?$basic_string@DU?$char_traits@D@std@@V?$allocator@D@2@@std@@QAEPAXI@Z 00416430 f i GameOverState.obj
 0001:00015470       ??_Gbad_cast@std@@UAEPAXI@Z 00416470 f i GameOverState.obj
 0001:00015470       ??_Ebad_cast@std@@UAEPAXI@Z 00416470 f i GameOverState.obj
 0001:000154b0       ?_Calculate_growth@?$vector@V?$basic_string@DU?$char_traits@D@std@@V?$allocator@D@2@@std@@V?$allocator@V?$basic_string@DU?$char_traits@D@std@@V?$allocator@D@2@@std@@@2@@std@@ABEII@Z 004164b0 f i GameOverState.obj
 0001:00015520       ?_Change_array@?$vector@V?$basic_string@DU?$char_traits@D@std@@V?$allocator@D@2@@std@@V?$allocator@V?$basic_string@DU?$char_traits@D@std@@V?$allocator@D@2@@std@@@2@@std@@AAEXQAV?$basic_string@DU?$char_traits@D@std@@V?$allocator@D@2@@2@II@Z 00416520 f i GameOverState.obj
 0001:000155f0       ?_Check_offset@?$_String_val@U?$_Simple_types@D@std@@@std@@QBEXI@Z 004165f0 f i GameOverState.obj
 0001:00015620       ?_Clamp_suffix_size@?$_String_val@U?$_Simple_types@D@std@@@std@@QBEIII@Z 00416620 f i GameOverState.obj
 0001:00015660       ?_Construct@?$basic_string@DU?$char_traits@D@std@@V?$allocator@D@2@@std@@QAEXQAD0Urandom_access_iterator_tag@2@@Z 00416660 f i GameOverState.obj
 0001:000156a0       ?_Destroy@?$vector@V?$basic_string@DU?$char_traits@D@std@@V?$allocator@D@2@@std@@V?$allocator@V?$basic_string@DU?$char_traits@D@std@@V?$allocator@D@2@@std@@@2@@std@@AAEXPAV?$basic_string@DU?$char_traits@D@std@@V?$allocator@D@2@@2@0@Z 004166a0 f i GameOverState.obj
 0001:000156d0       ?_Endwrite@?$basic_filebuf@DU?$char_traits@D@std@@@std@@IAE_NXZ 004166d0 f i GameOverState.obj
 0001:00015830       ?_Eos@?$basic_string@DU?$char_traits@D@std@@V?$allocator@D@2@@std@@AAEXI@Z 00416830 f i GameOverState.obj
 0001:00015880       ?_Equal@?$basic_string@DU?$char_traits@D@std@@V?$allocator@D@2@@std@@QBE_NQBD@Z 00416880 f i GameOverState.obj
 0001:000158d0       ?_Erase_noexcept@?$basic_string@DU?$char_traits@D@std@@V?$allocator@D@2@@std@@AAEAAV12@II@Z 004168d0 f i GameOverState.obj
 0001:00015960       ?_Get_first@?$_Compressed_pair@U?$default_delete@V_Facet_base@std@@@std@@PAV_Facet_base@2@$00@std@@QAEAAU?$default_delete@V_Facet_base@std@@@2@XZ 00416960 f i GameOverState.obj
 0001:00015980       ?_Get_first@?$_Compressed_pair@V?$allocator@V?$basic_string@DU?$char_traits@D@std@@V?$allocator@D@2@@std@@@std@@V?$_Vector_val@U?$_Simple_types@V?$basic_string@DU?$char_traits@D@std@@V?$allocator@D@2@@std@@@std@@@2@$00@std@@QAEAAV?$allocator@V?$basic_string@DU?$char_traits@D@std@@V?$allocator@D@2@@std@@@2@XZ 00416980 f i GameOverState.obj
 0001:000159a0       ?_Get_first@?$_Compressed_pair@V?$allocator@V?$basic_string@DU?$char_traits@D@std@@V?$allocator@D@2@@std@@@std@@V?$_Vector_val@U?$_Simple_types@V?$basic_string@DU?$char_traits@D@std@@V?$allocator@D@2@@std@@@std@@@2@$00@std@@QBEABV?$allocator@V?$basic_string@DU?$char_traits@D@std@@V?$allocator@D@2@@std@@@2@XZ 004169a0 f i GameOverState.obj
 0001:000159c0       ?_Getal@?$vector@V?$basic_string@DU?$char_traits@D@std@@V?$allocator@D@2@@std@@V?$allocator@V?$basic_string@DU?$char_traits@D@std@@V?$allocator@D@2@@std@@@2@@std@@AAEAAV?$allocator@V?$basic_string@DU?$char_traits@D@std@@V?$allocator@D@2@@std@@@2@XZ 004169c0 f i GameOverState.obj
 0001:000159e0       ?_Getal@?$vector@V?$basic_string@DU?$char_traits@D@std@@V?$allocator@D@2@@std@@V?$allocator@V?$basic_string@DU?$char_traits@D@std@@V?$allocator@D@2@@std@@@2@@std@@ABEABV?$allocator@V?$basic_string@DU?$char_traits@D@std@@V?$allocator@D@2@@std@@@2@XZ 004169e0 f i GameOverState.obj
 0001:00015a00       ?_Getfacet@locale@std@@QBEPBVfacet@12@I@Z 00416a00 f i GameOverState.obj
 0001:00015aa0       ?_Init@?$basic_filebuf@DU?$char_traits@D@std@@@std@@IAEXPAU_iobuf@@W4_Initfl@12@@Z 00416aa0 f i GameOverState.obj
 0001:00015ba0       ?_Initcvt@?$basic_filebuf@DU?$char_traits@D@std@@@std@@IAEXABV?$codecvt@DDU_Mbstatet@@@2@@Z 00416ba0 f i GameOverState.obj
 0001:00015c00       ?_Lock@?$basic_filebuf@DU?$char_traits@D@std@@@std@@UAEXXZ 00416c00 f i GameOverState.obj
 0001:00015c30       ?_Make_iterator@?$vector@V?$basic_string@DU?$char_traits@D@std@@V?$allocator@D@2@@std@@V?$allocator@V?$basic_string@DU?$char_traits@D@std@@V?$allocator@D@2@@std@@@2@@std@@AAE?AV?$_Vector_iterator@V?$_Vector_val@U?$_Simple_types@V?$basic_string@DU?$char_traits@D@std@@V?$allocator@D@2@@std@@@std@@@std@@@2@QAV?$basic_string@DU?$char_traits@D@std@@V?$allocator@D@2@@2@@Z 00416c30 f i GameOverState.obj
 0001:00015c70       ?_Move_assign@?$basic_string@DU?$char_traits@D@std@@V?$allocator@D@2@@std@@AAEXAAV12@U_Equal_allocators@2@@Z 00416c70 f i GameOverState.obj
 0001:00015cc0       ?_Orphan_range@?$vector@V?$basic_string@DU?$char_traits@D@std@@V?$allocator@D@2@@std@@V?$allocator@V?$basic_string@DU?$char_traits@D@std@@V?$allocator@D@2@@std@@@2@@std@@ABEXPAV?$basic_string@DU?$char_traits@D@std@@V?$allocator@D@2@@2@0@Z 00416cc0 f i GameOverState.obj
 0001:00015cf0       ?_Orphan_range_locked@?$vector@V?$basic_string@DU?$char_traits@D@std@@V?$allocator@D@2@@std@@V?$allocator@V?$basic_string@DU?$char_traits@D@std@@V?$allocator@D@2@@std@@@2@@std@@ABEXPAV?$basic_string@DU?$char_traits@D@std@@V?$allocator@D@2@@2@0@Z 00416cf0 f i GameOverState.obj
 0001:00015d80       ?_Orphan_range_unlocked@?$vector@V?$basic_string@DU?$char_traits@D@std@@V?$allocator@D@2@@std@@V?$allocator@V?$basic_string@DU?$char_traits@D@std@@V?$allocator@D@2@@std@@@2@@std@@ABEXPAV?$basic_string@DU?$char_traits@D@std@@V?$allocator@D@2@@2@0@Z 00416d80 f i GameOverState.obj
 0001:00015e10       ?_Release@?$_Uninitialized_backout_al@V?$allocator@V?$basic_string@DU?$char_traits@D@std@@V?$allocator@D@2@@std@@@std@@@std@@QAEPAV?$basic_string@DU?$char_traits@D@std@@V?$allocator@D@2@@2@XZ 00416e10 f i GameOverState.obj
 0001:00015e40       ?_Reset_back@?$basic_filebuf@DU?$char_traits@D@std@@@std@@AAEXXZ 00416e40 f i GameOverState.obj
 0001:00015e90       ?_Set_back@?$basic_filebuf@DU?$char_traits@D@std@@@std@@AAEXXZ 00416e90 f i GameOverState.obj
 0001:00015f00       ?_Throw_bad_cast@std@@YAXXZ 00416f00 f i GameOverState.obj
 0001:00015f30       ?_Tidy@?$vector@V?$basic_string@DU?$char_traits@D@std@@V?$allocator@D@2@@std@@V?$allocator@V?$basic_string@DU?$char_traits@D@std@@V?$allocator@D@2@@std@@@2@@std@@AAEXXZ 00416f30 f i GameOverState.obj
 0001:00016030       ?_Umove@?$vector@V?$basic_string@DU?$char_traits@D@std@@V?$allocator@D@2@@std@@V?$allocator@V?$basic_string@DU?$char_traits@D@std@@V?$allocator@D@2@@std@@@2@@std@@AAEPAV?$basic_string@DU?$char_traits@D@std@@V?$allocator@D@2@@2@PAV32@00@Z 00417030 f i GameOverState.obj
 0001:00016070       ?_Umove_if_noexcept1@?$vector@V?$basic_string@DU?$char_traits@D@std@@V?$allocator@D@2@@std@@V?$allocator@V?$basic_string@DU?$char_traits@D@std@@V?$allocator@D@2@@std@@@2@@std@@AAEXPAV?$basic_string@DU?$char_traits@D@std@@V?$allocator@D@2@@2@00U?$integral_constant@_N$00@2@@Z 00417070 f i GameOverState.obj
 0001:000160b0       ?_Umove_if_noexcept@?$vector@V?$basic_string@DU?$char_traits@D@std@@V?$allocator@D@2@@std@@V?$allocator@V?$basic_string@DU?$char_traits@D@std@@V?$allocator@D@2@@std@@@2@@std@@AAEXPAV?$basic_string@DU?$char_traits@D@std@@V?$allocator@D@2@@2@00@Z 004170b0 f i GameOverState.obj
 0001:000160f0       ?_Unchecked_begin@?$vector@V?$basic_string@DU?$char_traits@D@std@@V?$allocator@D@2@@std@@V?$allocator@V?$basic_string@DU?$char_traits@D@std@@V?$allocator@D@2@@std@@@2@@std@@QAEPAV?$basic_string@DU?$char_traits@D@std@@V?$allocator@D@2@@2@XZ 004170f0 f i GameOverState.obj
 0001:00016110       ?_Unchecked_end@?$vector@V?$basic_string@DU?$char_traits@D@std@@V?$allocator@D@2@@std@@V?$allocator@V?$basic_string@DU?$char_traits@D@std@@V?$allocator@D@2@@std@@@2@@std@@QAEPAV?$basic_string@DU?$char_traits@D@std@@V?$allocator@D@2@@2@XZ 00417110 f i GameOverState.obj
 0001:00016130       ?_Unlock@?$basic_filebuf@DU?$char_traits@D@std@@@std@@UAEXXZ 00417130 f i GameOverState.obj
 0001:00016160       ?_Verify_offset@?$_Vector_const_iterator@V?$_Vector_val@U?$_Simple_types@V?$basic_string@DU?$char_traits@D@std@@V?$allocator@D@2@@std@@@std@@@std@@@std@@QBEXH@Z 00417160 f i GameOverState.obj
 0001:00016300       ?_Xlength@?$vector@V?$basic_string@DU?$char_traits@D@std@@V?$allocator@D@2@@std@@V?$allocator@V?$basic_string@DU?$char_traits@D@std@@V?$allocator@D@2@@std@@@2@@std@@CAXXZ 00417300 f i GameOverState.obj
 0001:00016320       ?_Xran@?$_String_val@U?$_Simple_types@D@std@@@std@@SAXXZ 00417320 f i GameOverState.obj
 0001:00016340       ?allocate@?$allocator@V?$basic_string@DU?$char_traits@D@std@@V?$allocator@D@2@@std@@@std@@QAEPAV?$basic_string@DU?$char_traits@D@std@@V?$allocator@D@2@@2@I@Z 00417340 f i GameOverState.obj
 0001:00016370       ?begin@?$vector@V?$basic_string@DU?$char_traits@D@std@@V?$allocator@D@2@@std@@V?$allocator@V?$basic_string@DU?$char_traits@D@std@@V?$allocator@D@2@@std@@@2@@std@@QAE?AV?$_Vector_iterator@V?$_Vector_val@U?$_Simple_types@V?$basic_string@DU?$char_traits@D@std@@V?$allocator@D@2@@std@@@std@@@std@@@2@XZ 00417370 f i GameOverState.obj
 0001:000163c0       ?capacity@?$vector@V?$basic_string@DU?$char_traits@D@std@@V?$allocator@D@2@@std@@V?$allocator@V?$basic_string@DU?$char_traits@D@std@@V?$allocator@D@2@@std@@@2@@std@@QBEIXZ 004173c0 f i GameOverState.obj
 0001:000163f0       ?clear@?$basic_string@DU?$char_traits@D@std@@V?$allocator@D@2@@std@@QAEXXZ 004173f0 f i GameOverState.obj
 0001:00016450       ?close@?$basic_filebuf@DU?$char_traits@D@std@@@std@@QAEPAV12@XZ 00417450 f i GameOverState.obj
 0001:000164d0       ?close@?$basic_ifstream@DU?$char_traits@D@std@@@std@@QAEXXZ 004174d0 f i GameOverState.obj
 0001:00016510       ?close@?$basic_ofstream@DU?$char_traits@D@std@@@std@@QAEXXZ 00417510 f i GameOverState.obj
 0001:00016550       ?copyAllBackgroundBuffer@BaseEngine@@UAEXXZ 00417550 f i GameOverState.obj
 0001:00016580       ?deallocate@?$allocator@V?$basic_string@DU?$char_traits@D@std@@V?$allocator@D@2@@std@@@std@@QAEXQAV?$basic_string@DU?$char_traits@D@std@@V?$allocator@D@2@@2@I@Z 00417580 f i GameOverState.obj
 0001:000165b0       ?drawBackgroundRectangle@BaseEngine@@QAEXHHHHI@Z 004175b0 f i GameOverState.obj
 0001:000165f0       ?drawBackgroundString@BaseEngine@@QAEXHHPBDIPAVFont@@@Z 004175f0 f i GameOverState.obj
 0001:00016630       ?erase@?$basic_string@DU?$char_traits@D@std@@V?$allocator@D@2@@std@@QAEAAV12@I@Z 00417630 f i GameOverState.obj
 0001:00016670       ?erase@?$basic_string@DU?$char_traits@D@std@@V?$allocator@D@2@@std@@QAEAAV12@II@Z 00417670 f i GameOverState.obj
 0001:000166b0       ?front@?$basic_string@DU?$char_traits@D@std@@V?$allocator@D@2@@std@@QAEAADXZ 004176b0 f i GameOverState.obj
 0001:00016750       ?imbue@?$basic_filebuf@DU?$char_traits@D@std@@@std@@MAEXABVlocale@2@@Z 00417750 f i GameOverState.obj
 0001:00016780       ?insert@?$vector@V?$basic_string@DU?$char_traits@D@std@@V?$allocator@D@2@@std@@V?$allocator@V?$basic_string@DU?$char_traits@D@std@@V?$allocator@D@2@@std@@@2@@std@@QAE?AV?$_Vector_iterator@V?$_Vector_val@U?$_Simple_types@V?$basic_string@DU?$char_traits@D@std@@V?$allocator@D@2@@std@@@std@@@std@@@2@V?$_Vector_const_iterator@V?$_Vector_val@U?$_Simple_types@V?$basic_string@DU?$char_traits@D@std@@V?$allocator@D@2@@std@@@std@@@std@@@2@$$QAV?$basic_string@DU?$char_traits@D@std@@V?$allocator@D@2@@2@@Z 00417780 f i GameOverState.obj
 0001:00016840       ?insert@?$vector@V?$basic_string@DU?$char_traits@D@std@@V?$allocator@D@2@@std@@V?$allocator@V?$basic_string@DU?$char_traits@D@std@@V?$allocator@D@2@@std@@@2@@std@@QAE?AV?$_Vector_iterator@V?$_Vector_val@U?$_Simple_types@V?$basic_string@DU?$char_traits@D@std@@V?$allocator@D@2@@std@@@std@@@std@@@2@V?$_Vector_const_iterator@V?$_Vector_val@U?$_Simple_types@V?$basic_string@DU?$char_traits@D@std@@V?$allocator@D@2@@std@@@std@@@std@@@2@ABV?$basic_string@DU?$char_traits@D@std@@V?$allocator@D@2@@2@@Z 00417840 f i GameOverState.obj
 0001:000168f0       ?max_size@?$_Default_allocator_traits@V?$allocator@V?$basic_string@DU?$char_traits@D@std@@V?$allocator@D@2@@std@@@std@@@std@@SAIABV?$allocator@V?$basic_string@DU?$char_traits@D@std@@V?$allocator@D@2@@std@@@2@@Z 004178f0 f i GameOverState.obj
 0001:00016900       ?max_size@?$vector@V?$basic_string@DU?$char_traits@D@std@@V?$allocator@D@2@@std@@V?$allocator@V?$basic_string@DU?$char_traits@D@std@@V?$allocator@D@2@@std@@@2@@std@@QBEIXZ 00417900 f i GameOverState.obj
 0001:00016950       ?not_eof@?$_Narrow_char_traits@DH@std@@SAHABH@Z 00417950 f i GameOverState.obj
 0001:000169b0       ?open@?$basic_filebuf@DU?$char_traits@D@std@@@std@@QAEPAV12@PBDHH@Z 004179b0 f i GameOverState.obj
 0001:00016aa0       ?overflow@?$basic_filebuf@DU?$char_traits@D@std@@@std@@MAEHH@Z 00417aa0 f i GameOverState.obj
 0001:00016cf0       ?pbackfail@?$basic_filebuf@DU?$char_traits@D@std@@@std@@MAEHH@Z 00417cf0 f i GameOverState.obj
 0001:00016ea0       ?pop_back@?$basic_string@DU?$char_traits@D@std@@V?$allocator@D@2@@std@@QAEXXZ 00417ea0 f i GameOverState.obj
 0001:00016f80       ?pop_back@?$vector@V?$basic_string@DU?$char_traits@D@std@@V?$allocator@D@2@@std@@V?$allocator@V?$basic_string@DU?$char_traits@D@std@@V?$allocator@D@2@@std@@@2@@std@@QAEXXZ 00417f80 f i GameOverState.obj
 0001:000170b0       ?push_back@?$basic_string@DU?$char_traits@D@std@@V?$allocator@D@2@@std@@QAEXD@Z 004180b0 f i GameOverState.obj
 0001:00017160       ?readLine@FileReader@@QAEXAAV?$basic_string@DU?$char_traits@D@std@@V?$allocator@D@2@@std@@@Z 00418160 f i GameOverState.obj
 0001:00017190       ?readWholeFile@FileReader@@QAE?AV?$vector@V?$basic_string@DU?$char_traits@D@std@@V?$allocator@D@2@@std@@V?$allocator@V?$basic_string@DU?$char_traits@D@std@@V?$allocator@D@2@@std@@@2@@std@@XZ 00418190 f i GameOverState.obj
 0001:000172a0       ?release@?$unique_ptr@V_Facet_base@std@@U?$default_delete@V_Facet_base@std@@@2@@std@@QAEPAV_Facet_base@2@XZ 004182a0 f i GameOverState.obj
 0001:000172d0       ?seekoff@?$basic_filebuf@DU?$char_traits@D@std@@@std@@MAE?AV?$fpos@U_Mbstatet@@@2@_JHH@Z 004182d0 f i GameOverState.obj
 0001:000173e0       ?seekpos@?$basic_filebuf@DU?$char_traits@D@std@@@std@@MAE?AV?$fpos@U_Mbstatet@@@2@V32@H@Z 004183e0 f i GameOverState.obj
 0001:000174b0       ?setbuf@?$basic_filebuf@DU?$char_traits@D@std@@@std@@MAEPAV?$basic_streambuf@DU?$char_traits@D@std@@@2@PAD_J@Z 004184b0 f i GameOverState.obj
 0001:00017550       ?size@?$vector@V?$basic_string@DU?$char_traits@D@std@@V?$allocator@D@2@@std@@V?$allocator@V?$basic_string@DU?$char_traits@D@std@@V?$allocator@D@2@@std@@@2@@std@@QBEIXZ 00418550 f i GameOverState.obj
 0001:00017580       ?state@?$fpos@U_Mbstatet@@@std@@QBE?AU_Mbstatet@@XZ 00418580 f i GameOverState.obj
 0001:000175b0       ?stoi@std@@YAHABV?$basic_string@DU?$char_traits@D@std@@V?$allocator@D@2@@1@PAIH@Z 004185b0 f i GameOverState.obj
 0001:00017660       ?sync@?$basic_filebuf@DU?$char_traits@D@std@@@std@@MAEHXZ 00418660 f i GameOverState.obj
 0001:000176e0       ?to_char_type@?$_Narrow_char_traits@DH@std@@SADABH@Z 004186e0 f i GameOverState.obj
 0001:000176f0       ?to_int_type@?$_Narrow_char_traits@DH@std@@SAHABD@Z 004186f0 f i GameOverState.obj
 0001:00017700       ?to_string@std@@YA?AV?$basic_string@DU?$char_traits@D@std@@V?$allocator@D@2@@1@H@Z 00418700 f i GameOverState.obj
 0001:00017740       ?uflow@?$basic_filebuf@DU?$char_traits@D@std@@@std@@MAEHXZ 00418740 f i GameOverState.obj
 0001:00017a50       ?underflow@?$basic_filebuf@DU?$char_traits@D@std@@@std@@MAEHXZ 00418a50 f i GameOverState.obj
 0001:00017b10       ?virtMainLoopDoBeforeUpdate@BaseEngine@@UAEXXZ 00418b10 f i GameOverState.obj
 0001:00017b20       ?xsgetn@?$basic_filebuf@DU?$char_traits@D@std@@@std@@MAE_JPAD_J@Z 00418b20 f i GameOverState.obj
 0001:00017ce0       ?xsputn@?$basic_filebuf@DU?$char_traits@D@std@@@std@@MAE_JPBD_J@Z 00418ce0 f i GameOverState.obj
 0001:00017e40       __vsnprintf_l              00418e40 f i GameOverState.obj
 0001:00017eb0       __vsprintf_l               00418eb0 f i GameOverState.obj
 0001:00017ee0       _snprintf                  00418ee0 f i GameOverState.obj
 0001:00017f30       _sprintf                   00418f30 f i GameOverState.obj
 0001:00017f70       _vsnprintf                 00418f70 f i GameOverState.obj
 0001:00017fe0       ?virtInitialise@GameState@@UAEHPAVScyyz12Engine2@@@Z 00418fe0 f   GameState.obj
 0001:00018000       ?virtSetupBackgroundBuffer@GameState@@UAEXPAVScyyz12Engine2@@@Z 00419000 f   GameState.obj
 0001:000183a0       ?virtDrawStringsOnTop@GameState@@UAEXPAVScyyz12Engine2@@@Z 004193a0 f   GameState.obj
 0001:00018480       ?virtInitialiseObjects@GameState@@UAEHPAVScyyz12Engine2@@@Z 00419480 f   GameState.obj
 0001:00018490       ?virtMouseDown@GameState@@UAEXPAVScyyz12Engine2@@HHH@Z 00419490 f   GameState.obj
 0001:00018590       ?virtMouseWheel@GameState@@UAEXPAVScyyz12Engine2@@HHHH@Z 00419590 f   GameState.obj
 0001:00018650       ?virtMainLoopDoBeforeUpdate@GameState@@UAEXPAVScyyz12Engine2@@@Z 00419650 f   GameState.obj
 0001:00018670       ?copyAllBackgroundBuffer@GameState@@UAEXPAVScyyz12Engine2@@@Z 00419670 f   GameState.obj
 0001:00018690       ?virtKeyDown@GameState@@UAEXPAVScyyz12Engine2@@H@Z 00419690 f   GameState.obj
 0001:00018770       ?virtCreateSurfaces@GameState@@UAEXPAVScyyz12Engine2@@@Z 00419770 f   GameState.obj
 0001:00018970       ??$?0$$V@?$_Compressed_pair@V?$allocator@H@std@@V?$_Vector_val@U?$_Simple_types@H@std@@@2@$00@std@@QAE@U_Zero_then_variadic_args_t@1@@Z 00419970 f i GameState.obj
 0001:000189a0       ??$?0ABV?$allocator@I@std@@$$V@?$_Compressed_pair@V?$allocator@I@std@@V?$_Vector_val@U?$_Simple_types@I@std@@@2@$00@std@@QAE@U_One_then_variadic_args_t@1@ABV?$allocator@I@1@@Z 004199a0 f i GameState.obj
 0001:000189d0       ??$?0H@?$allocator@U_Container_proxy@std@@@std@@QAE@ABV?$allocator@H@1@@Z 004199d0 f i GameState.obj
 0001:000189f0       ??$?0I@?$allocator@U_Container_proxy@std@@@std@@QAE@ABV?$allocator@I@1@@Z 004199f0 f i GameState.obj
 0001:00018a10       ??$?0V?$allocator@I@std@@$$V@?$_Compressed_pair@V?$allocator@I@std@@V?$_Vector_val@U?$_Simple_types@I@std@@@2@$00@std@@QAE@U_One_then_variadic_args_t@1@$$QAV?$allocator@I@1@@Z 00419a10 f i GameState.obj
 0001:00018a40       ??$_Copy_memmove@PAHPAH@std@@YAPAHPAH00@Z 00419a40 f i GameState.obj
 0001:00018ad0       ??$_Copy_memmove@PAIPAI@std@@YAPAIPAI00@Z 00419ad0 f i GameState.obj
 0001:00018b60       ??$_Copy_memmove@PBIPAI@std@@YAPAIPBI0PAI@Z 00419b60 f i GameState.obj
 0001:00018bf0       ??$_Destroy_range@V?$allocator@H@std@@@std@@YAXPAHQAHAAV?$allocator@H@0@@Z 00419bf0 f i GameState.obj
 0001:00018c00       ??$_Destroy_range@V?$allocator@I@std@@@std@@YAXPAIQAIAAV?$allocator@I@0@@Z 00419c00 f i GameState.obj
 0001:00018c10       ??$_Emplace_back@AAI@?$_Uninitialized_backout_al@V?$allocator@I@std@@@std@@QAEXAAI@Z 00419c10 f i GameState.obj
 0001:00018c70       ??$_Emplace_back@ABI@?$_Uninitialized_backout_al@V?$allocator@I@std@@@std@@QAEXABI@Z 00419c70 f i GameState.obj
 0001:00018cd0       ??$_Emplace_back@H@?$_Uninitialized_backout_al@V?$allocator@H@std@@@std@@QAEX$$QAH@Z 00419cd0 f i GameState.obj
 0001:00018d30       ??$_Emplace_back_with_unused_capacity@AAH@?$vector@HV?$allocator@H@std@@@std@@AAE?A_TAAH@Z 00419d30 f i GameState.obj
 0001:00018dd0       ??$_Emplace_back_with_unused_capacity@H@?$vector@HV?$allocator@H@std@@@std@@AAE?A_T$$QAH@Z 00419dd0 f i GameState.obj
 0001:00018e70       ??$_Emplace_reallocate@AAH@?$vector@HV?$allocator@H@std@@@std@@QAEPAHQAHAAH@Z 00419e70 f i GameState.obj
 0001:000190c0       ??$_Emplace_reallocate@H@?$vector@HV?$allocator@H@std@@@std@@QAEPAHQAH$$QAH@Z 0041a0c0 f i GameState.obj
 0001:00019310       ??$_Get_size_of_n@$03@std@@YAII@Z 0041a310 f i GameState.obj
 0001:00019350       ??$_Get_unwrapped@ABQAH@std@@YA?A_TABQAH@Z 0041a350 f i GameState.obj
 0001:00019360       ??$_Get_unwrapped@ABQAI@std@@YA?A_TABQAI@Z 0041a360 f i GameState.obj
 0001:00019370       ??$_Get_unwrapped@ABQBI@std@@YA?A_TABQBI@Z 0041a370 f i GameState.obj
 0001:00019380       ??$_Range_construct_or_tidy@PBI@?$vector@IV?$allocator@I@std@@@std@@AAEXPBI0Uforward_iterator_tag@1@@Z 0041a380 f i GameState.obj
 0001:00019460       ??$_To_address@PAH@std@@YA?A_PABQAH@Z 0041a460 f i GameState.obj
 0001:00019470       ??$_To_address@PAI@std@@YA?A_PABQAI@Z 0041a470 f i GameState.obj
 0001:00019480       ??$_To_address@PBI@std@@YA?A_PABQBI@Z 0041a480 f i GameState.obj
 0001:00019490       ??$_Ucopy@PAI@?$vector@IV?$allocator@I@std@@@std@@AAEPAIPAI00@Z 0041a490 f i GameState.obj
 0001:000194d0       ??$_Ucopy@PBI@?$vector@IV?$allocator@I@std@@@std@@AAEPAIPBI0PAI@Z 0041a4d0 f i GameState.obj
 0001:00019510       ??$_Unfancy@H@std@@YAPAHPAH@Z 0041a510 f i GameState.obj
 0001:00019520       ??$_Unfancy@I@std@@YAPAIPAI@Z 0041a520 f i GameState.obj
 0001:00019530       ??$_Uninitialized_copy@PAIV?$allocator@I@std@@@std@@YAPAIQAI0PAIAAV?$allocator@I@0@@Z 0041a530 f i GameState.obj
 0001:00019650       ??$_Uninitialized_copy@PBIV?$allocator@I@std@@@std@@YAPAIQBI0PAIAAV?$allocator@I@0@@Z 0041a650 f i GameState.obj
 0001:00019770       ??$_Uninitialized_move@PAHV?$allocator@H@std@@@std@@YAPAHQAH0PAHAAV?$allocator@H@0@@Z 0041a770 f i GameState.obj
 0001:00019890       ??$_Voidify_iter@PAH@std@@YAPAXPAH@Z 0041a890 f i GameState.obj
 0001:000198a0       ??$_Voidify_iter@PAI@std@@YAPAXPAI@Z 0041a8a0 f i GameState.obj
 0001:000198b0       ??$construct@HAAH@?$_Default_allocator_traits@V?$allocator@H@std@@@std@@SAXAAV?$allocator@H@1@QAHAAH@Z 0041a8b0 f i GameState.obj
 0001:00019900       ??$construct@HH@?$_Default_allocator_traits@V?$allocator@H@std@@@std@@SAXAAV?$allocator@H@1@QAH$$QAH@Z 0041a900 f i GameState.obj
 0001:00019950       ??$construct@IAAI@?$_Default_allocator_traits@V?$allocator@I@std@@@std@@SAXAAV?$allocator@I@1@QAIAAI@Z 0041a950 f i GameState.obj
 0001:000199a0       ??$construct@IABI@?$_Default_allocator_traits@V?$allocator@I@std@@@std@@SAXAAV?$allocator@I@1@QAIABI@Z 0041a9a0 f i GameState.obj
 0001:000199f0       ??$distance@PBI@std@@YAHPBI0@Z 0041a9f0 f i GameState.obj
 0001:00019a10       ??$emplace_back@AAH@?$vector@HV?$allocator@H@std@@@std@@QAE?A_TAAH@Z 0041aa10 f i GameState.obj
 0001:00019a90       ??$emplace_back@H@?$vector@HV?$allocator@H@std@@@std@@QAE?A_T$$QAH@Z 0041aa90 f i GameState.obj
 0001:00019b10       ??$forward@AAH@std@@YAAAHAAH@Z 0041ab10 f i GameState.obj
 0001:00019b20       ??$forward@AAI@std@@YAAAIAAI@Z 0041ab20 f i GameState.obj
 0001:00019b30       ??$forward@ABI@std@@YAABIABI@Z 0041ab30 f i GameState.obj
 0001:00019b40       ??$forward@ABV?$allocator@I@std@@@std@@YAABV?$allocator@I@0@ABV10@@Z 0041ab40 f i GameState.obj
 0001:00019b50       ??$forward@H@std@@YA$$QAHAAH@Z 0041ab50 f i GameState.obj
 0001:00019b60       ??$forward@V?$allocator@I@std@@@std@@YA$$QAV?$allocator@I@0@AAV10@@Z 0041ab60 f i GameState.obj
 0001:00019b70       ??$move@AAH@std@@YA$$QAHAAH@Z 0041ab70 f i GameState.obj
 0001:00019b80       ??$size@V?$vector@HV?$allocator@H@std@@@std@@@std@@YAIABV?$vector@HV?$allocator@H@std@@@0@@Z 0041ab80 f i GameState.obj
 0001:00019b90       ??$size@V?$vector@IV?$allocator@I@std@@@std@@@std@@YAIABV?$vector@IV?$allocator@I@std@@@0@@Z 0041ab90 f i GameState.obj
 0001:00019ba0       ??0?$_Uninitialized_backout_al@V?$allocator@H@std@@@std@@QAE@PAHAAV?$allocator@H@1@@Z 0041aba0 f i GameState.obj
 0001:00019be0       ??0?$_Uninitialized_backout_al@V?$allocator@I@std@@@std@@QAE@PAIAAV?$allocator@I@1@@Z 0041abe0 f i GameState.obj
 0001:00019c20       ??0?$_Vector_val@U?$_Simple_types@H@std@@@std@@QAE@XZ 0041ac20 f i GameState.obj
 0001:00019c70       ??0?$_Vector_val@U?$_Simple_types@I@std@@@std@@QAE@XZ 0041ac70 f i GameState.obj
 0001:00019cc0       ??0?$allocator@H@std@@QAE@XZ 0041acc0 f i GameState.obj
 0001:00019ce0       ??0?$allocator@I@std@@QAE@XZ 0041ace0 f i GameState.obj
 0001:00019d00       ??0?$initializer_list@I@std@@QAE@PBI0@Z 0041ad00 f i GameState.obj
 0001:00019d30       ??0?$vector@HV?$allocator@H@std@@@std@@QAE@XZ 0041ad30 f i GameState.obj
 0001:00019db0       ??0?$vector@IV?$allocator@I@std@@@std@@QAE@ABV01@@Z 0041adb0 f i GameState.obj
 0001:00019f10       ??0?$vector@IV?$allocator@I@std@@@std@@QAE@V?$initializer_list@I@1@ABV?$allocator@I@1@@Z 0041af10 f i GameState.obj
 0001:00019ff0       ??0FilterPoints@@QAE@XZ    0041aff0 f i GameState.obj
 0001:0001a010       ??0Scyyz12FilterPointsScaling@@QAE@HPAVFilterPoints@@@Z 0041b010 f i GameState.obj
 0001:0001a070       ??0Scyyz12FilterPointsTranslation@@QAE@HHPAVFilterPoints@@@Z 0041b070 f i GameState.obj
 0001:0001a0c0       ??0SelectionArea@@QAE@V?$vector@IV?$allocator@I@std@@@std@@I_N11111HH@Z 0041b0c0 f i GameState.obj
 0001:0001a490       ??0TileManager@@QAE@HHHH@Z 0041b490 f i GameState.obj
 0001:0001a520       ??1?$_Tidy_guard@V?$vector@IV?$allocator@I@std@@@std@@@std@@QAE@XZ 0041b520 f i GameState.obj
 0001:0001a550       ??1?$_Uninitialized_backout_al@V?$allocator@H@std@@@std@@QAE@XZ 0041b550 f i GameState.obj
 0001:0001a580       ??1?$_Uninitialized_backout_al@V?$allocator@I@std@@@std@@QAE@XZ 0041b580 f i GameState.obj
 0001:0001a5b0       ??1?$vector@HV?$allocator@H@std@@@std@@QAE@XZ 0041b5b0 f i GameState.obj
 0001:0001a620       ??1?$vector@IV?$allocator@I@std@@@std@@QAE@XZ 0041b620 f i GameState.obj
 0001:0001a690       ??1SelectionArea@@UAE@XZ   0041b690 f i GameState.obj
 0001:0001a6d0       ??1TileManager@@UAE@XZ     0041b6d0 f i GameState.obj
 0001:0001a720       ??4FilterPoints@@QAEAAV0@$$QAV0@@Z 0041b720 f i GameState.obj
 0001:0001a740       ??4Scyyz12FilterPointsScaling@@QAEAAV0@$$QAV0@@Z 0041b740 f i GameState.obj
 0001:0001a790       ??4Scyyz12FilterPointsTranslation@@QAEAAV0@$$QAV0@@Z 0041b790 f i GameState.obj
 0001:0001a7e0       ??_ESelectionArea@@UAEPAXI@Z 0041b7e0 f i GameState.obj
 0001:0001a7e0       ??_GSelectionArea@@UAEPAXI@Z 0041b7e0 f i GameState.obj
 0001:0001a820       ??_GTileManager@@UAEPAXI@Z 0041b820 f i GameState.obj
 0001:0001a820       ??_ETileManager@@UAEPAXI@Z 0041b820 f i GameState.obj
 0001:0001a860       ?_Buy_nonzero@?$vector@IV?$allocator@I@std@@@std@@AAEXI@Z 0041b860 f i GameState.obj
 0001:0001a8a0       ?_Buy_raw@?$vector@IV?$allocator@I@std@@@std@@AAEXI@Z 0041b8a0 f i GameState.obj
 0001:0001a920       ?_Calculate_growth@?$vector@HV?$allocator@H@std@@@std@@ABEII@Z 0041b920 f i GameState.obj
 0001:0001a990       ?_Change_array@?$vector@HV?$allocator@H@std@@@std@@AAEXQAHII@Z 0041b990 f i GameState.obj
 0001:0001aa60       ?_Destroy@?$vector@HV?$allocator@H@std@@@std@@AAEXPAH0@Z 0041ba60 f i GameState.obj
 0001:0001aa90       ?_Destroy@?$vector@IV?$allocator@I@std@@@std@@AAEXPAI0@Z 0041ba90 f i GameState.obj
 0001:0001aac0       ?_Get_first@?$_Compressed_pair@V?$allocator@H@std@@V?$_Vector_val@U?$_Simple_types@H@std@@@2@$00@std@@QAEAAV?$allocator@H@2@XZ 0041bac0 f i GameState.obj
 0001:0001aae0       ?_Get_first@?$_Compressed_pair@V?$allocator@H@std@@V?$_Vector_val@U?$_Simple_types@H@std@@@2@$00@std@@QBEABV?$allocator@H@2@XZ 0041bae0 f i GameState.obj
 0001:0001ab00       ?_Get_first@?$_Compressed_pair@V?$allocator@I@std@@V?$_Vector_val@U?$_Simple_types@I@std@@@2@$00@std@@QAEAAV?$allocator@I@2@XZ 0041bb00 f i GameState.obj
 0001:0001ab20       ?_Get_first@?$_Compressed_pair@V?$allocator@I@std@@V?$_Vector_val@U?$_Simple_types@I@std@@@2@$00@std@@QBEABV?$allocator@I@2@XZ 0041bb20 f i GameState.obj
 0001:0001ab40       ?_Getal@?$vector@HV?$allocator@H@std@@@std@@AAEAAV?$allocator@H@2@XZ 0041bb40 f i GameState.obj
 0001:0001ab60       ?_Getal@?$vector@HV?$allocator@H@std@@@std@@ABEABV?$allocator@H@2@XZ 0041bb60 f i GameState.obj
 0001:0001ab80       ?_Getal@?$vector@IV?$allocator@I@std@@@std@@AAEAAV?$allocator@I@2@XZ 0041bb80 f i GameState.obj
 0001:0001aba0       ?_Getal@?$vector@IV?$allocator@I@std@@@std@@ABEABV?$allocator@I@2@XZ 0041bba0 f i GameState.obj
 0001:0001abc0       ?_Orphan_range@?$vector@HV?$allocator@H@std@@@std@@ABEXPAH0@Z 0041bbc0 f i GameState.obj
 0001:0001abf0       ?_Orphan_range_locked@?$vector@HV?$allocator@H@std@@@std@@ABEXPAH0@Z 0041bbf0 f i GameState.obj
 0001:0001ac80       ?_Orphan_range_unlocked@?$vector@HV?$allocator@H@std@@@std@@ABEXPAH0@Z 0041bc80 f i GameState.obj
 0001:0001ad10       ?_Release@?$_Uninitialized_backout_al@V?$allocator@H@std@@@std@@QAEPAHXZ 0041bd10 f i GameState.obj
 0001:0001ad40       ?_Release@?$_Uninitialized_backout_al@V?$allocator@I@std@@@std@@QAEPAIXZ 0041bd40 f i GameState.obj
 0001:0001ad70       ?_Tidy@?$vector@HV?$allocator@H@std@@@std@@AAEXXZ 0041bd70 f i GameState.obj
 0001:0001ae60       ?_Tidy@?$vector@IV?$allocator@I@std@@@std@@AAEXXZ 0041be60 f i GameState.obj
 0001:0001af50       ?_Umove@?$vector@HV?$allocator@H@std@@@std@@AAEPAHPAH00@Z 0041bf50 f i GameState.obj
 0001:0001af90       ?_Umove_if_noexcept1@?$vector@HV?$allocator@H@std@@@std@@AAEXPAH00U?$integral_constant@_N$00@2@@Z 0041bf90 f i GameState.obj
 0001:0001afd0       ?_Umove_if_noexcept@?$vector@HV?$allocator@H@std@@@std@@AAEXPAH00@Z 0041bfd0 f i GameState.obj
 0001:0001b010       ?_Xlength@?$vector@HV?$allocator@H@std@@@std@@CAXXZ 0041c010 f i GameState.obj
 0001:0001b030       ?_Xlength@?$vector@IV?$allocator@I@std@@@std@@CAXXZ 0041c030 f i GameState.obj
 0001:0001b050       ?allocate@?$allocator@H@std@@QAEPAHI@Z 0041c050 f i GameState.obj
 0001:0001b080       ?allocate@?$allocator@I@std@@QAEPAII@Z 0041c080 f i GameState.obj
 0001:0001b0b0       ?begin@?$initializer_list@I@std@@QBEPBIXZ 0041c0b0 f i GameState.obj
 0001:0001b0d0       ?capacity@?$vector@HV?$allocator@H@std@@@std@@QBEIXZ 0041c0d0 f i GameState.obj
 0001:0001b100       ?changeOffset@Scyyz12FilterPointsTranslation@@QAEXHH@Z 0041c100 f i GameState.obj
 0001:0001b140       ?checkWritable@DrawingSurface@@QAEXXZ 0041c140 f i GameState.obj
 0001:0001b190       ?compress@Scyyz12FilterPointsScaling@@QAEXXZ 0041c190 f i GameState.obj
 0001:0001b1e0       ?convertClickedToVirtualPixelXPosition@BaseEngine@@QAEHH@Z 0041c1e0 f i GameState.obj
 0001:0001b210       ?convertClickedToVirtualPixelYPosition@BaseEngine@@QAEHH@Z 0041c210 f i GameState.obj
 0001:0001b240       ?convertRealToVirtualXPosition@DrawingSurface@@QAEHH@Z 0041c240 f i GameState.obj
 0001:0001b280       ?convertRealToVirtualYPosition@DrawingSurface@@QAEHH@Z 0041c280 f i GameState.obj
 0001:0001b2c0       ?convertVirtualPixelToClickedXPosition@BaseEngine@@QAEHH@Z 0041c2c0 f i GameState.obj
 0001:0001b2f0       ?convertVirtualPixelToClickedYPosition@BaseEngine@@QAEHH@Z 0041c2f0 f i GameState.obj
 0001:0001b320       ?convertVirtualToRealXPosition@DrawingSurface@@QAEHH@Z 0041c320 f i GameState.obj
 0001:0001b360       ?convertVirtualToRealYPosition@DrawingSurface@@QAEHH@Z 0041c360 f i GameState.obj
 0001:0001b3a0       ?deallocate@?$allocator@H@std@@QAEXQAHI@Z 0041c3a0 f i GameState.obj
 0001:0001b3d0       ?deallocate@?$allocator@I@std@@QAEXQAII@Z 0041c3d0 f i GameState.obj
 0001:0001b400       ?drawBackgroundThickLine@BaseEngine@@QAEXHHHHIH@Z 0041c400 f i GameState.obj
 0001:0001b470       ?end@?$initializer_list@I@std@@QBEPBIXZ 0041c470 f i GameState.obj
 0001:0001b490       ?filter@Scyyz12FilterPointsScaling@@UAE_NPAVDrawingSurface@@AAH1AAI@Z 0041c490 f i GameState.obj
 0001:0001b4d0       ?filter@Scyyz12FilterPointsTranslation@@UAE_NPAVDrawingSurface@@AAH1AAI@Z 0041c4d0 f i GameState.obj
 0001:0001b570       ?filterConvertRealToVirtualXPosition@FilterPoints@@UAEHH@Z 0041c570 f i GameState.obj
 0001:0001b590       ?filterConvertRealToVirtualXPosition@Scyyz12FilterPointsScaling@@UAEHH@Z 0041c590 f i GameState.obj
 0001:0001b600       ?filterConvertRealToVirtualXPosition@Scyyz12FilterPointsTranslation@@UAEHH@Z 0041c600 f i GameState.obj
 0001:0001b650       ?filterConvertRealToVirtualYPosition@FilterPoints@@UAEHH@Z 0041c650 f i GameState.obj
 0001:0001b670       ?filterConvertRealToVirtualYPosition@Scyyz12FilterPointsScaling@@UAEHH@Z 0041c670 f i GameState.obj
 0001:0001b6e0       ?filterConvertRealToVirtualYPosition@Scyyz12FilterPointsTranslation@@UAEHH@Z 0041c6e0 f i GameState.obj
 0001:0001b730       ?filterConvertVirtualToRealXPosition@FilterPoints@@UAEHH@Z 0041c730 f i GameState.obj
 0001:0001b750       ?filterConvertVirtualToRealXPosition@Scyyz12FilterPointsScaling@@UAEHH@Z 0041c750 f i GameState.obj
 0001:0001b800       ?filterConvertVirtualToRealXPosition@Scyyz12FilterPointsTranslation@@UAEHH@Z 0041c800 f i GameState.obj
 0001:0001b850       ?filterConvertVirtualToRealYPosition@FilterPoints@@UAEHH@Z 0041c850 f i GameState.obj
 0001:0001b870       ?filterConvertVirtualToRealYPosition@Scyyz12FilterPointsScaling@@UAEHH@Z 0041c870 f i GameState.obj
 0001:0001b920       ?filterConvertVirtualToRealYPosition@Scyyz12FilterPointsTranslation@@UAEHH@Z 0041c920 f i GameState.obj
 0001:0001b970       ?handleDrawing@Scyyz12FilterPointsScaling@@AAEXPAVDrawingSurface@@HHAAI@Z 0041c970 f i GameState.obj
 0001:0001bb00       ?max_size@?$_Default_allocator_traits@V?$allocator@H@std@@@std@@SAIABV?$allocator@H@2@@Z 0041cb00 f i GameState.obj
 0001:0001bb10       ?max_size@?$_Default_allocator_traits@V?$allocator@I@std@@@std@@SAIABV?$allocator@I@2@@Z 0041cb10 f i GameState.obj
 0001:0001bb20       ?max_size@?$vector@HV?$allocator@H@std@@@std@@QBEIXZ 0041cb20 f i GameState.obj
 0001:0001bb70       ?max_size@?$vector@IV?$allocator@I@std@@@std@@QBEIXZ 0041cb70 f i GameState.obj
 0001:0001bbc0       ?rawSetPixel@DrawingSurface@@QAEXHHI@Z 0041cbc0 f i GameState.obj
 0001:0001bc70       ?select_on_container_copy_construction@?$_Default_allocator_traits@V?$allocator@I@std@@@std@@SA?AV?$allocator@I@2@ABV32@@Z 0041cc70 f i GameState.obj
 0001:0001bc80       ?setMapSize@TileManager@@QAEXHH@Z 0041cc80 f i GameState.obj
 0001:0001bd30       ?setOffset@Scyyz12FilterPointsTranslation@@QAEXHH@Z 0041cd30 f i GameState.obj
 0001:0001bd60       ?setStretch@Scyyz12FilterPointsScaling@@QAEXH@Z 0041cd60 f i GameState.obj
 0001:0001bde0       ?setTopLeftPositionOnScreen@TileManager@@QAEXHH@Z 0041cde0 f i GameState.obj
 0001:0001be10       ?size@?$vector@HV?$allocator@H@std@@@std@@QBEIXZ 0041ce10 f i GameState.obj
 0001:0001be40       ?size@?$vector@IV?$allocator@I@std@@@std@@QBEIXZ 0041ce40 f i GameState.obj
 0001:0001be70       ?stretch@Scyyz12FilterPointsScaling@@QAEXXZ 0041ce70 f i GameState.obj
 0001:0001bec0       ?virtInitialise@HighScoreState@@UAEHPAVScyyz12Engine2@@@Z 0041cec0 f   HighScoreState.obj
 0001:0001bee0       ?virtSetupBackgroundBuffer@HighScoreState@@UAEXPAVScyyz12Engine2@@@Z 0041cee0 f   HighScoreState.obj
 0001:0001c360       ?virtDrawStringsOnTop@HighScoreState@@UAEXPAVScyyz12Engine2@@@Z 0041d360 f   HighScoreState.obj
 0001:0001c380       ?virtInitialiseObjects@HighScoreState@@UAEHPAVScyyz12Engine2@@@Z 0041d380 f   HighScoreState.obj
 0001:0001c3a0       ?virtMouseDown@HighScoreState@@UAEXPAVScyyz12Engine2@@HHH@Z 0041d3a0 f   HighScoreState.obj
 0001:0001c4a0       ?virtMouseWheel@HighScoreState@@UAEXPAVScyyz12Engine2@@HHHH@Z 0041d4a0 f   HighScoreState.obj
 0001:0001c4d0       ?virtMainLoopDoBeforeUpdate@HighScoreState@@UAEXPAVScyyz12Engine2@@@Z 0041d4d0 f   HighScoreState.obj
 0001:0001c4f0       ?copyAllBackgroundBuffer@HighScoreState@@UAEXPAVScyyz12Engine2@@@Z 0041d4f0 f   HighScoreState.obj
 0001:0001c510       ?virtKeyDown@HighScoreState@@UAEXPAVScyyz12Engine2@@H@Z 0041d510 f   HighScoreState.obj
 0001:0001c530       ?virtCreateSurfaces@HighScoreState@@UAEXPAVScyyz12Engine2@@@Z 0041d530 f   HighScoreState.obj
 0001:0001c6f0       ??$_Pocma@V?$allocator@V?$basic_string@DU?$char_traits@D@std@@V?$allocator@D@2@@std@@@std@@@std@@YAXAAV?$allocator@V?$basic_string@DU?$char_traits@D@std@@V?$allocator@D@2@@std@@@0@0@Z 0041d6f0 f i HighScoreState.obj
 0001:0001c710       ??$addressof@V?$vector@V?$basic_string@DU?$char_traits@D@std@@V?$allocator@D@2@@std@@V?$allocator@V?$basic_string@DU?$char_traits@D@std@@V?$allocator@D@2@@std@@@2@@std@@@std@@YAPAV?$vector@V?$basic_string@DU?$char_traits@D@std@@V?$allocator@D@2@@std@@V?$allocator@V?$basic_string@DU?$char_traits@D@std@@V?$allocator@D@2@@std@@@2@@0@AAV10@@Z 0041d710 f i HighScoreState.obj
 0001:0001c720       ??4?$vector@V?$basic_string@DU?$char_traits@D@std@@V?$allocator@D@2@@std@@V?$allocator@V?$basic_string@DU?$char_traits@D@std@@V?$allocator@D@2@@std@@@2@@std@@QAEAAV01@$$QAV01@@Z 0041d720 f i HighScoreState.obj
 0001:0001c770       ?_Move_assign@?$vector@V?$basic_string@DU?$char_traits@D@std@@V?$allocator@D@2@@std@@V?$allocator@V?$basic_string@DU?$char_traits@D@std@@V?$allocator@D@2@@std@@@2@@std@@AAEXAAV12@U_Equal_allocators@2@@Z 0041d770 f i HighScoreState.obj
 0001:0001c7c0       ?_Take_contents@?$_Vector_val@U?$_Simple_types@V?$basic_string@DU?$char_traits@D@std@@V?$allocator@D@2@@std@@@std@@@std@@QAEXAAV12@@Z 0041d7c0 f i HighScoreState.obj
 0001:0001c840       ?virtInitialise@InstructionState@@UAEHPAVScyyz12Engine2@@@Z 0041d840 f   InstructionState.obj
 0001:0001c860       ?virtSetupBackgroundBuffer@InstructionState@@UAEXPAVScyyz12Engine2@@@Z 0041d860 f   InstructionState.obj
 0001:0001c930       ?virtDrawStringsOnTop@InstructionState@@UAEXPAVScyyz12Engine2@@@Z 0041d930 f   InstructionState.obj
 0001:0001c950       ?virtInitialiseObjects@InstructionState@@UAEHPAVScyyz12Engine2@@@Z 0041d950 f   InstructionState.obj
 0001:0001dba0       ?virtMouseDown@InstructionState@@UAEXPAVScyyz12Engine2@@HHH@Z 0041eba0 f   InstructionState.obj
 0001:0001dc50       ?virtMouseWheel@InstructionState@@UAEXPAVScyyz12Engine2@@HHHH@Z 0041ec50 f   InstructionState.obj
 0001:0001dc80       ?virtMainLoopDoBeforeUpdate@InstructionState@@UAEXPAVScyyz12Engine2@@@Z 0041ec80 f   InstructionState.obj
 0001:0001dca0       ?copyAllBackgroundBuffer@InstructionState@@UAEXPAVScyyz12Engine2@@@Z 0041eca0 f   InstructionState.obj
 0001:0001dcc0       ?virtKeyDown@InstructionState@@UAEXPAVScyyz12Engine2@@H@Z 0041ecc0 f   InstructionState.obj
 0001:0001dce0       ?virtCreateSurfaces@InstructionState@@UAEXPAVScyyz12Engine2@@@Z 0041ece0 f   InstructionState.obj
 0001:0001e230       ??$?0$$V@?$_Compressed_pair@V?$allocator@PAVCarriageCollection@@@std@@V?$_Vector_val@U?$_Simple_types@PAVCarriageCollection@@@std@@@2@$00@std@@QAE@U_Zero_then_variadic_args_t@1@@Z 0041f230 f i InstructionState.obj
 0001:0001e260       ??$?0$$V@?$_Compressed_pair@V?$allocator@PAVPassengerCollection@@@std@@V?$_Vector_val@U?$_Simple_types@PAVPassengerCollection@@@std@@@2@$00@std@@QAE@U_Zero_then_variadic_args_t@1@@Z 0041f260 f i InstructionState.obj
 0001:0001e290       ??$?0PAVCarriageCollection@@@?$allocator@U_Container_proxy@std@@@std@@QAE@ABV?$allocator@PAVCarriageCollection@@@1@@Z 0041f290 f i InstructionState.obj
 0001:0001e2b0       ??$?0PAVPassengerCollection@@@?$allocator@U_Container_proxy@std@@@std@@QAE@ABV?$allocator@PAVPassengerCollection@@@1@@Z 0041f2b0 f i InstructionState.obj
 0001:0001e2d0       ??$_Copy_memmove@PAPAVDisplayableObject@@PAPAV1@@std@@YAPAPAVDisplayableObject@@PAPAV1@00@Z 0041f2d0 f i InstructionState.obj
 0001:0001e360       ??$_Copy_memmove@PAPAVStationCollection@@PAPAV1@@std@@YAPAPAVStationCollection@@PAPAV1@00@Z 0041f360 f i InstructionState.obj
 0001:0001e3f0       ??$_Destroy_range@V?$allocator@PAVCarriageCollection@@@std@@@std@@YAXPAPAVCarriageCollection@@QAPAV1@AAV?$allocator@PAVCarriageCollection@@@0@@Z 0041f3f0 f i InstructionState.obj
 0001:0001e400       ??$_Destroy_range@V?$allocator@PAVDisplayableObject@@@std@@@std@@YAXPAPAVDisplayableObject@@QAPAV1@AAV?$allocator@PAVDisplayableObject@@@0@@Z 0041f400 f i InstructionState.obj
 0001:0001e410       ??$_Destroy_range@V?$allocator@PAVPassengerCollection@@@std@@@std@@YAXPAPAVPassengerCollection@@QAPAV1@AAV?$allocator@PAVPassengerCollection@@@0@@Z 0041f410 f i InstructionState.obj
 0001:0001e420       ??$_Destroy_range@V?$allocator@PAVStationCollection@@@std@@@std@@YAXPAPAVStationCollection@@QAPAV1@AAV?$allocator@PAVStationCollection@@@0@@Z 0041f420 f i InstructionState.obj
 0001:0001e430       ??$_Emplace_back@$$V@?$_Uninitialized_backout_al@V?$allocator@PAVDisplayableObject@@@std@@@std@@QAEXXZ 0041f430 f i InstructionState.obj
 0001:0001e480       ??$_Emplace_back@PAVDisplayableObject@@@?$_Uninitialized_backout_al@V?$allocator@PAVDisplayableObject@@@std@@@std@@QAEX$$QAPAVDisplayableObject@@@Z 0041f480 f i InstructionState.obj
 0001:0001e4e0       ??$_Emplace_back@PAVStationCollection@@@?$_Uninitialized_backout_al@V?$allocator@PAVStationCollection@@@std@@@std@@QAEX$$QAPAVStationCollection@@@Z 0041f4e0 f i InstructionState.obj
 0001:0001e540       ??$_Emplace_back_with_unused_capacity@AAPAVStationCollection@@@?$vector@PAVStationCollection@@V?$allocator@PAVStationCollection@@@std@@@std@@AAE?A_TAAPAVStationCollection@@@Z 0041f540 f i InstructionState.obj
 0001:0001e5e0       ??$_Emplace_back_with_unused_capacity@ABQAVDisplayableObject@@@?$vector@PAVDisplayableObject@@V?$allocator@PAVDisplayableObject@@@std@@@std@@AAE?A_TABQAVDisplayableObject@@@Z 0041f5e0 f i InstructionState.obj
 0001:0001e680       ??$_Emplace_reallocate@AAPAVStationCollection@@@?$vector@PAVStationCollection@@V?$allocator@PAVStationCollection@@@std@@@std@@QAEPAPAVStationCollection@@QAPAV2@AAPAV2@@Z 0041f680 f i InstructionState.obj
 0001:0001e8d0       ??$_Emplace_reallocate@ABQAVDisplayableObject@@@?$vector@PAVDisplayableObject@@V?$allocator@PAVDisplayableObject@@@std@@@std@@QAEPAPAVDisplayableObject@@QAPAV2@ABQAV2@@Z 0041f8d0 f i InstructionState.obj
 0001:0001eb20       ??$_Get_unwrapped@ABQAPAVDisplayableObject@@@std@@YA?A_TABQAPAVDisplayableObject@@@Z 0041fb20 f i InstructionState.obj
 0001:0001eb30       ??$_Get_unwrapped@ABQAPAVStationCollection@@@std@@YA?A_TABQAPAVStationCollection@@@Z 0041fb30 f i InstructionState.obj
 0001:0001eb40       ??$_Resize@U_Value_init_tag@std@@@?$vector@PAVDisplayableObject@@V?$allocator@PAVDisplayableObject@@@std@@@std@@AAEXIABU_Value_init_tag@1@@Z 0041fb40 f i InstructionState.obj
 0001:0001ec60       ??$_Resize_reallocate@U_Value_init_tag@std@@@?$vector@PAVDisplayableObject@@V?$allocator@PAVDisplayableObject@@@std@@@std@@AAEXIABU_Value_init_tag@1@@Z 0041fc60 f i InstructionState.obj
 0001:0001ee10       ??$_To_address@PAPAVDisplayableObject@@@std@@YA?A_PABQAPAVDisplayableObject@@@Z 0041fe10 f i InstructionState.obj
 0001:0001ee20       ??$_To_address@PAPAVStationCollection@@@std@@YA?A_PABQAPAVStationCollection@@@Z 0041fe20 f i InstructionState.obj
 0001:0001ee30       ??$_Unfancy@PAVDisplayableObject@@@std@@YAPAPAVDisplayableObject@@PAPAV1@@Z 0041fe30 f i InstructionState.obj
 0001:0001ee40       ??$_Unfancy@PAVStationCollection@@@std@@YAPAPAVStationCollection@@PAPAV1@@Z 0041fe40 f i InstructionState.obj
 0001:0001ee50       ??$_Uninitialized_move@PAPAVDisplayableObject@@V?$allocator@PAVDisplayableObject@@@std@@@std@@YAPAPAVDisplayableObject@@QAPAV1@0PAPAV1@AAV?$allocator@PAVDisplayableObject@@@0@@Z 0041fe50 f i InstructionState.obj
 0001:0001ef70       ??$_Uninitialized_move@PAPAVStationCollection@@V?$allocator@PAVStationCollection@@@std@@@std@@YAPAPAVStationCollection@@QAPAV1@0PAPAV1@AAV?$allocator@PAVStationCollection@@@0@@Z 0041ff70 f i InstructionState.obj
 0001:0001f090       ??$_Uninitialized_value_construct_n@V?$allocator@PAVDisplayableObject@@@std@@@std@@YAPAPAVDisplayableObject@@PAPAV1@IAAV?$allocator@PAVDisplayableObject@@@0@@Z 00420090 f i InstructionState.obj
 0001:0001f170       ??$_Voidify_iter@PAPAVDisplayableObject@@@std@@YAPAXPAPAVDisplayableObject@@@Z 00420170 f i InstructionState.obj
 0001:0001f180       ??$_Voidify_iter@PAPAVStationCollection@@@std@@YAPAXPAPAVStationCollection@@@Z 00420180 f i InstructionState.obj
 0001:0001f190       ??$_Zero_range@PAPAVDisplayableObject@@@std@@YAPAPAVDisplayableObject@@QAPAV1@0@Z 00420190 f i InstructionState.obj
 0001:0001f1e0       ??$construct@PAVDisplayableObject@@$$V@?$_Default_allocator_traits@V?$allocator@PAVDisplayableObject@@@std@@@std@@SAXAAV?$allocator@PAVDisplayableObject@@@1@QAPAVDisplayableObject@@@Z 004201e0 f i InstructionState.obj
 0001:0001f230       ??$construct@PAVDisplayableObject@@ABQAV1@@?$_Default_allocator_traits@V?$allocator@PAVDisplayableObject@@@std@@@std@@SAXAAV?$allocator@PAVDisplayableObject@@@1@QAPAVDisplayableObject@@ABQAV3@@Z 00420230 f i InstructionState.obj
 0001:0001f280       ??$construct@PAVDisplayableObject@@PAV1@@?$_Default_allocator_traits@V?$allocator@PAVDisplayableObject@@@std@@@std@@SAXAAV?$allocator@PAVDisplayableObject@@@1@QAPAVDisplayableObject@@$$QAPAV3@@Z 00420280 f i InstructionState.obj
 0001:0001f2d0       ??$construct@PAVStationCollection@@AAPAV1@@?$_Default_allocator_traits@V?$allocator@PAVStationCollection@@@std@@@std@@SAXAAV?$allocator@PAVStationCollection@@@1@QAPAVStationCollection@@AAPAV3@@Z 004202d0 f i InstructionState.obj
 0001:0001f320       ??$construct@PAVStationCollection@@PAV1@@?$_Default_allocator_traits@V?$allocator@PAVStationCollection@@@std@@@std@@SAXAAV?$allocator@PAVStationCollection@@@1@QAPAVStationCollection@@$$QAPAV3@@Z 00420320 f i InstructionState.obj
 0001:0001f370       ??$emplace_back@AAPAVStationCollection@@@?$vector@PAVStationCollection@@V?$allocator@PAVStationCollection@@@std@@@std@@QAE?A_TAAPAVStationCollection@@@Z 00420370 f i InstructionState.obj
 0001:0001f3f0       ??$emplace_back@ABQAVDisplayableObject@@@?$vector@PAVDisplayableObject@@V?$allocator@PAVDisplayableObject@@@std@@@std@@QAE?A_TABQAVDisplayableObject@@@Z 004203f0 f i InstructionState.obj
 0001:0001f470       ??$forward@AAPAVStationCollection@@@std@@YAAAPAVStationCollection@@AAPAV1@@Z 00420470 f i InstructionState.obj
 0001:0001f480       ??$forward@ABQAVDisplayableObject@@@std@@YAABQAVDisplayableObject@@ABQAV1@@Z 00420480 f i InstructionState.obj
 0001:0001f490       ??$forward@PAVDisplayableObject@@@std@@YA$$QAPAVDisplayableObject@@AAPAV1@@Z 00420490 f i InstructionState.obj
 0001:0001f4a0       ??$forward@PAVStationCollection@@@std@@YA$$QAPAVStationCollection@@AAPAV1@@Z 004204a0 f i InstructionState.obj
 0001:0001f4b0       ??$move@AAPAVDisplayableObject@@@std@@YA$$QAPAVDisplayableObject@@AAPAV1@@Z 004204b0 f i InstructionState.obj
 0001:0001f4c0       ??$move@AAPAVStationCollection@@@std@@YA$$QAPAVStationCollection@@AAPAV1@@Z 004204c0 f i InstructionState.obj
 0001:0001f4d0       ??0?$_Uninitialized_backout_al@V?$allocator@PAVDisplayableObject@@@std@@@std@@QAE@PAPAVDisplayableObject@@AAV?$allocator@PAVDisplayableObject@@@1@@Z 004204d0 f i InstructionState.obj
 0001:0001f510       ??0?$_Uninitialized_backout_al@V?$allocator@PAVStationCollection@@@std@@@std@@QAE@PAPAVStationCollection@@AAV?$allocator@PAVStationCollection@@@1@@Z 00420510 f i InstructionState.obj
 0001:0001f550       ??0?$_Vector_val@U?$_Simple_types@PAVCarriageCollection@@@std@@@std@@QAE@XZ 00420550 f i InstructionState.obj
 0001:0001f5a0       ??0?$_Vector_val@U?$_Simple_types@PAVPassengerCollection@@@std@@@std@@QAE@XZ 004205a0 f i InstructionState.obj
 0001:0001f5f0       ??0?$allocator@PAVCarriageCollection@@@std@@QAE@XZ 004205f0 f i InstructionState.obj
 0001:0001f610       ??0?$allocator@PAVPassengerCollection@@@std@@QAE@XZ 00420610 f i InstructionState.obj
 0001:0001f630       ??0?$vector@PAVCarriageCollection@@V?$allocator@PAVCarriageCollection@@@std@@@std@@QAE@XZ 00420630 f i InstructionState.obj
 0001:0001f6b0       ??0?$vector@PAVPassengerCollection@@V?$allocator@PAVPassengerCollection@@@std@@@std@@QAE@XZ 004206b0 f i InstructionState.obj
 0001:0001f730       ??0Passenger@@QAE@PAVBaseEngine@@NNIH@Z 00420730 f i InstructionState.obj
 0001:0001f7b0       ??0PassengerCircle@@QAE@PAVBaseEngine@@NNIH@Z 004207b0 f i InstructionState.obj
 0001:0001f810       ??0PassengerCollection@@QAE@FPAVBaseEngine@@NNIH@Z 00420810 f i InstructionState.obj
 0001:0001fc50       ??0PassengerDiamond@@QAE@PAVBaseEngine@@NNIH@Z 00420c50 f i InstructionState.obj
 0001:0001fcb0       ??0PassengerFlower@@QAE@PAVBaseEngine@@NNIH@Z 00420cb0 f i InstructionState.obj
 0001:0001fd10       ??0PassengerInvTriangle@@QAE@PAVBaseEngine@@NNIH@Z 00420d10 f i InstructionState.obj
 0001:0001fd70       ??0PassengerSquare@@QAE@PAVBaseEngine@@NNIH@Z 00420d70 f i InstructionState.obj
 0001:0001fdd0       ??0PassengerTriangle@@QAE@PAVBaseEngine@@NNIH@Z 00420dd0 f i InstructionState.obj
 0001:0001fe30       ??0RailLine@@QAE@PAVBaseEngine@@HH_NIHH@Z 00420e30 f i InstructionState.obj
 0001:0001ff00       ??0RailLineDiagonal@@QAE@PAVBaseEngine@@HHFIHH@Z 00420f00 f i InstructionState.obj
 0001:00020000       ??0Station@@QAE@PAVBaseEngine@@HHIIHH@Z 00421000 f i InstructionState.obj
 0001:00020090       ??0StationCircle@@QAE@PAVBaseEngine@@HHIIHH@Z 00421090 f i InstructionState.obj
 0001:000200e0       ??0StationCollection@@QAE@HFPAVBaseEngine@@HHIIHH@Z 004210e0 f i InstructionState.obj
 0001:000204a0       ??0StationDiamond@@QAE@PAVBaseEngine@@HHIIHH@Z 004214a0 f i InstructionState.obj
 0001:000204f0       ??0StationFlower@@QAE@PAVBaseEngine@@HHIIHH@Z 004214f0 f i InstructionState.obj
 0001:00020540       ??0StationInvTriangle@@QAE@PAVBaseEngine@@HHIIHH@Z 00421540 f i InstructionState.obj
 0001:00020590       ??0StationSquare@@QAE@PAVBaseEngine@@HHIIHH@Z 00421590 f i InstructionState.obj
 0001:000205e0       ??0StationTriangle@@QAE@PAVBaseEngine@@HHIIHH@Z 004215e0 f i InstructionState.obj
 0001:00020630       ??0Train@@QAE@PAVBaseEngine@@NNNFIH@Z 00421630 f i InstructionState.obj
 0001:000206f0       ??0TrainCollection@@QAE@HFPAVBaseEngine@@NNINFHI@Z 004216f0 f i InstructionState.obj
 0001:00020a20       ??0TrainFast@@QAE@PAVBaseEngine@@NNNFIH@Z 00421a20 f i InstructionState.obj
 0001:00020a90       ??0TrainIntelli@@QAE@PAVBaseEngine@@NNNFIHI@Z 00421a90 f i InstructionState.obj
 0001:00020b10       ??0TrainNormal@@QAE@PAVBaseEngine@@NNNFIH@Z 00421b10 f i InstructionState.obj
 0001:00020b80       ??1?$_Uninitialized_backout_al@V?$allocator@PAVDisplayableObject@@@std@@@std@@QAE@XZ 00421b80 f i InstructionState.obj
 0001:00020bb0       ??1?$_Uninitialized_backout_al@V?$allocator@PAVStationCollection@@@std@@@std@@QAE@XZ 00421bb0 f i InstructionState.obj
 0001:00020be0       ??1?$vector@PAVCarriageCollection@@V?$allocator@PAVCarriageCollection@@@std@@@std@@QAE@XZ 00421be0 f i InstructionState.obj
 0001:00020c50       ??1?$vector@PAVPassengerCollection@@V?$allocator@PAVPassengerCollection@@@std@@@std@@QAE@XZ 00421c50 f i InstructionState.obj
 0001:00020cc0       ??1Passenger@@UAE@XZ       00421cc0 f i InstructionState.obj
 0001:00020ce0       ??1PassengerCircle@@UAE@XZ 00421ce0 f i InstructionState.obj
 0001:00020d00       ??1PassengerCollection@@QAE@XZ 00421d00 f i InstructionState.obj
 0001:00020d50       ??1PassengerDiamond@@UAE@XZ 00421d50 f i InstructionState.obj
 0001:00020d70       ??1PassengerFlower@@UAE@XZ 00421d70 f i InstructionState.obj
 0001:00020d90       ??1PassengerInvTriangle@@UAE@XZ 00421d90 f i InstructionState.obj
 0001:00020db0       ??1PassengerSquare@@UAE@XZ 00421db0 f i InstructionState.obj
 0001:00020dd0       ??1PassengerTriangle@@UAE@XZ 00421dd0 f i InstructionState.obj
 0001:00020df0       ??1RailLine@@UAE@XZ        00421df0 f i InstructionState.obj
 0001:00020e10       ??1RailLineDiagonal@@UAE@XZ 00421e10 f i InstructionState.obj
 0001:00020e30       ??1Station@@UAE@XZ         00421e30 f i InstructionState.obj
 0001:00020ed0       ??1StationCircle@@UAE@XZ   00421ed0 f i InstructionState.obj
 0001:00020ef0       ??1StationDiamond@@UAE@XZ  00421ef0 f i InstructionState.obj
 0001:00020f10       ??1StationFlower@@UAE@XZ   00421f10 f i InstructionState.obj
 0001:00020f30       ??1StationInvTriangle@@UAE@XZ 00421f30 f i InstructionState.obj
 0001:00020f50       ??1StationSquare@@UAE@XZ   00421f50 f i InstructionState.obj
 0001:00020f70       ??1StationTriangle@@UAE@XZ 00421f70 f i InstructionState.obj
 0001:00020f90       ??A?$vector@PAVDisplayableObject@@V?$allocator@PAVDisplayableObject@@@std@@@std@@QAEAAPAVDisplayableObject@@I@Z 00421f90 f i InstructionState.obj
 0001:00021040       ??A?$vector@PAVPassengerCollection@@V?$allocator@PAVPassengerCollection@@@std@@@std@@QAEAAPAVPassengerCollection@@I@Z 00422040 f i InstructionState.obj
 0001:000210f0       ??_GPassenger@@UAEPAXI@Z   004220f0 f i InstructionState.obj
 0001:000210f0       ??_EPassenger@@UAEPAXI@Z   004220f0 f i InstructionState.obj
 0001:00021130       ??_GPassengerCircle@@UAEPAXI@Z 00422130 f i InstructionState.obj
 0001:00021130       ??_EPassengerCircle@@UAEPAXI@Z 00422130 f i InstructionState.obj
 0001:00021170       ??_GPassengerCollection@@QAEPAXI@Z 00422170 f i InstructionState.obj
 0001:000211b0       ??_EPassengerDiamond@@UAEPAXI@Z 004221b0 f i InstructionState.obj
 0001:000211b0       ??_GPassengerDiamond@@UAEPAXI@Z 004221b0 f i InstructionState.obj
 0001:000211f0       ??_GPassengerFlower@@UAEPAXI@Z 004221f0 f i InstructionState.obj
 0001:000211f0       ??_EPassengerFlower@@UAEPAXI@Z 004221f0 f i InstructionState.obj
 0001:00021230       ??_EPassengerInvTriangle@@UAEPAXI@Z 00422230 f i InstructionState.obj
 0001:00021230       ??_GPassengerInvTriangle@@UAEPAXI@Z 00422230 f i InstructionState.obj
 0001:00021270       ??_GPassengerSquare@@UAEPAXI@Z 00422270 f i InstructionState.obj
 0001:00021270       ??_EPassengerSquare@@UAEPAXI@Z 00422270 f i InstructionState.obj
 0001:000212b0       ??_GPassengerTriangle@@UAEPAXI@Z 004222b0 f i InstructionState.obj
 0001:000212b0       ??_EPassengerTriangle@@UAEPAXI@Z 004222b0 f i InstructionState.obj
 0001:000212f0       ??_ERailLine@@UAEPAXI@Z    004222f0 f i InstructionState.obj
 0001:000212f0       ??_GRailLine@@UAEPAXI@Z    004222f0 f i InstructionState.obj
 0001:00021330       ??_ERailLineDiagonal@@UAEPAXI@Z 00422330 f i InstructionState.obj
 0001:00021330       ??_GRailLineDiagonal@@UAEPAXI@Z 00422330 f i InstructionState.obj
 0001:00021370       ??_EStation@@UAEPAXI@Z     00422370 f i InstructionState.obj
 0001:00021370       ??_GStation@@UAEPAXI@Z     00422370 f i InstructionState.obj
 0001:000213b0       ??_EStationCircle@@UAEPAXI@Z 004223b0 f i InstructionState.obj
 0001:000213b0       ??_GStationCircle@@UAEPAXI@Z 004223b0 f i InstructionState.obj
 0001:000213f0       ??_EStationDiamond@@UAEPAXI@Z 004223f0 f i InstructionState.obj
 0001:000213f0       ??_GStationDiamond@@UAEPAXI@Z 004223f0 f i InstructionState.obj
 0001:00021430       ??_EStationFlower@@UAEPAXI@Z 00422430 f i InstructionState.obj
 0001:00021430       ??_GStationFlower@@UAEPAXI@Z 00422430 f i InstructionState.obj
 0001:00021470       ??_EStationInvTriangle@@UAEPAXI@Z 00422470 f i InstructionState.obj
 0001:00021470       ??_GStationInvTriangle@@UAEPAXI@Z 00422470 f i InstructionState.obj
 0001:000214b0       ??_EStationSquare@@UAEPAXI@Z 004224b0 f i InstructionState.obj
 0001:000214b0       ??_GStationSquare@@UAEPAXI@Z 004224b0 f i InstructionState.obj
 0001:000214f0       ??_EStationTriangle@@UAEPAXI@Z 004224f0 f i InstructionState.obj
 0001:000214f0       ??_GStationTriangle@@UAEPAXI@Z 004224f0 f i InstructionState.obj
 0001:00021530       ?_Calculate_growth@?$vector@PAVDisplayableObject@@V?$allocator@PAVDisplayableObject@@@std@@@std@@ABEII@Z 00422530 f i InstructionState.obj
 0001:000215a0       ?_Calculate_growth@?$vector@PAVStationCollection@@V?$allocator@PAVStationCollection@@@std@@@std@@ABEII@Z 004225a0 f i InstructionState.obj
 0001:00021610       ?_Change_array@?$vector@PAVDisplayableObject@@V?$allocator@PAVDisplayableObject@@@std@@@std@@AAEXQAPAVDisplayableObject@@II@Z 00422610 f i InstructionState.obj
 0001:000216e0       ?_Change_array@?$vector@PAVStationCollection@@V?$allocator@PAVStationCollection@@@std@@@std@@AAEXQAPAVStationCollection@@II@Z 004226e0 f i InstructionState.obj
 0001:000217b0       ?_Destroy@?$vector@PAVCarriageCollection@@V?$allocator@PAVCarriageCollection@@@std@@@std@@AAEXPAPAVCarriageCollection@@0@Z 004227b0 f i InstructionState.obj
 0001:000217e0       ?_Destroy@?$vector@PAVDisplayableObject@@V?$allocator@PAVDisplayableObject@@@std@@@std@@AAEXPAPAVDisplayableObject@@0@Z 004227e0 f i InstructionState.obj
 0001:00021810       ?_Destroy@?$vector@PAVPassengerCollection@@V?$allocator@PAVPassengerCollection@@@std@@@std@@AAEXPAPAVPassengerCollection@@0@Z 00422810 f i InstructionState.obj
 0001:00021840       ?_Destroy@?$vector@PAVStationCollection@@V?$allocator@PAVStationCollection@@@std@@@std@@AAEXPAPAVStationCollection@@0@Z 00422840 f i InstructionState.obj
 0001:00021870       ?_Get_first@?$_Compressed_pair@V?$allocator@PAVCarriageCollection@@@std@@V?$_Vector_val@U?$_Simple_types@PAVCarriageCollection@@@std@@@2@$00@std@@QAEAAV?$allocator@PAVCarriageCollection@@@2@XZ 00422870 f i InstructionState.obj
 0001:00021890       ?_Get_first@?$_Compressed_pair@V?$allocator@PAVDisplayableObject@@@std@@V?$_Vector_val@U?$_Simple_types@PAVDisplayableObject@@@std@@@2@$00@std@@QAEAAV?$allocator@PAVDisplayableObject@@@2@XZ 00422890 f i InstructionState.obj
 0001:000218b0       ?_Get_first@?$_Compressed_pair@V?$allocator@PAVDisplayableObject@@@std@@V?$_Vector_val@U?$_Simple_types@PAVDisplayableObject@@@std@@@2@$00@std@@QBEABV?$allocator@PAVDisplayableObject@@@2@XZ 004228b0 f i InstructionState.obj
 0001:000218d0       ?_Get_first@?$_Compressed_pair@V?$allocator@PAVPassengerCollection@@@std@@V?$_Vector_val@U?$_Simple_types@PAVPassengerCollection@@@std@@@2@$00@std@@QAEAAV?$allocator@PAVPassengerCollection@@@2@XZ 004228d0 f i InstructionState.obj
 0001:000218f0       ?_Get_first@?$_Compressed_pair@V?$allocator@PAVStationCollection@@@std@@V?$_Vector_val@U?$_Simple_types@PAVStationCollection@@@std@@@2@$00@std@@QAEAAV?$allocator@PAVStationCollection@@@2@XZ 004228f0 f i InstructionState.obj
 0001:00021910       ?_Get_first@?$_Compressed_pair@V?$allocator@PAVStationCollection@@@std@@V?$_Vector_val@U?$_Simple_types@PAVStationCollection@@@std@@@2@$00@std@@QBEABV?$allocator@PAVStationCollection@@@2@XZ 00422910 f i InstructionState.obj
 0001:00021930       ?_Getal@?$vector@PAVCarriageCollection@@V?$allocator@PAVCarriageCollection@@@std@@@std@@AAEAAV?$allocator@PAVCarriageCollection@@@2@XZ 00422930 f i InstructionState.obj
 0001:00021950       ?_Getal@?$vector@PAVDisplayableObject@@V?$allocator@PAVDisplayableObject@@@std@@@std@@AAEAAV?$allocator@PAVDisplayableObject@@@2@XZ 00422950 f i InstructionState.obj
 0001:00021970       ?_Getal@?$vector@PAVDisplayableObject@@V?$allocator@PAVDisplayableObject@@@std@@@std@@ABEABV?$allocator@PAVDisplayableObject@@@2@XZ 00422970 f i InstructionState.obj
 0001:00021990       ?_Getal@?$vector@PAVPassengerCollection@@V?$allocator@PAVPassengerCollection@@@std@@@std@@AAEAAV?$allocator@PAVPassengerCollection@@@2@XZ 00422990 f i InstructionState.obj
 0001:000219b0       ?_Getal@?$vector@PAVStationCollection@@V?$allocator@PAVStationCollection@@@std@@@std@@AAEAAV?$allocator@PAVStationCollection@@@2@XZ 004229b0 f i InstructionState.obj
 0001:000219d0       ?_Getal@?$vector@PAVStationCollection@@V?$allocator@PAVStationCollection@@@std@@@std@@ABEABV?$allocator@PAVStationCollection@@@2@XZ 004229d0 f i InstructionState.obj
 0001:000219f0       ?_Orphan_range@?$vector@PAVDisplayableObject@@V?$allocator@PAVDisplayableObject@@@std@@@std@@ABEXPAPAVDisplayableObject@@0@Z 004229f0 f i InstructionState.obj
 0001:00021a20       ?_Orphan_range@?$vector@PAVStationCollection@@V?$allocator@PAVStationCollection@@@std@@@std@@ABEXPAPAVStationCollection@@0@Z 00422a20 f i InstructionState.obj
 0001:00021a50       ?_Orphan_range_locked@?$vector@PAVDisplayableObject@@V?$allocator@PAVDisplayableObject@@@std@@@std@@ABEXPAPAVDisplayableObject@@0@Z 00422a50 f i InstructionState.obj
 0001:00021ae0       ?_Orphan_range_locked@?$vector@PAVStationCollection@@V?$allocator@PAVStationCollection@@@std@@@std@@ABEXPAPAVStationCollection@@0@Z 00422ae0 f i InstructionState.obj
 0001:00021b70       ?_Orphan_range_unlocked@?$vector@PAVDisplayableObject@@V?$allocator@PAVDisplayableObject@@@std@@@std@@ABEXPAPAVDisplayableObject@@0@Z 00422b70 f i InstructionState.obj
 0001:00021c00       ?_Orphan_range_unlocked@?$vector@PAVStationCollection@@V?$allocator@PAVStationCollection@@@std@@@std@@ABEXPAPAVStationCollection@@0@Z 00422c00 f i InstructionState.obj
 0001:00021c90       ?_Release@?$_Uninitialized_backout_al@V?$allocator@PAVDisplayableObject@@@std@@@std@@QAEPAPAVDisplayableObject@@XZ 00422c90 f i InstructionState.obj
 0001:00021cc0       ?_Release@?$_Uninitialized_backout_al@V?$allocator@PAVStationCollection@@@std@@@std@@QAEPAPAVStationCollection@@XZ 00422cc0 f i InstructionState.obj
 0001:00021cf0       ?_Tidy@?$vector@PAVCarriageCollection@@V?$allocator@PAVCarriageCollection@@@std@@@std@@AAEXXZ 00422cf0 f i InstructionState.obj
 0001:00021de0       ?_Tidy@?$vector@PAVPassengerCollection@@V?$allocator@PAVPassengerCollection@@@std@@@std@@AAEXXZ 00422de0 f i InstructionState.obj
 0001:00021ed0       ?_Ufill@?$vector@PAVDisplayableObject@@V?$allocator@PAVDisplayableObject@@@std@@@std@@AAEPAPAVDisplayableObject@@PAPAV3@IU_Value_init_tag@2@@Z 00422ed0 f i InstructionState.obj
 0001:00021f00       ?_Umove@?$vector@PAVDisplayableObject@@V?$allocator@PAVDisplayableObject@@@std@@@std@@AAEPAPAVDisplayableObject@@PAPAV3@00@Z 00422f00 f i InstructionState.obj
 0001:00021f40       ?_Umove@?$vector@PAVStationCollection@@V?$allocator@PAVStationCollection@@@std@@@std@@AAEPAPAVStationCollection@@PAPAV3@00@Z 00422f40 f i InstructionState.obj
 0001:00021f80       ?_Umove_if_noexcept1@?$vector@PAVDisplayableObject@@V?$allocator@PAVDisplayableObject@@@std@@@std@@AAEXPAPAVDisplayableObject@@00U?$integral_constant@_N$00@2@@Z 00422f80 f i InstructionState.obj
 0001:00021fc0       ?_Umove_if_noexcept1@?$vector@PAVStationCollection@@V?$allocator@PAVStationCollection@@@std@@@std@@AAEXPAPAVStationCollection@@00U?$integral_constant@_N$00@2@@Z 00422fc0 f i InstructionState.obj
 0001:00022000       ?_Umove_if_noexcept@?$vector@PAVDisplayableObject@@V?$allocator@PAVDisplayableObject@@@std@@@std@@AAEXPAPAVDisplayableObject@@00@Z 00423000 f i InstructionState.obj
 0001:00022040       ?_Umove_if_noexcept@?$vector@PAVStationCollection@@V?$allocator@PAVStationCollection@@@std@@@std@@AAEXPAPAVStationCollection@@00@Z 00423040 f i InstructionState.obj
 0001:00022080       ?_Unchecked_begin@?$vector@HV?$allocator@H@std@@@std@@QAEPAHXZ 00423080 f i InstructionState.obj
 0001:000220a0       ?_Unchecked_begin@?$vector@PAVCarriageCollection@@V?$allocator@PAVCarriageCollection@@@std@@@std@@QAEPAPAVCarriageCollection@@XZ 004230a0 f i InstructionState.obj
 0001:000220c0       ?_Unchecked_begin@?$vector@PAVStationCollection@@V?$allocator@PAVStationCollection@@@std@@@std@@QAEPAPAVStationCollection@@XZ 004230c0 f i InstructionState.obj
 0001:000220e0       ?_Unchecked_end@?$vector@HV?$allocator@H@std@@@std@@QAEPAHXZ 004230e0 f i InstructionState.obj
 0001:00022100       ?_Unchecked_end@?$vector@PAVCarriageCollection@@V?$allocator@PAVCarriageCollection@@@std@@@std@@QAEPAPAVCarriageCollection@@XZ 00423100 f i InstructionState.obj
 0001:00022120       ?_Unchecked_end@?$vector@PAVStationCollection@@V?$allocator@PAVStationCollection@@@std@@@std@@QAEPAPAVStationCollection@@XZ 00423120 f i InstructionState.obj
 0001:00022140       ?_Xlength@?$vector@PAVDisplayableObject@@V?$allocator@PAVDisplayableObject@@@std@@@std@@CAXXZ 00423140 f i InstructionState.obj
 0001:00022160       ?_Xlength@?$vector@PAVStationCollection@@V?$allocator@PAVStationCollection@@@std@@@std@@CAXXZ 00423160 f i InstructionState.obj
 0001:00022180       ?allocate@?$allocator@PAVDisplayableObject@@@std@@QAEPAPAVDisplayableObject@@I@Z 00423180 f i InstructionState.obj
 0001:000221b0       ?allocate@?$allocator@PAVStationCollection@@@std@@QAEPAPAVStationCollection@@I@Z 004231b0 f i InstructionState.obj
 0001:000221e0       ?appendObjectToArray@DisplayableObjectContainer@@QAEXPAVDisplayableObject@@@Z 004231e0 f i InstructionState.obj
 0001:00022220       ?capacity@?$vector@PAVDisplayableObject@@V?$allocator@PAVDisplayableObject@@@std@@@std@@QBEIXZ 00423220 f i InstructionState.obj
 0001:00022250       ?capacity@?$vector@PAVStationCollection@@V?$allocator@PAVStationCollection@@@std@@@std@@QBEIXZ 00423250 f i InstructionState.obj
 0001:00022280       ?createObjectArray@DisplayableObjectContainer@@QAEXH@Z 00423280 f i InstructionState.obj
 0001:000222d0       ?deallocate@?$allocator@PAVCarriageCollection@@@std@@QAEXQAPAVCarriageCollection@@I@Z 004232d0 f i InstructionState.obj
 0001:00022300       ?deallocate@?$allocator@PAVDisplayableObject@@@std@@QAEXQAPAVDisplayableObject@@I@Z 00423300 f i InstructionState.obj
 0001:00022330       ?deallocate@?$allocator@PAVPassengerCollection@@@std@@QAEXQAPAVPassengerCollection@@I@Z 00423330 f i InstructionState.obj
 0001:00022360       ?deallocate@?$allocator@PAVStationCollection@@@std@@QAEXQAPAVStationCollection@@I@Z 00423360 f i InstructionState.obj
 0001:00022390       ?deleteOnRemoval@DisplayableObject@@UBE_NXZ 00423390 f i InstructionState.obj
 0001:000223b0       ?drawableObjectsChanged@DisplayableObjectContainer@@QAEXXZ 004233b0 f i InstructionState.obj
 0001:000223d0       ?max_size@?$_Default_allocator_traits@V?$allocator@PAVDisplayableObject@@@std@@@std@@SAIABV?$allocator@PAVDisplayableObject@@@2@@Z 004233d0 f i InstructionState.obj
 0001:000223e0       ?max_size@?$_Default_allocator_traits@V?$allocator@PAVStationCollection@@@std@@@std@@SAIABV?$allocator@PAVStationCollection@@@2@@Z 004233e0 f i InstructionState.obj
 0001:000223f0       ?max_size@?$vector@PAVDisplayableObject@@V?$allocator@PAVDisplayableObject@@@std@@@std@@QBEIXZ 004233f0 f i InstructionState.obj
 0001:00022440       ?max_size@?$vector@PAVStationCollection@@V?$allocator@PAVStationCollection@@@std@@@std@@QBEIXZ 00423440 f i InstructionState.obj
 0001:00022490       ?push_back@?$vector@PAVDisplayableObject@@V?$allocator@PAVDisplayableObject@@@std@@@std@@QAEXABQAVDisplayableObject@@@Z 00423490 f i InstructionState.obj
 0001:000224b0       ?resize@?$vector@PAVDisplayableObject@@V?$allocator@PAVDisplayableObject@@@std@@@std@@QAEXI@Z 004234b0 f i InstructionState.obj
 0001:000224e0       ?setPosition@DisplayableObject@@UAEXHH@Z 004234e0 f i InstructionState.obj
 0001:00022520       ?setShouldDeleteOnRemoval@DisplayableObject@@QAEX_N@Z 00423520 f i InstructionState.obj
 0001:00022540       ?size@?$vector@PAVStationCollection@@V?$allocator@PAVStationCollection@@@std@@@std@@QBEIXZ 00423540 f i InstructionState.obj
 0001:00022570       ?storeObjectInArray@DisplayableObjectContainer@@QAEXHPAVDisplayableObject@@@Z 00423570 f i InstructionState.obj
 0001:000225b0       ?virtIsPositionWithinObject@DisplayableObject@@UAE_NHH@Z 004235b0 f i InstructionState.obj
 0001:00022640       ?virtKeyDown@DisplayableObject@@UAEXH@Z 00423640 f i InstructionState.obj
 0001:00022650       ?virtKeyUp@DisplayableObject@@UAEXH@Z 00423650 f i InstructionState.obj
 0001:00022660       ?virtMouseDown@DisplayableObject@@UAEXHHH@Z 00423660 f i InstructionState.obj
 0001:00022670       ?virtMouseMoved@DisplayableObject@@UAEXHH@Z 00423670 f i InstructionState.obj
 0001:00022680       ?virtMouseUp@DisplayableObject@@UAEXHHH@Z 00423680 f i InstructionState.obj
 0001:00022690       ?virtNotify@DisplayableObject@@UAEJHHH@Z 00423690 f i InstructionState.obj
 0001:000226b0       ?virtSingleItemMouseDown@DisplayableObject@@UAE_NHHH@Z 004236b0 f i InstructionState.obj
 0001:000226d0       ?setColor@Passenger@@QAEXI@Z 004236d0 f   Passenger.obj
 0001:000226f0       ?getXCenter@Passenger@@QAENXZ 004236f0 f   Passenger.obj
 0001:00022710       ?setXCenter@Passenger@@QAEXN@Z 00423710 f   Passenger.obj
 0001:00022740       ?incXCenter@Passenger@@QAEXN@Z 00423740 f   Passenger.obj
 0001:00022770       ?getYCenter@Passenger@@QAENXZ 00423770 f   Passenger.obj
 0001:00022790       ?setYCenter@Passenger@@QAEXN@Z 00423790 f   Passenger.obj
 0001:000227c0       ?incYCenter@Passenger@@QAEXN@Z 004237c0 f   Passenger.obj
 0001:000227f0       ?virtDraw@PassengerCircle@@UAEXXZ 004237f0 f   Passenger.obj
 0001:00022860       ?virtDraw@PassengerSquare@@UAEXXZ 00423860 f   Passenger.obj
 0001:000228f0       ?virtDraw@PassengerDiamond@@UAEXXZ 004238f0 f   Passenger.obj
 0001:000229d0       ?virtDraw@PassengerTriangle@@UAEXXZ 004239d0 f   Passenger.obj
 0001:00022a90       ?virtDraw@PassengerInvTriangle@@UAEXXZ 00423a90 f   Passenger.obj
 0001:00022b50       ?dist@PassengerFlower@@AAEHHHHH@Z 00423b50 f   Passenger.obj
 0001:00022ba0       ?virtDraw@PassengerFlower@@UAEXXZ 00423ba0 f   Passenger.obj
 0001:00022d50       ?getPassenger@PassengerCollection@@QAEPAVPassenger@@XZ 00423d50 f   Passenger.obj
 0001:00022d70       ?getType@PassengerCollection@@QAEFXZ 00423d70 f   Passenger.obj
 0001:00022f30       ??$sqrt@H$0A@@@YANH@Z      00423f30 f i Passenger.obj
 0001:00022f50       ?drawForegroundPolygon@BaseEngine@@QAEXNNNNNNNNI@Z 00423f50 f i Passenger.obj
 0001:00023010       ?drawForegroundTriangle@BaseEngine@@QAEXHHHHHHI@Z 00424010 f i Passenger.obj
 0001:000230a0       ?getEngine@DisplayableObject@@QBEPAVBaseEngine@@XZ 004240a0 f i Passenger.obj
 0001:000230c0       ?setForegroundPixel@BaseEngine@@QAEXHHI@Z 004240c0 f i Passenger.obj
 0001:000230f0       ?setPixel@DrawingSurface@@QAEXHHI@Z 004240f0 f i Passenger.obj
 0001:00023160       ?virtInitialise@PauseState@@UAEHPAVScyyz12Engine2@@@Z 00424160 f   PauseState.obj
 0001:00023180       ?virtSetupBackgroundBuffer@PauseState@@UAEXPAVScyyz12Engine2@@@Z 00424180 f   PauseState.obj
 0001:00023240       ?virtDrawStringsOnTop@PauseState@@UAEXPAVScyyz12Engine2@@@Z 00424240 f   PauseState.obj
 0001:00023250       ?virtInitialiseObjects@PauseState@@UAEHPAVScyyz12Engine2@@@Z 00424250 f   PauseState.obj
 0001:00023260       ?virtMouseDown@PauseState@@UAEXPAVScyyz12Engine2@@HHH@Z 00424260 f   PauseState.obj
 0001:000232d0       ?virtMouseWheel@PauseState@@UAEXPAVScyyz12Engine2@@HHHH@Z 004242d0 f   PauseState.obj
 0001:00023300       ?virtMainLoopDoBeforeUpdate@PauseState@@UAEXPAVScyyz12Engine2@@@Z 00424300 f   PauseState.obj
 0001:00023320       ?copyAllBackgroundBuffer@PauseState@@UAEXPAVScyyz12Engine2@@@Z 00424320 f   PauseState.obj
 0001:00023340       ?virtKeyDown@PauseState@@UAEXPAVScyyz12Engine2@@H@Z 00424340 f   PauseState.obj
 0001:00023360       ?virtCreateSurfaces@PauseState@@UAEXPAVScyyz12Engine2@@@Z 00424360 f   PauseState.obj
 0001:00023400       ?virtDraw@RailLine@@UAEXXZ 00424400 f   Rail.obj
 0001:00023500       ?virtDraw@RailLineDiagonal@@UAEXXZ 00424500 f   Rail.obj
 0001:00023640       ?dist@RailLink90@@AAEHHHHH@Z 00424640 f   Rail.obj
 0001:00023690       ?virtDraw@RailLink90@@UAEXXZ 00424690 f   Rail.obj
 0001:000237f0       ?dist@RailLink90Diagonal@@AAEHHHHH@Z 004247f0 f   Rail.obj
 0001:00023840       ?virtDraw@RailLink90Diagonal@@UAEXXZ 00424840 f   Rail.obj
 0001:00023f80       ?drawForegroundThickLine@BaseEngine@@QAEXHHHHIH@Z 00424f80 f i Rail.obj
 0001:00023ff0       ?getState@Scyyz12Engine2@@QAEPAVState@@XZ 00424ff0 f   Scyyz12Engine2.obj
 0001:00024010       ?changeState@Scyyz12Engine2@@QAEXV?$basic_string@DU?$char_traits@D@std@@V?$allocator@D@2@@std@@@Z 00425010 f   Scyyz12Engine2.obj
 0001:00024140       ?setBackgourndSurface@Scyyz12Engine2@@QAEXPAVDrawingSurface@@@Z 00425140 f   Scyyz12Engine2.obj
 0001:00024160       ?getTheDefaultBackgroundSurface@Scyyz12Engine2@@QAEAAVDrawingSurface@@XZ 00425160 f   Scyyz12Engine2.obj
 0001:00024180       ?virtInitialise@Scyyz12Engine2@@UAEHXZ 00425180 f   Scyyz12Engine2.obj
 0001:000241b0       ?virtSetupBackgroundBuffer@Scyyz12Engine2@@UAEXXZ 004251b0 f   Scyyz12Engine2.obj
 0001:000241e0       ?virtDrawStringsOnTop@Scyyz12Engine2@@UAEXXZ 004251e0 f   Scyyz12Engine2.obj
 0001:00024210       ?virtInitialiseObjects@Scyyz12Engine2@@UAEHXZ 00425210 f   Scyyz12Engine2.obj
 0001:00024240       ?virtMouseDown@Scyyz12Engine2@@UAEXHHH@Z 00425240 f   Scyyz12Engine2.obj
 0001:00024280       ?virtMouseWheel@Scyyz12Engine2@@UAEXHHHH@Z 00425280 f   Scyyz12Engine2.obj
 0001:000242c0       ?virtMainLoopDoBeforeUpdate@Scyyz12Engine2@@UAEXXZ 004252c0 f   Scyyz12Engine2.obj
 0001:000242f0       ?copyAllBackgroundBuffer@Scyyz12Engine2@@UAEXXZ 004252f0 f   Scyyz12Engine2.obj
 0001:00024320       ?virtKeyDown@Scyyz12Engine2@@UAEXH@Z 00425320 f   Scyyz12Engine2.obj
 0001:00024350       ?virtCreateSurfaces@Scyyz12Engine2@@UAEXXZ 00425350 f   Scyyz12Engine2.obj
 0001:00024460       ??$?8DU?$char_traits@D@std@@V?$allocator@D@1@@std@@YA_NABV?$basic_string@DU?$char_traits@D@std@@V?$allocator@D@2@@0@0@Z 00425460 f i Scyyz12Engine2.obj
 0001:00024480       ??$?RV?$basic_string@DU?$char_traits@D@std@@V?$allocator@D@2@@std@@@?$_Uhash_compare@V?$basic_string@DU?$char_traits@D@std@@V?$allocator@D@2@@std@@U?$hash@V?$basic_string@DU?$char_traits@D@std@@V?$allocator@D@2@@std@@@2@U?$equal_to@V?$basic_string@DU?$char_traits@D@std@@V?$allocator@D@2@@std@@@2@@std@@QBEIABV?$basic_string@DU?$char_traits@D@std@@V?$allocator@D@2@@1@@Z 00425480 f i Scyyz12Engine2.obj
 0001:000244b0       ??$?RV?$basic_string@DU?$char_traits@D@std@@V?$allocator@D@2@@std@@V01@@?$_Uhash_compare@V?$basic_string@DU?$char_traits@D@std@@V?$allocator@D@2@@std@@U?$hash@V?$basic_string@DU?$char_traits@D@std@@V?$allocator@D@2@@std@@@2@U?$equal_to@V?$basic_string@DU?$char_traits@D@std@@V?$allocator@D@2@@std@@@2@@std@@QBE_NABV?$basic_string@DU?$char_traits@D@std@@V?$allocator@D@2@@1@0@Z 004254b0 f i Scyyz12Engine2.obj
 0001:00024500       ??$_Find_last@V?$basic_string@DU?$char_traits@D@std@@V?$allocator@D@2@@std@@@?$_Hash@V?$_Umap_traits@V?$basic_string@DU?$char_traits@D@std@@V?$allocator@D@2@@std@@PAVState@@V?$_Uhash_compare@V?$basic_string@DU?$char_traits@D@std@@V?$allocator@D@2@@std@@U?$hash@V?$basic_string@DU?$char_traits@D@std@@V?$allocator@D@2@@std@@@2@U?$equal_to@V?$basic_string@DU?$char_traits@D@std@@V?$allocator@D@2@@std@@@2@@2@V?$allocator@U?$pair@$$CBV?$basic_string@DU?$char_traits@D@std@@V?$allocator@D@2@@std@@PAVState@@@std@@@2@$0A@@std@@@std@@IBE?AU?$_Hash_find_last_result@PAU?$_List_node@U?$pair@$$CBV?$basic_string@DU?$char_traits@D@std@@V?$allocator@D@2@@std@@PAVState@@@std@@PAX@std@@@1@ABV?$basic_string@DU?$char_traits@D@std@@V?$allocator@D@2@@1@I@Z 00425500 f i Scyyz12Engine2.obj
 0001:00024600       ??$_Hash_array_representation@D@std@@YAIQBDI@Z 00425600 f i Scyyz12Engine2.obj
 0001:00024620       ??$_Kfn@$$CBV?$basic_string@DU?$char_traits@D@std@@V?$allocator@D@2@@std@@PAVState@@@?$_Umap_traits@V?$basic_string@DU?$char_traits@D@std@@V?$allocator@D@2@@std@@PAVState@@V?$_Uhash_compare@V?$basic_string@DU?$char_traits@D@std@@V?$allocator@D@2@@std@@U?$hash@V?$basic_string@DU?$char_traits@D@std@@V?$allocator@D@2@@std@@@2@U?$equal_to@V?$basic_string@DU?$char_traits@D@std@@V?$allocator@D@2@@std@@@2@@2@V?$allocator@U?$pair@$$CBV?$basic_string@DU?$char_traits@D@std@@V?$allocator@D@2@@std@@PAVState@@@std@@@2@$0A@@std@@SAABV?$basic_string@DU?$char_traits@D@std@@V?$allocator@D@2@@1@ABU?$pair@$$CBV?$basic_string@DU?$char_traits@D@std@@V?$allocator@D@2@@std@@PAVState@@@1@@Z 00425620 f i Scyyz12Engine2.obj
 0001:00024630       ??R?$equal_to@V?$basic_string@DU?$char_traits@D@std@@V?$allocator@D@2@@std@@@std@@QBE_NABV?$basic_string@DU?$char_traits@D@std@@V?$allocator@D@2@@1@0@Z 00425630 f i Scyyz12Engine2.obj
 0001:00024660       ??R?$hash@V?$basic_string@DU?$char_traits@D@std@@V?$allocator@D@2@@std@@@std@@QBEIABV?$basic_string@DU?$char_traits@D@std@@V?$allocator@D@2@@1@@Z 00425660 f i Scyyz12Engine2.obj
 0001:00024690       ?_Equal@?$basic_string@DU?$char_traits@D@std@@V?$allocator@D@2@@std@@QBE_NABV12@@Z 00425690 f i Scyyz12Engine2.obj
 0001:000246e0       ?_Fnv1a_append_bytes@std@@YAIIQBEI@Z 004256e0 f i Scyyz12Engine2.obj
 0001:00024730       ?_Get_first@?$_Compressed_pair@U?$equal_to@V?$basic_string@DU?$char_traits@D@std@@V?$allocator@D@2@@std@@@std@@M$00@std@@QBEABU?$equal_to@V?$basic_string@DU?$char_traits@D@std@@V?$allocator@D@2@@std@@@2@XZ 00425730 f i Scyyz12Engine2.obj
 0001:00024750       ?_Get_first@?$_Compressed_pair@U?$hash@V?$basic_string@DU?$char_traits@D@std@@V?$allocator@D@2@@std@@@std@@V?$_Compressed_pair@U?$equal_to@V?$basic_string@DU?$char_traits@D@std@@V?$allocator@D@2@@std@@@std@@M$00@2@$00@std@@QBEABU?$hash@V?$basic_string@DU?$char_traits@D@std@@V?$allocator@D@2@@std@@@2@XZ 00425750 f i Scyyz12Engine2.obj
 0001:00024770       ?at@?$unordered_map@V?$basic_string@DU?$char_traits@D@std@@V?$allocator@D@2@@std@@PAVState@@U?$hash@V?$basic_string@DU?$char_traits@D@std@@V?$allocator@D@2@@std@@@2@U?$equal_to@V?$basic_string@DU?$char_traits@D@std@@V?$allocator@D@2@@std@@@2@V?$allocator@U?$pair@$$CBV?$basic_string@DU?$char_traits@D@std@@V?$allocator@D@2@@std@@PAVState@@@std@@@2@@std@@QAEAAPAVState@@ABV?$basic_string@DU?$char_traits@D@std@@V?$allocator@D@2@@2@@Z 00425770 f i Scyyz12Engine2.obj
 0001:000247d0       ?lockAndSetupBackground@BaseEngine@@QAEXXZ 004257d0 f i Scyyz12Engine2.obj
 0001:00024810       ?lockBackgroundForDrawing@BaseEngine@@QAEXXZ 00425810 f i Scyyz12Engine2.obj
 0001:00024830       ?mySDLLockSurface@DrawingSurface@@QAEXXZ 00425830 f i Scyyz12Engine2.obj
 0001:00024880       ?mySDLUnlockSurface@DrawingSurface@@QAEXXZ 00425880 f i Scyyz12Engine2.obj
 0001:000248d0       ?unlockBackgroundForDrawing@BaseEngine@@QAEXXZ 004258d0 f i Scyyz12Engine2.obj
 0001:000248f0       ?virtDraw@Part1Object@@UAEXXZ 004258f0 f   Part1Object.obj
 0001:00024970       ?virtDoUpdate@Part1Object@@UAEXH@Z 00425970 f   Part1Object.obj
 0001:00024d60       ?setPosition@Part1Object@@UAEXHH@Z 00425d60 f   Part1Object.obj
 0001:00024d80       ?getSpeedX@Part1Object@@QAENXZ 00425d80 f   Part1Object.obj
 0001:00024da0       ?getSpeedY@Part1Object@@QAENXZ 00425da0 f   Part1Object.obj
 0001:00024dc0       ?virtDraw@Part1Object2@@UAEXXZ 00425dc0 f   Part1Object.obj
 0001:00024ef0       ?virtDoUpdate@Part1Object2@@UAEXH@Z 00425ef0 f   Part1Object.obj
 0001:000250d0       ?getDirection@Part1Object2@@QAE_NXZ 004260d0 f   Part1Object.obj
 0001:000252e0       ??A?$vector@PAVDisplayableObject@@V?$allocator@PAVDisplayableObject@@@std@@@std@@QBEABQAVDisplayableObject@@I@Z 004262e0 f i Part1Object.obj
 0001:00025390       ?checkCircles@CollisionDetection@@SA_NHHHHH@Z 00426390 f i Part1Object.obj
 0001:000253f0       ?getDisplayableObject@DisplayableObjectContainer@@QBEPAVDisplayableObject@@H@Z 004263f0 f i Part1Object.obj
 0001:00025430       ?getDrawWidth@DisplayableObject@@QBEHXZ 00426430 f i Part1Object.obj
 0001:00025450       ?getMapValue@TileManager@@QBEHHH@Z 00426450 f i Part1Object.obj
 0001:00025480       ?getMapXForScreenX@TileManager@@QBEHH@Z 00426480 f i Part1Object.obj
 0001:000254b0       ?getMapYForScreenY@TileManager@@QBEHH@Z 004264b0 f i Part1Object.obj
 0001:000254e0       ?getTileHeight@TileManager@@QBEHXZ 004264e0 f i Part1Object.obj
 0001:00025500       ?getTileWidth@TileManager@@QBEHXZ 00426500 f i Part1Object.obj
 0001:00025520       ?getXCentre@DisplayableObject@@QBEHXZ 00426520 f i Part1Object.obj
 0001:00025550       ?getYCentre@DisplayableObject@@QBEHXZ 00426550 f i Part1Object.obj
 0001:00025580       ?isValidTilePosition@TileManager@@QBE_NHH@Z 00426580 f i Part1Object.obj
 0001:00025610       ?setAndRedrawMapValueAt@TileManager@@QAEXHHHPAVBaseEngine@@PAVDrawingSurface@@@Z 00426610 f i Part1Object.obj
 0001:000256b0       ?setMapValue@TileManager@@QAEHHHH@Z 004266b0 f i Part1Object.obj
 0001:000256f0       ?size@?$vector@PAVDisplayableObject@@V?$allocator@PAVDisplayableObject@@@std@@@std@@QBEIXZ 004266f0 f i Part1Object.obj
 0001:00025720       ?virtSetupBackgroundBuffer@DraggingDemo@@UAEXXZ 00426720 f   DraggingDemo.obj
 0001:00025860       ?virtInitialiseObjects@DraggingDemo@@UAEHXZ 00426860 f   DraggingDemo.obj
 0001:00025ab0       ?virtKeyDown@DraggingDemo@@UAEXH@Z 00426ab0 f   DraggingDemo.obj
 0001:00025bd0       ??0DragableBaseClassObject@@QAE@HHPAVBaseEngine@@HH_N@Z 00426bd0 f i DraggingDemo.obj
 0001:00025c60       ??0DragableBaseClassObject@@QAE@PAVBaseEngine@@HH_N@Z 00426c60 f i DraggingDemo.obj
 0001:00025ce0       ??0DragableImageObject@@QAE@HHPAVBaseEngine@@V?$basic_string@DU?$char_traits@D@std@@V?$allocator@D@2@@std@@_N2@Z 00426ce0 f i DraggingDemo.obj
 0001:00025e80       ??0DragableObject@@QAE@HHPAVBaseEngine@@HH_N1@Z 00426e80 f i DraggingDemo.obj
 0001:00025f30       ??0DragableObject@@QAE@PAVBaseEngine@@HH_N1@Z 00426f30 f i DraggingDemo.obj
 0001:00025fe0       ??0ImageObject@@QAE@HHPAVBaseEngine@@V?$basic_string@DU?$char_traits@D@std@@V?$allocator@D@2@@std@@_N2@Z 00426fe0 f i DraggingDemo.obj
 0001:00026170       ??1DragableBaseClassObject@@UAE@XZ 00427170 f i DraggingDemo.obj
 0001:00026190       ??1DragableImageObject@@UAE@XZ 00427190 f i DraggingDemo.obj
 0001:000261c0       ??1DragableObject@@UAE@XZ  004271c0 f i DraggingDemo.obj
 0001:000261e0       ??1ImageObject@@UAE@XZ     004271e0 f i DraggingDemo.obj
 0001:00026210       ??_GDragableBaseClassObject@@UAEPAXI@Z 00427210 f i DraggingDemo.obj
 0001:00026210       ??_EDragableBaseClassObject@@UAEPAXI@Z 00427210 f i DraggingDemo.obj
 0001:00026250       ??_EDragableImageObject@@UAEPAXI@Z 00427250 f i DraggingDemo.obj
 0001:00026250       ??_GDragableImageObject@@UAEPAXI@Z 00427250 f i DraggingDemo.obj
 0001:00026290       ??_EDragableObject@@UAEPAXI@Z 00427290 f i DraggingDemo.obj
 0001:00026290       ??_GDragableObject@@UAEPAXI@Z 00427290 f i DraggingDemo.obj
 0001:000262d0       ??_GImageObject@@UAEPAXI@Z 004272d0 f i DraggingDemo.obj
 0001:000262d0       ??_EImageObject@@UAEPAXI@Z 004272d0 f i DraggingDemo.obj
 0001:00026310       ?checkDoDrag@DragableBaseClassObject@@UAEXHH@Z 00427310 f i DraggingDemo.obj
 0001:00026390       ?checkFinishDrag@DragableBaseClassObject@@UAEXHH@Z 00427390 f i DraggingDemo.obj
 0001:000263d0       ?checkStartDrag@DragableBaseClassObject@@UAEXHH@Z 004273d0 f i DraggingDemo.obj
 0001:00026450       ?doDragRedraw@DragableBaseClassObject@@UAEXXZ 00427450 f i DraggingDemo.obj
 0001:00026470       ?isVisible@DisplayableObject@@QBE_NXZ 00427470 f i DraggingDemo.obj
 0001:00026490       ?notifyObjectsAboutMouse@BaseEngine@@QAEX_N@Z 00427490 f i DraggingDemo.obj
 0001:000264b0       ?setBackgroundPixel@BaseEngine@@QAEXHHI@Z 004274b0 f i DraggingDemo.obj
 0001:000264e0       ?setExitWithCode@BaseEngine@@QAEXH@Z 004274e0 f i DraggingDemo.obj
 0001:00026500       ?setVisible@DisplayableObject@@QAEX_N@Z 00427500 f i DraggingDemo.obj
 0001:00026520       ?virtDraw@DragableImageObject@@UAEXXZ 00427520 f i DraggingDemo.obj
 0001:000265a0       ?virtDraw@ImageObject@@UAEXXZ 004275a0 f i DraggingDemo.obj
 0001:00026620       ?virtMouseDown@DragableImageObject@@UAEXHHH@Z 00427620 f i DraggingDemo.obj
 0001:00026650       ?virtMouseDown@DragableObject@@UAEXHHH@Z 00427650 f i DraggingDemo.obj
 0001:00026680       ?virtMouseMoved@DragableImageObject@@UAEXHH@Z 00427680 f i DraggingDemo.obj
 0001:000266b0       ?virtMouseMoved@DragableObject@@UAEXHH@Z 004276b0 f i DraggingDemo.obj
 0001:000266e0       ?virtMouseUp@DragableImageObject@@UAEXHHH@Z 004276e0 f i DraggingDemo.obj
 0001:00026710       ?virtMouseUp@DragableObject@@UAEXHHH@Z 00427710 f i DraggingDemo.obj
 0001:00026750       ??0DrawingSurface@@QAE@PAVBaseEngine@@@Z 00427750 f   DrawingSurface.obj
 0001:000267f0       ?drawLine@DrawingSurface@@QAEXNNNNI@Z 004277f0 f   DrawingSurface.obj
 0001:000269d0       ?drawThickLine@DrawingSurface@@QAEXNNNNIH@Z 004279d0 f   DrawingSurface.obj
 0001:00026e70       ?drawVerticalSidedRegion@DrawingSurface@@QAEXNNNNNNI@Z 00427e70 f   DrawingSurface.obj
 0001:00027210       ?drawRectangle@DrawingSurface@@QAEXHHHHI@Z 00428210 f   DrawingSurface.obj
 0001:00027320       ?drawOval@DrawingSurface@@QAEXHHHHI@Z 00428320 f   DrawingSurface.obj
 0001:000274f0       ?rawDrawOval@DrawingSurface@@QAEXHHHHI@Z 004284f0 f   DrawingSurface.obj
 0001:00027650       ?drawHollowOval@DrawingSurface@@QAEXHHHHHHHHI@Z 00428650 f   DrawingSurface.obj
 0001:00027970       ?drawPolygon@DrawingSurface@@QAEXHPAN0I@Z 00428970 f   DrawingSurface.obj
 0001:000280f0       ?drawFastString@DrawingSurface@@QAEXHHPBDIPAVFont@@@Z 004290f0 f   DrawingSurface.obj
 0001:000281e0       ?drawScalableString@DrawingSurface@@QAEXHHPBDIPAVFont@@@Z 004291e0 f   DrawingSurface.obj
 0001:000283b0       ?drawShortenedArrow@DrawingSurface@@QAEXHHHHHHIHH@Z 004293b0 f   DrawingSurface.obj
 0001:00028930       ?drawShortenedLine@DrawingSurface@@QAEXHHHHHHIH@Z 00429930 f   DrawingSurface.obj
 0001:00028d30       ?drawTriangle@DrawingSurface@@QAEXNNNNNNI@Z 00429d30 f   DrawingSurface.obj
 0001:00029080       ?copyEntireSurface@DrawingSurface@@QAEXPAV1@@Z 0042a080 f   DrawingSurface.obj
 0001:000290d0       ?copyRectangleFrom@DrawingSurface@@QAEXPAV1@HHHHHH@Z 0042a0d0 f   DrawingSurface.obj
 0001:000292d0       ?getAngle@DrawingSurface@@SANNNNN@Z 0042a2d0 f   DrawingSurface.obj
 0001:00029370       ?getVirtualRedrawMinX@DrawingSurface@@QAEHXZ 0042a370 f   DrawingSurface.obj
 0001:000293c0       ?getVirtualRedrawMinY@DrawingSurface@@QAEHXZ 0042a3c0 f   DrawingSurface.obj
 0001:00029410       ?getVirtualRedrawMaxX@DrawingSurface@@QAEHXZ 0042a410 f   DrawingSurface.obj
 0001:00029470       ?getVirtualRedrawMaxY@DrawingSurface@@QAEHXZ 0042a470 f   DrawingSurface.obj
 0001:000294d0       ?getRealRedrawMinX@DrawingSurface@@QAEHXZ 0042a4d0 f   DrawingSurface.obj
 0001:00029520       ?getRealRedrawMinY@DrawingSurface@@QAEHXZ 0042a520 f   DrawingSurface.obj
 0001:00029570       ?getRealRedrawMaxX@DrawingSurface@@QAEHXZ 0042a570 f   DrawingSurface.obj
 0001:000295c0       ?getRealRedrawMaxY@DrawingSurface@@QAEHXZ 0042a5c0 f   DrawingSurface.obj
 0001:0002a1c0       ??$move@AAN@std@@YA$$QANAAN@Z 0042b1c0 f i DrawingSurface.obj
 0001:0002a1d0       ??$swap@H$0A@@std@@YAXAAH0@Z 0042b1d0 f i DrawingSurface.obj
 0001:0002a220       ??$swap@N$0A@@std@@YAXAAN0@Z 0042b220 f i DrawingSurface.obj
 0001:0002a280       ?checkBlitable@DrawingSurface@@QAEXXZ 0042b280 f i DrawingSurface.obj
 0001:0002a2d0       ?getDefaultFont@BaseEngine@@QBEPAVFont@@XZ 0042b2d0 f i DrawingSurface.obj
 0001:0002a2f0       ?getRedrawAllScreen@BaseEngine@@QAEHXZ 0042b2f0 f i DrawingSurface.obj
 0001:0002a310       ?getRedrawRectRealBottom@BaseEngine@@QAEHXZ 0042b310 f i DrawingSurface.obj
 0001:0002a330       ?getRedrawRectRealLeft@BaseEngine@@QAEHXZ 0042b330 f i DrawingSurface.obj
 0001:0002a350       ?getRedrawRectRealRight@BaseEngine@@QAEHXZ 0042b350 f i DrawingSurface.obj
 0001:0002a370       ?getRedrawRectRealTop@BaseEngine@@QAEHXZ 0042b370 f i DrawingSurface.obj
 0001:0002a390       ?getRedrawRectVirtualBottom@BaseEngine@@QAEHXZ 0042b390 f i DrawingSurface.obj
 0001:0002a3b0       ?getRedrawRectVirtualLeft@BaseEngine@@QAEHXZ 0042b3b0 f i DrawingSurface.obj
 0001:0002a3d0       ?getRedrawRectVirtualRight@BaseEngine@@QAEHXZ 0042b3d0 f i DrawingSurface.obj
 0001:0002a3f0       ?getRedrawRectVirtualTop@BaseEngine@@QAEHXZ 0042b3f0 f i DrawingSurface.obj
 0001:0002a410       ?getTTFFont@Font@@QAEPAU_TTF_Font@@XZ 0042b410 f i DrawingSurface.obj
 0001:0002a430       ?mySDLTempRelockSurface@DrawingSurface@@QAEXXZ 0042b430 f i DrawingSurface.obj
 0001:0002a480       ?mySDLTempUnlockSurface@DrawingSurface@@QAEXXZ 0042b480 f i DrawingSurface.obj
 0001:0002a4d0       ??0FlashingDemo@@QAE@XZ    0042b4d0 f   FlashingDemo.obj
 0001:0002a590       ??1FlashingDemo@@UAE@XZ    0042b590 f   FlashingDemo.obj
 0001:0002a5e0       ?virtSetupBackgroundBuffer@FlashingDemo@@UAEXXZ 0042b5e0 f   FlashingDemo.obj
 0001:0002aa60       ?virtMainLoopDoBeforeUpdate@FlashingDemo@@UAEXXZ 0042ba60 f   FlashingDemo.obj
 0001:0002ab20       ?virtCreateSurfaces@FlashingDemo@@UAEXXZ 0042bb20 f   FlashingDemo.obj
 0001:0002ad40       ??1DrawingSurface@@QAE@XZ  0042bd40 f i FlashingDemo.obj
 0001:0002ad50       ??_GFlashingDemo@@UAEPAXI@Z 0042bd50 f i FlashingDemo.obj
 0001:0002ad50       ??_EFlashingDemo@@UAEPAXI@Z 0042bd50 f i FlashingDemo.obj
 0001:0002ad90       ?copyBackgroundPixels@BaseEngine@@UAEXHHHH@Z 0042bd90 f i FlashingDemo.obj
 0001:0002ade0       ?createSurface@DrawingSurface@@QAEXHH@Z 0042bde0 f i FlashingDemo.obj
 0001:0002ae30       ?destroyOldObjects@DisplayableObjectContainer@@UAEX_N@Z 0042be30 f i FlashingDemo.obj
 0001:0002af20       ?fillBackground@BaseEngine@@UAEXI@Z 0042bf20 f i FlashingDemo.obj
 0001:0002af50       ?fillSurface@DrawingSurface@@QAEXI@Z 0042bf50 f i FlashingDemo.obj
 0001:0002afe0       ?filter@BaseEngine@@UAE_NPAVDrawingSurface@@AAH1AAI@Z 0042bfe0 f i FlashingDemo.obj
 0001:0002b0a0       ?getModifiedTime@BaseEngine@@UBEHXZ 0042c0a0 f i FlashingDemo.obj
 0001:0002b0e0       ?virtBackgroundMouseDown@BaseEngine@@UAEXHHHHH@Z 0042c0e0 f i FlashingDemo.obj
 0001:0002b0f0       ?virtMainLoopDoAfterUpdate@BaseEngine@@UAEXXZ 0042c0f0 f i FlashingDemo.obj
 0001:0002b100       ?virtMainLoopPostUpdate@BaseEngine@@UAEXXZ 0042c100 f i FlashingDemo.obj
 0001:0002b110       ?virtMainLoopPreUpdate@BaseEngine@@UAEXXZ 0042c110 f i FlashingDemo.obj
 0001:0002b120       ?virtMainLoopStartIteration@BaseEngine@@UAEXXZ 0042c120 f i FlashingDemo.obj
 0001:0002b130       ?virtPostDraw@BaseEngine@@UAEXXZ 0042c130 f i FlashingDemo.obj
 0001:0002b140       ?virtPreDraw@BaseEngine@@UAEXXZ 0042c140 f i FlashingDemo.obj
 0001:0002b150       ?virtRealMouseDown@BaseEngine@@UAEXHHH@Z 0042c150 f i FlashingDemo.obj
 0001:0002b160       ?virtRealMouseUp@BaseEngine@@UAEXHHH@Z 0042c160 f i FlashingDemo.obj
 0001:0002b170       ?virtTouchEvent@BaseEngine@@UAEXHH_J0MMMMM@Z 0042c170 f i FlashingDemo.obj
 0001:0002b180       ?virtSetupBackgroundBuffer@ImageMappingDemo@@UAEXXZ 0042c180 f   ImageMappingDemo.obj
 0001:0002b280       ?virtInitialiseObjects@ImageMappingDemo@@UAEHXZ 0042c280 f   ImageMappingDemo.obj
 0001:0002b5f0       ?virtKeyDown@ImageMappingDemo@@UAEXH@Z 0042c5f0 f   ImageMappingDemo.obj
 0001:0002b620       ?virtMainLoopDoBeforeUpdate@ImageMappingDemo@@UAEXXZ 0042c620 f   ImageMappingDemo.obj
 0001:0002b6b0       ?mapCoordinates@ImageMappingDemo@@UAE_NAAN0ABVSimpleImage@@@Z 0042c6b0 f   ImageMappingDemo.obj
 0001:0002bb20       ??0MappableImageObject@@QAE@PAVImagePixelMapping@@HHPAVBaseEngine@@V?$basic_string@DU?$char_traits@D@std@@V?$allocator@D@2@@std@@_N3@Z 0042cb20 f i ImageMappingDemo.obj
 0001:0002bbe0       ??1MappableImageObject@@UAE@XZ 0042cbe0 f i ImageMappingDemo.obj
 0001:0002bc00       ??_GMappableImageObject@@UAEPAXI@Z 0042cc00 f i ImageMappingDemo.obj
 0001:0002bc00       ??_EMappableImageObject@@UAEPAXI@Z 0042cc00 f i ImageMappingDemo.obj
 0001:0002bc40       ?getPixelColour@MappableImageObject@@QAEHHH@Z 0042cc40 f i ImageMappingDemo.obj
 0001:0002bc70       ?getPixelColour@SimpleImage@@QBEHHH@Z 0042cc70 f i ImageMappingDemo.obj
 0001:0002bca0       ?getRawPixelColour@RawImageData@@QBEHHH@Z 0042cca0 f i ImageMappingDemo.obj
 0001:0002bcf0       ?getTheData@SimpleImage@@QBEABV?$shared_ptr@VRawImageData@@@std@@XZ 0042ccf0 f i ImageMappingDemo.obj
 0001:0002bd10       ?setOpaque@RawImageData@@QAEXXZ 0042cd10 f i ImageMappingDemo.obj
 0001:0002bd80       ?setTransparencyColour@MappableImageObject@@QAEXH@Z 0042cd80 f i ImageMappingDemo.obj
 0001:0002bdb0       ?setTransparencyColour@SimpleImage@@QAEXH@Z 0042cdb0 f i ImageMappingDemo.obj
 0001:0002be20       ?setTransparentColour@RawImageData@@QAEXI@Z 0042ce20 f i ImageMappingDemo.obj
 0001:0002bf40       ?setXShift@ImagePixelMappingShiftXY@@QAEXN@Z 0042cf40 f i ImageMappingDemo.obj
 0001:0002bf60       ?setYShift@ImagePixelMappingShiftXY@@QAEXN@Z 0042cf60 f i ImageMappingDemo.obj
 0001:0002bf80       ?virtDraw@MappableImageObject@@UAEXXZ 0042cf80 f i ImageMappingDemo.obj
 0001:0002c010       _SDL_main                  0042d010 f   mainfunction.obj
 0001:0002c070       ?doProgram@@YAHHQAPAD@Z    0042d070 f   mainfunction.obj
 0001:0002c880       ??$?0$$V@?$_Compressed_pair@V?$allocator@PAVStationCollection@@@std@@V?$_Vector_val@U?$_Simple_types@PAVStationCollection@@@std@@@2@$00@std@@QAE@U_Zero_then_variadic_args_t@1@@Z 0042d880 f i mainfunction.obj
 0001:0002c8b0       ??$?0AAY05$$CBDAAPAVState@@$0A@@?$pair@$$CBV?$basic_string@DU?$char_traits@D@std@@V?$allocator@D@2@@std@@PAVState@@@std@@QAE@AAY05$$CBDAAPAVState@@@Z 0042d8b0 f i mainfunction.obj
 0001:0002c900       ??$?0AAY05$$CBDAAPAVState@@@?$_List_node_emplace_op2@V?$allocator@U?$_List_node@U?$pair@$$CBV?$basic_string@DU?$char_traits@D@std@@V?$allocator@D@2@@std@@PAVState@@@std@@PAX@std@@@std@@@std@@QAE@AAV?$allocator@U?$_List_node@U?$pair@$$CBV?$basic_string@DU?$char_traits@D@std@@V?$allocator@D@2@@std@@PAVState@@@std@@PAX@std@@@1@AAY05$$CBDAAPAVState@@@Z 0042d900 f i mainfunction.obj
 0001:0002c9c0       ??$?0AAY06$$CBDAAPAVState@@$0A@@?$pair@$$CBV?$basic_string@DU?$char_traits@D@std@@V?$allocator@D@2@@std@@PAVState@@@std@@QAE@AAY06$$CBDAAPAVState@@@Z 0042d9c0 f i mainfunction.obj
 0001:0002ca10       ??$?0AAY06$$CBDAAPAVState@@@?$_List_node_emplace_op2@V?$allocator@U?$_List_node@U?$pair@$$CBV?$basic_string@DU?$char_traits@D@std@@V?$allocator@D@2@@std@@PAVState@@@std@@PAX@std@@@std@@@std@@QAE@AAV?$allocator@U?$_List_node@U?$pair@$$CBV?$basic_string@DU?$char_traits@D@std@@V?$allocator@D@2@@std@@PAVState@@@std@@PAX@std@@@1@AAY06$$CBDAAPAVState@@@Z 0042da10 f i mainfunction.obj
 0001:0002cad0       ??$?0AAY09$$CBDAAPAVState@@$0A@@?$pair@$$CBV?$basic_string@DU?$char_traits@D@std@@V?$allocator@D@2@@std@@PAVState@@@std@@QAE@AAY09$$CBDAAPAVState@@@Z 0042dad0 f i mainfunction.obj
 0001:0002cb20       ??$?0AAY09$$CBDAAPAVState@@@?$_List_node_emplace_op2@V?$allocator@U?$_List_node@U?$pair@$$CBV?$basic_string@DU?$char_traits@D@std@@V?$allocator@D@2@@std@@PAVState@@@std@@PAX@std@@@std@@@std@@QAE@AAV?$allocator@U?$_List_node@U?$pair@$$CBV?$basic_string@DU?$char_traits@D@std@@V?$allocator@D@2@@std@@PAVState@@@std@@PAX@std@@@1@AAY09$$CBDAAPAVState@@@Z 0042db20 f i mainfunction.obj
 0001:0002cbe0       ??$?0AAY0L@$$CBDAAPAVState@@$0A@@?$pair@$$CBV?$basic_string@DU?$char_traits@D@std@@V?$allocator@D@2@@std@@PAVState@@@std@@QAE@AAY0L@$$CBDAAPAVState@@@Z 0042dbe0 f i mainfunction.obj
 0001:0002cc30       ??$?0AAY0L@$$CBDAAPAVState@@@?$_List_node_emplace_op2@V?$allocator@U?$_List_node@U?$pair@$$CBV?$basic_string@DU?$char_traits@D@std@@V?$allocator@D@2@@std@@PAVState@@@std@@PAX@std@@@std@@@std@@QAE@AAV?$allocator@U?$_List_node@U?$pair@$$CBV?$basic_string@DU?$char_traits@D@std@@V?$allocator@D@2@@std@@PAVState@@@std@@PAX@std@@@1@AAY0L@$$CBDAAPAVState@@@Z 0042dc30 f i mainfunction.obj
 0001:0002ccf0       ??$?0AAY0M@$$CBDAAPAVState@@$0A@@?$pair@$$CBV?$basic_string@DU?$char_traits@D@std@@V?$allocator@D@2@@std@@PAVState@@@std@@QAE@AAY0M@$$CBDAAPAVState@@@Z 0042dcf0 f i mainfunction.obj
 0001:0002cd40       ??$?0AAY0M@$$CBDAAPAVState@@@?$_List_node_emplace_op2@V?$allocator@U?$_List_node@U?$pair@$$CBV?$basic_string@DU?$char_traits@D@std@@V?$allocator@D@2@@std@@PAVState@@@std@@PAX@std@@@std@@@std@@QAE@AAV?$allocator@U?$_List_node@U?$pair@$$CBV?$basic_string@DU?$char_traits@D@std@@V?$allocator@D@2@@std@@PAVState@@@std@@PAX@std@@@1@AAY0M@$$CBDAAPAVState@@@Z 0042dd40 f i mainfunction.obj
 0001:0002ce00       ??$?0AAY0N@$$CBDAAPAVState@@$0A@@?$pair@$$CBV?$basic_string@DU?$char_traits@D@std@@V?$allocator@D@2@@std@@PAVState@@@std@@QAE@AAY0N@$$CBDAAPAVState@@@Z 0042de00 f i mainfunction.obj
 0001:0002ce50       ??$?0AAY0N@$$CBDAAPAVState@@@?$_List_node_emplace_op2@V?$allocator@U?$_List_node@U?$pair@$$CBV?$basic_string@DU?$char_traits@D@std@@V?$allocator@D@2@@std@@PAVState@@@std@@PAX@std@@@std@@@std@@QAE@AAV?$allocator@U?$_List_node@U?$pair@$$CBV?$basic_string@DU?$char_traits@D@std@@V?$allocator@D@2@@std@@PAVState@@@std@@PAX@std@@@1@AAY0N@$$CBDAAPAVState@@@Z 0042de50 f i mainfunction.obj
 0001:0002cf10       ??$?0ABU?$pair@$$CBV?$basic_string@DU?$char_traits@D@std@@V?$allocator@D@2@@std@@PAVState@@@std@@@?$_List_node_emplace_op2@V?$allocator@U?$_List_node@U?$pair@$$CBV?$basic_string@DU?$char_traits@D@std@@V?$allocator@D@2@@std@@PAVState@@@std@@PAX@std@@@std@@@std@@QAE@AAV?$allocator@U?$_List_node@U?$pair@$$CBV?$basic_string@DU?$char_traits@D@std@@V?$allocator@D@2@@std@@PAVState@@@std@@PAX@std@@@1@ABU?$pair@$$CBV?$basic_string@DU?$char_traits@D@std@@V?$allocator@D@2@@std@@PAVState@@@1@@Z 0042df10 f i mainfunction.obj
 0001:0002cfc0       ??$?0ABV?$allocator@U?$_List_node@U?$pair@$$CBV?$basic_string@DU?$char_traits@D@std@@V?$allocator@D@2@@std@@PAVState@@@std@@PAX@std@@@std@@$$V@?$_Compressed_pair@V?$allocator@V?$_List_unchecked_iterator@V?$_List_val@U?$_List_simple_types@U?$pair@$$CBV?$basic_string@DU?$char_traits@D@std@@V?$allocator@D@2@@std@@PAVState@@@std@@@std@@@std@@@std@@@std@@V?$_Vector_val@U?$_Simple_types@V?$_List_unchecked_iterator@V?$_List_val@U?$_List_simple_types@U?$pair@$$CBV?$basic_string@DU?$char_traits@D@std@@V?$allocator@D@2@@std@@PAVState@@@std@@@std@@@std@@@std@@@std@@@2@$00@std@@QAE@U_One_then_variadic_args_t@1@ABV?$allocator@U?$_List_node@U?$pair@$$CBV?$basic_string@DU?$char_traits@D@std@@V?$allocator@D@2@@std@@PAVState@@@std@@PAX@std@@@1@@Z 0042dfc0 f i mainfunction.obj
 0001:0002d000       ??$?0ABV?$allocator@U?$_List_node@U?$pair@$$CBV?$basic_string@DU?$char_traits@D@std@@V?$allocator@D@2@@std@@PAVState@@@std@@PAX@std@@@std@@$0A@@?$_Hash_vec@V?$allocator@V?$_List_unchecked_iterator@V?$_List_val@U?$_List_simple_types@U?$pair@$$CBV?$basic_string@DU?$char_traits@D@std@@V?$allocator@D@2@@std@@PAVState@@@std@@@std@@@std@@@std@@@std@@@std@@QAE@ABV?$allocator@U?$_List_node@U?$pair@$$CBV?$basic_string@DU?$char_traits@D@std@@V?$allocator@D@2@@std@@PAVState@@@std@@PAX@std@@@1@@Z 0042e000 f i mainfunction.obj
 0001:0002d0a0       ??$?0ABV?$allocator@U?$pair@$$CBV?$basic_string@DU?$char_traits@D@std@@V?$allocator@D@2@@std@@PAVState@@@std@@@std@@$$V@?$_Compressed_pair@V?$allocator@U?$_List_node@U?$pair@$$CBV?$basic_string@DU?$char_traits@D@std@@V?$allocator@D@2@@std@@PAVState@@@std@@PAX@std@@@std@@V?$_List_val@U?$_List_simple_types@U?$pair@$$CBV?$basic_string@DU?$char_traits@D@std@@V?$allocator@D@2@@std@@PAVState@@@std@@@std@@@2@$00@std@@QAE@U_One_then_variadic_args_t@1@ABV?$allocator@U?$pair@$$CBV?$basic_string@DU?$char_traits@D@std@@V?$allocator@D@2@@std@@PAVState@@@std@@@1@@Z 0042e0a0 f i mainfunction.obj
 0001:0002d0e0       ??$?0ABV?$allocator@U?$pair@$$CBV?$basic_string@DU?$char_traits@D@std@@V?$allocator@D@2@@std@@PAVState@@@std@@@std@@$$V@?$_Compressed_pair@V?$allocator@V?$_List_unchecked_iterator@V?$_List_val@U?$_List_simple_types@U?$pair@$$CBV?$basic_string@DU?$char_traits@D@std@@V?$allocator@D@2@@std@@PAVState@@@std@@@std@@@std@@@std@@@std@@V?$_Vector_val@U?$_Simple_types@V?$_List_unchecked_iterator@V?$_List_val@U?$_List_simple_types@U?$pair@$$CBV?$basic_string@DU?$char_traits@D@std@@V?$allocator@D@2@@std@@PAVState@@@std@@@std@@@std@@@std@@@std@@@2@$00@std@@QAE@U_One_then_variadic_args_t@1@ABV?$allocator@U?$pair@$$CBV?$basic_string@DU?$char_traits@D@std@@V?$allocator@D@2@@std@@PAVState@@@std@@@1@@Z 0042e0e0 f i mainfunction.obj
 0001:0002d120       ??$?0ABV?$allocator@U?$pair@$$CBV?$basic_string@DU?$char_traits@D@std@@V?$allocator@D@2@@std@@PAVState@@@std@@@std@@$0A@@?$_Hash_vec@V?$allocator@V?$_List_unchecked_iterator@V?$_List_val@U?$_List_simple_types@U?$pair@$$CBV?$basic_string@DU?$char_traits@D@std@@V?$allocator@D@2@@std@@PAVState@@@std@@@std@@@std@@@std@@@std@@@std@@QAE@ABV?$allocator@U?$pair@$$CBV?$basic_string@DU?$char_traits@D@std@@V?$allocator@D@2@@std@@PAVState@@@std@@@1@@Z 0042e120 f i mainfunction.obj
 0001:0002d1c0       ??$?0M@?$_Compressed_pair@U?$equal_to@V?$basic_string@DU?$char_traits@D@std@@V?$allocator@D@2@@std@@@std@@M$00@std@@QAE@U_Zero_then_variadic_args_t@1@$$QAM@Z 0042e1c0 f i mainfunction.obj
 0001:0002d1f0       ??$?0PAVStationCollection@@@?$allocator@U_Container_proxy@std@@@std@@QAE@ABV?$allocator@PAVStationCollection@@@1@@Z 0042e1f0 f i mainfunction.obj
 0001:0002d210       ??$?0U?$_List_node@U?$pair@$$CBV?$basic_string@DU?$char_traits@D@std@@V?$allocator@D@2@@std@@PAVState@@@std@@PAX@std@@@?$allocator@U?$pair@$$CBV?$basic_string@DU?$char_traits@D@std@@V?$allocator@D@2@@std@@PAVState@@@std@@@std@@QAE@ABV?$allocator@U?$_List_node@U?$pair@$$CBV?$basic_string@DU?$char_traits@D@std@@V?$allocator@D@2@@std@@PAVState@@@std@@PAX@std@@@1@@Z 0042e210 f i mainfunction.obj
 0001:0002d230       ??$?0U?$_List_node@U?$pair@$$CBV?$basic_string@DU?$char_traits@D@std@@V?$allocator@D@2@@std@@PAVState@@@std@@PAX@std@@@?$allocator@U_Container_proxy@std@@@std@@QAE@ABV?$allocator@U?$_List_node@U?$pair@$$CBV?$basic_string@DU?$char_traits@D@std@@V?$allocator@D@2@@std@@PAVState@@@std@@PAX@std@@@1@@Z 0042e230 f i mainfunction.obj
 0001:0002d250       ??$?0U?$_List_node@U?$pair@$$CBV?$basic_string@DU?$char_traits@D@std@@V?$allocator@D@2@@std@@PAVState@@@std@@PAX@std@@@?$allocator@V?$_List_unchecked_iterator@V?$_List_val@U?$_List_simple_types@U?$pair@$$CBV?$basic_string@DU?$char_traits@D@std@@V?$allocator@D@2@@std@@PAVState@@@std@@@std@@@std@@@std@@@std@@QAE@ABV?$allocator@U?$_List_node@U?$pair@$$CBV?$basic_string@DU?$char_traits@D@std@@V?$allocator@D@2@@std@@PAVState@@@std@@PAX@std@@@1@@Z 0042e250 f i mainfunction.obj
 0001:0002d270       ??$?0U?$pair@$$CBV?$basic_string@DU?$char_traits@D@std@@V?$allocator@D@2@@std@@PAVState@@@std@@@?$allocator@U?$_List_node@U?$pair@$$CBV?$basic_string@DU?$char_traits@D@std@@V?$allocator@D@2@@std@@PAVState@@@std@@PAX@std@@@std@@QAE@ABV?$allocator@U?$pair@$$CBV?$basic_string@DU?$char_traits@D@std@@V?$allocator@D@2@@std@@PAVState@@@std@@@1@@Z 0042e270 f i mainfunction.obj
 0001:0002d290       ??$?0U?$pair@$$CBV?$basic_string@DU?$char_traits@D@std@@V?$allocator@D@2@@std@@PAVState@@@std@@@?$allocator@V?$_List_unchecked_iterator@V?$_List_val@U?$_List_simple_types@U?$pair@$$CBV?$basic_string@DU?$char_traits@D@std@@V?$allocator@D@2@@std@@PAVState@@@std@@@std@@@std@@@std@@@std@@QAE@ABV?$allocator@U?$pair@$$CBV?$basic_string@DU?$char_traits@D@std@@V?$allocator@D@2@@std@@PAVState@@@std@@@1@@Z 0042e290 f i mainfunction.obj
 0001:0002d2b0       ??$?0U_Zero_then_variadic_args_t@std@@M@?$_Compressed_pair@U?$hash@V?$basic_string@DU?$char_traits@D@std@@V?$allocator@D@2@@std@@@std@@V?$_Compressed_pair@U?$equal_to@V?$basic_string@DU?$char_traits@D@std@@V?$allocator@D@2@@std@@@std@@M$00@2@$00@std@@QAE@U_Zero_then_variadic_args_t@1@$$QAU21@$$QAM@Z 0042e2b0 f i mainfunction.obj
 0001:0002d300       ??$?0V?$_List_iterator@V?$_List_val@U?$_List_simple_types@U?$pair@$$CBV?$basic_string@DU?$char_traits@D@std@@V?$allocator@D@2@@std@@PAVState@@@std@@@std@@@std@@@std@@_N$0A@@?$pair@V?$_List_iterator@V?$_List_val@U?$_List_simple_types@U?$pair@$$CBV?$basic_string@DU?$char_traits@D@std@@V?$allocator@D@2@@std@@PAVState@@@std@@@std@@@std@@@std@@_N@std@@QAE@$$QAV?$_List_iterator@V?$_List_val@U?$_List_simple_types@U?$pair@$$CBV?$basic_string@DU?$char_traits@D@std@@V?$allocator@D@2@@std@@PAVState@@@std@@@std@@@std@@@1@$$QA_N@Z 0042e300 f i mainfunction.obj
 0001:0002d350       ??$?0V?$_List_unchecked_iterator@V?$_List_val@U?$_List_simple_types@U?$pair@$$CBV?$basic_string@DU?$char_traits@D@std@@V?$allocator@D@2@@std@@PAVState@@@std@@@std@@@std@@@std@@@?$allocator@U_Container_proxy@std@@@std@@QAE@ABV?$allocator@V?$_List_unchecked_iterator@V?$_List_val@U?$_List_simple_types@U?$pair@$$CBV?$basic_string@DU?$char_traits@D@std@@V?$allocator@D@2@@std@@PAVState@@@std@@@std@@@std@@@std@@@1@@Z 0042e350 f i mainfunction.obj
 0001:0002d370       ??$?0V?$allocator@U?$_List_node@U?$pair@$$CBV?$basic_string@DU?$char_traits@D@std@@V?$allocator@D@2@@std@@PAVState@@@std@@PAX@std@@@std@@@?$_Hash@V?$_Umap_traits@V?$basic_string@DU?$char_traits@D@std@@V?$allocator@D@2@@std@@PAVState@@V?$_Uhash_compare@V?$basic_string@DU?$char_traits@D@std@@V?$allocator@D@2@@std@@U?$hash@V?$basic_string@DU?$char_traits@D@std@@V?$allocator@D@2@@std@@@2@U?$equal_to@V?$basic_string@DU?$char_traits@D@std@@V?$allocator@D@2@@std@@@2@@2@V?$allocator@U?$pair@$$CBV?$basic_string@DU?$char_traits@D@std@@V?$allocator@D@2@@std@@PAVState@@@std@@@2@$0A@@std@@@std@@IAE@ABV01@ABV?$allocator@U?$_List_node@U?$pair@$$CBV?$basic_string@DU?$char_traits@D@std@@V?$allocator@D@2@@std@@PAVState@@@std@@PAX@std@@@1@@Z 0042e370 f i mainfunction.obj
 0001:0002d490       ??$_Adl_verify_range@PAV?$_List_unchecked_iterator@V?$_List_val@U?$_List_simple_types@U?$pair@$$CBV?$basic_string@DU?$char_traits@D@std@@V?$allocator@D@2@@std@@PAVState@@@std@@@std@@@std@@@std@@PAV12@@std@@YAXABQAV?$_List_unchecked_iterator@V?$_List_val@U?$_List_simple_types@U?$pair@$$CBV?$basic_string@DU?$char_traits@D@std@@V?$allocator@D@2@@std@@PAVState@@@std@@@std@@@std@@@0@0@Z 0042e490 f i mainfunction.obj
 0001:0002d4b0       ??$_Adl_verify_range@V?$_List_unchecked_const_iterator@V?$_List_val@U?$_List_simple_types@U?$pair@$$CBV?$basic_string@DU?$char_traits@D@std@@V?$allocator@D@2@@std@@PAVState@@@std@@@std@@@std@@U_Iterator_base0@2@@std@@V12@@std@@YAXABV?$_List_unchecked_const_iterator@V?$_List_val@U?$_List_simple_types@U?$pair@$$CBV?$basic_string@DU?$char_traits@D@std@@V?$allocator@D@2@@std@@PAVState@@@std@@@std@@@std@@U_Iterator_base0@2@@0@0@Z 0042e4b0 f i mainfunction.obj
 0001:0002d4c0       ??$_Construct_in_place@PAU?$_List_node@U?$pair@$$CBV?$basic_string@DU?$char_traits@D@std@@V?$allocator@D@2@@std@@PAVState@@@std@@PAX@std@@AAPAU12@@std@@YAXAAPAU?$_List_node@U?$pair@$$CBV?$basic_string@DU?$char_traits@D@std@@V?$allocator@D@2@@std@@PAVState@@@std@@PAX@0@0@Z 0042e4c0 f i mainfunction.obj
 0001:0002d510       ??$_Construct_in_place@PAU?$_List_node@U?$pair@$$CBV?$basic_string@DU?$char_traits@D@std@@V?$allocator@D@2@@std@@PAVState@@@std@@PAX@std@@ABQAU12@@std@@YAXAAPAU?$_List_node@U?$pair@$$CBV?$basic_string@DU?$char_traits@D@std@@V?$allocator@D@2@@std@@PAVState@@@std@@PAX@0@ABQAU10@@Z 0042e510 f i mainfunction.obj
 0001:0002d560       ??$_Construct_in_place@V?$_List_unchecked_iterator@V?$_List_val@U?$_List_simple_types@U?$pair@$$CBV?$basic_string@DU?$char_traits@D@std@@V?$allocator@D@2@@std@@PAVState@@@std@@@std@@@std@@@std@@ABV12@@std@@YAXAAV?$_List_unchecked_iterator@V?$_List_val@U?$_List_simple_types@U?$pair@$$CBV?$basic_string@DU?$char_traits@D@std@@V?$allocator@D@2@@std@@PAVState@@@std@@@std@@@std@@@0@ABV10@@Z 0042e560 f i mainfunction.obj
 0001:0002d5b0       ??$_Destroy_in_place@PAU?$_List_node@U?$pair@$$CBV?$basic_string@DU?$char_traits@D@std@@V?$allocator@D@2@@std@@PAVState@@@std@@PAX@std@@@std@@YAXAAPAU?$_List_node@U?$pair@$$CBV?$basic_string@DU?$char_traits@D@std@@V?$allocator@D@2@@std@@PAVState@@@std@@PAX@0@@Z 0042e5b0 f i mainfunction.obj
 0001:0002d5c0       ??$_Destroy_range@PAV?$_List_unchecked_iterator@V?$_List_val@U?$_List_simple_types@U?$pair@$$CBV?$basic_string@DU?$char_traits@D@std@@V?$allocator@D@2@@std@@PAVState@@@std@@@std@@@std@@@std@@PAV12@@std@@YAXPAV?$_List_unchecked_iterator@V?$_List_val@U?$_List_simple_types@U?$pair@$$CBV?$basic_string@DU?$char_traits@D@std@@V?$allocator@D@2@@std@@PAVState@@@std@@@std@@@std@@@0@QAV10@@Z 0042e5c0 f i mainfunction.obj
 0001:0002d5d0       ??$_Emplace_back@ABV?$_List_unchecked_iterator@V?$_List_val@U?$_List_simple_types@U?$pair@$$CBV?$basic_string@DU?$char_traits@D@std@@V?$allocator@D@2@@std@@PAVState@@@std@@@std@@@std@@@std@@@?$_Uninitialized_backout@PAV?$_List_unchecked_iterator@V?$_List_val@U?$_List_simple_types@U?$pair@$$CBV?$basic_string@DU?$char_traits@D@std@@V?$allocator@D@2@@std@@PAVState@@@std@@@std@@@std@@@std@@@std@@QAEXABV?$_List_unchecked_iterator@V?$_List_val@U?$_List_simple_types@U?$pair@$$CBV?$basic_string@DU?$char_traits@D@std@@V?$allocator@D@2@@std@@PAVState@@@std@@@std@@@std@@@1@@Z 0042e5d0 f i mainfunction.obj
 0001:0002d620       ??$_Erase_head@V?$allocator@U?$_Tree_node@U?$pair@$$CBV?$basic_string@DU?$char_traits@D@std@@V?$allocator@D@2@@std@@V?$shared_ptr@VRawImageData@@@2@@std@@PAX@std@@@std@@@?$_Tree_val@U?$_Tree_simple_types@U?$pair@$$CBV?$basic_string@DU?$char_traits@D@std@@V?$allocator@D@2@@std@@V?$shared_ptr@VRawImageData@@@2@@std@@@std@@@std@@QAEXAAV?$allocator@U?$_Tree_node@U?$pair@$$CBV?$basic_string@DU?$char_traits@D@std@@V?$allocator@D@2@@std@@V?$shared_ptr@VRawImageData@@@2@@std@@PAX@std@@@1@@Z 0042e620 f i mainfunction.obj
 0001:0002d670       ??$_Erase_tree@V?$allocator@U?$_Tree_node@U?$pair@$$CBV?$basic_string@DU?$char_traits@D@std@@V?$allocator@D@2@@std@@V?$shared_ptr@VRawImageData@@@2@@std@@PAX@std@@@std@@@?$_Tree_val@U?$_Tree_simple_types@U?$pair@$$CBV?$basic_string@DU?$char_traits@D@std@@V?$allocator@D@2@@std@@V?$shared_ptr@VRawImageData@@@2@@std@@@std@@@std@@QAEXAAV?$allocator@U?$_Tree_node@U?$pair@$$CBV?$basic_string@DU?$char_traits@D@std@@V?$allocator@D@2@@std@@V?$shared_ptr@VRawImageData@@@2@@std@@PAX@std@@@1@PAU?$_Tree_node@U?$pair@$$CBV?$basic_string@DU?$char_traits@D@std@@V?$allocator@D@2@@std@@V?$shared_ptr@VRawImageData@@@2@@std@@PAX@1@@Z 0042e670 f i mainfunction.obj
 0001:0002d6d0       ??$_Free_non_head@V?$allocator@U?$_List_node@U?$pair@$$CBV?$basic_string@DU?$char_traits@D@std@@V?$allocator@D@2@@std@@PAVState@@@std@@PAX@std@@@std@@@?$_List_node@U?$pair@$$CBV?$basic_string@DU?$char_traits@D@std@@V?$allocator@D@2@@std@@PAVState@@@std@@PAX@std@@SAXAAV?$allocator@U?$_List_node@U?$pair@$$CBV?$basic_string@DU?$char_traits@D@std@@V?$allocator@D@2@@std@@PAVState@@@std@@PAX@std@@@1@PAU01@@Z 0042e6d0 f i mainfunction.obj
 0001:0002d730       ??$_Freenode0@V?$allocator@U?$_List_node@U?$pair@$$CBV?$basic_string@DU?$char_traits@D@std@@V?$allocator@D@2@@std@@PAVState@@@std@@PAX@std@@@std@@@?$_List_node@U?$pair@$$CBV?$basic_string@DU?$char_traits@D@std@@V?$allocator@D@2@@std@@PAVState@@@std@@PAX@std@@SAXAAV?$allocator@U?$_List_node@U?$pair@$$CBV?$basic_string@DU?$char_traits@D@std@@V?$allocator@D@2@@std@@PAVState@@@std@@PAX@std@@@1@PAU01@@Z 0042e730 f i mainfunction.obj
 0001:0002d7b0       ??$_Freenode0@V?$allocator@U?$_Tree_node@U?$pair@$$CBV?$basic_string@DU?$char_traits@D@std@@V?$allocator@D@2@@std@@V?$shared_ptr@VRawImageData@@@2@@std@@PAX@std@@@std@@@?$_Tree_node@U?$pair@$$CBV?$basic_string@DU?$char_traits@D@std@@V?$allocator@D@2@@std@@V?$shared_ptr@VRawImageData@@@2@@std@@PAX@std@@SAXAAV?$allocator@U?$_Tree_node@U?$pair@$$CBV?$basic_string@DU?$char_traits@D@std@@V?$allocator@D@2@@std@@V?$shared_ptr@VRawImageData@@@2@@std@@PAX@std@@@1@PAU01@@Z 0042e7b0 f i mainfunction.obj
 0001:0002d840       ??$_Freenode@V?$allocator@U?$_List_node@U?$pair@$$CBV?$basic_string@DU?$char_traits@D@std@@V?$allocator@D@2@@std@@PAVState@@@std@@PAX@std@@@std@@@?$_List_node@U?$pair@$$CBV?$basic_string@DU?$char_traits@D@std@@V?$allocator@D@2@@std@@PAVState@@@std@@PAX@std@@SAXAAV?$allocator@U?$_List_node@U?$pair@$$CBV?$basic_string@DU?$char_traits@D@std@@V?$allocator@D@2@@std@@PAVState@@@std@@PAX@std@@@1@PAU01@@Z 0042e840 f i mainfunction.obj
 0001:0002d8c0       ??$_Freenode@V?$allocator@U?$_Tree_node@U?$pair@$$CBV?$basic_string@DU?$char_traits@D@std@@V?$allocator@D@2@@std@@V?$shared_ptr@VRawImageData@@@2@@std@@PAX@std@@@std@@@?$_Tree_node@U?$pair@$$CBV?$basic_string@DU?$char_traits@D@std@@V?$allocator@D@2@@std@@V?$shared_ptr@VRawImageData@@@2@@std@@PAX@std@@SAXAAV?$allocator@U?$_Tree_node@U?$pair@$$CBV?$basic_string@DU?$char_traits@D@std@@V?$allocator@D@2@@std@@V?$shared_ptr@VRawImageData@@@2@@std@@PAX@std@@@1@PAU01@@Z 0042e8c0 f i mainfunction.obj
 0001:0002d940       ??$_Get_size_of_n@$0CI@@std@@YAII@Z 0042e940 f i mainfunction.obj
 0001:0002d970       ??$_Get_unwrapped@AAV?$_List_unchecked_const_iterator@V?$_List_val@U?$_List_simple_types@U?$pair@$$CBV?$basic_string@DU?$char_traits@D@std@@V?$allocator@D@2@@std@@PAVState@@@std@@@std@@@std@@U_Iterator_base0@2@@std@@@std@@YA?A_TAAV?$_List_unchecked_const_iterator@V?$_List_val@U?$_List_simple_types@U?$pair@$$CBV?$basic_string@DU?$char_traits@D@std@@V?$allocator@D@2@@std@@PAVState@@@std@@@std@@@std@@U_Iterator_base0@2@@0@@Z 0042e970 f i mainfunction.obj
 0001:0002d980       ??$_Get_unwrapped@ABQAV?$_List_unchecked_iterator@V?$_List_val@U?$_List_simple_types@U?$pair@$$CBV?$basic_string@DU?$char_traits@D@std@@V?$allocator@D@2@@std@@PAVState@@@std@@@std@@@std@@@std@@@std@@YA?A_TABQAV?$_List_unchecked_iterator@V?$_List_val@U?$_List_simple_types@U?$pair@$$CBV?$basic_string@DU?$char_traits@D@std@@V?$allocator@D@2@@std@@PAVState@@@std@@@std@@@std@@@0@@Z 0042e980 f i mainfunction.obj
 0001:0002d990       ??$_Verify_range@V?$_List_unchecked_iterator@V?$_List_val@U?$_List_simple_types@U?$pair@$$CBV?$basic_string@DU?$char_traits@D@std@@V?$allocator@D@2@@std@@PAVState@@@std@@@std@@@std@@@std@@@std@@YAXQBV?$_List_unchecked_iterator@V?$_List_val@U?$_List_simple_types@U?$pair@$$CBV?$basic_string@DU?$char_traits@D@std@@V?$allocator@D@2@@std@@PAVState@@@std@@@std@@@std@@@0@0@Z 0042e990 f i mainfunction.obj
 0001:0002da10       ??$_Voidify_iter@PAPAU?$_List_node@U?$pair@$$CBV?$basic_string@DU?$char_traits@D@std@@V?$allocator@D@2@@std@@PAVState@@@std@@PAX@std@@@std@@YAPAXPAPAU?$_List_node@U?$pair@$$CBV?$basic_string@DU?$char_traits@D@std@@V?$allocator@D@2@@std@@PAVState@@@std@@PAX@0@@Z 0042ea10 f i mainfunction.obj
 0001:0002da20       ??$_Voidify_iter@PAU?$pair@$$CBV?$basic_string@DU?$char_traits@D@std@@V?$allocator@D@2@@std@@PAVState@@@std@@@std@@YAPAXPAU?$pair@$$CBV?$basic_string@DU?$char_traits@D@std@@V?$allocator@D@2@@std@@PAVState@@@0@@Z 0042ea20 f i mainfunction.obj
 0001:0002da30       ??$_Voidify_iter@PAV?$_List_unchecked_iterator@V?$_List_val@U?$_List_simple_types@U?$pair@$$CBV?$basic_string@DU?$char_traits@D@std@@V?$allocator@D@2@@std@@PAVState@@@std@@@std@@@std@@@std@@@std@@YAPAXPAV?$_List_unchecked_iterator@V?$_List_val@U?$_List_simple_types@U?$pair@$$CBV?$basic_string@DU?$char_traits@D@std@@V?$allocator@D@2@@std@@PAVState@@@std@@@std@@@std@@@0@@Z 0042ea30 f i mainfunction.obj
 0001:0002da40       ??$addressof@$$CBV?$_List_val@U?$_List_simple_types@U?$pair@$$CBV?$basic_string@DU?$char_traits@D@std@@V?$allocator@D@2@@std@@PAVState@@@std@@@std@@@std@@@std@@YAPBV?$_List_val@U?$_List_simple_types@U?$pair@$$CBV?$basic_string@DU?$char_traits@D@std@@V?$allocator@D@2@@std@@PAVState@@@std@@@std@@@0@ABV10@@Z 0042ea40 f i mainfunction.obj
 0001:0002da50       ??$addressof@PAU?$_List_node@U?$pair@$$CBV?$basic_string@DU?$char_traits@D@std@@V?$allocator@D@2@@std@@PAVState@@@std@@PAX@std@@@std@@YAPAPAU?$_List_node@U?$pair@$$CBV?$basic_string@DU?$char_traits@D@std@@V?$allocator@D@2@@std@@PAVState@@@std@@PAX@0@AAPAU10@@Z 0042ea50 f i mainfunction.obj
 0001:0002da60       ??$addressof@U?$pair@$$CBV?$basic_string@DU?$char_traits@D@std@@V?$allocator@D@2@@std@@PAVState@@@std@@@std@@YAPAU?$pair@$$CBV?$basic_string@DU?$char_traits@D@std@@V?$allocator@D@2@@std@@PAVState@@@0@AAU10@@Z 0042ea60 f i mainfunction.obj
 0001:0002da70       ??$addressof@V?$_List_unchecked_iterator@V?$_List_val@U?$_List_simple_types@U?$pair@$$CBV?$basic_string@DU?$char_traits@D@std@@V?$allocator@D@2@@std@@PAVState@@@std@@@std@@@std@@@std@@@std@@YAPAV?$_List_unchecked_iterator@V?$_List_val@U?$_List_simple_types@U?$pair@$$CBV?$basic_string@DU?$char_traits@D@std@@V?$allocator@D@2@@std@@PAVState@@@std@@@std@@@std@@@0@AAV10@@Z 0042ea70 f i mainfunction.obj
 0001:0002da80       ??$construct@U?$pair@$$CBV?$basic_string@DU?$char_traits@D@std@@V?$allocator@D@2@@std@@PAVState@@@std@@AAY05$$CBDAAPAVState@@@?$_Default_allocator_traits@V?$allocator@U?$_List_node@U?$pair@$$CBV?$basic_string@DU?$char_traits@D@std@@V?$allocator@D@2@@std@@PAVState@@@std@@PAX@std@@@std@@@std@@SAXAAV?$allocator@U?$_List_node@U?$pair@$$CBV?$basic_string@DU?$char_traits@D@std@@V?$allocator@D@2@@std@@PAVState@@@std@@PAX@std@@@1@QAU?$pair@$$CBV?$basic_string@DU?$char_traits@D@std@@V?$allocator@D@2@@std@@PAVState@@@1@AAY05$$CBDAAPAVState@@@Z 0042ea80 f i mainfunction.obj
 0001:0002dae0       ??$construct@U?$pair@$$CBV?$basic_string@DU?$char_traits@D@std@@V?$allocator@D@2@@std@@PAVState@@@std@@AAY06$$CBDAAPAVState@@@?$_Default_allocator_traits@V?$allocator@U?$_List_node@U?$pair@$$CBV?$basic_string@DU?$char_traits@D@std@@V?$allocator@D@2@@std@@PAVState@@@std@@PAX@std@@@std@@@std@@SAXAAV?$allocator@U?$_List_node@U?$pair@$$CBV?$basic_string@DU?$char_traits@D@std@@V?$allocator@D@2@@std@@PAVState@@@std@@PAX@std@@@1@QAU?$pair@$$CBV?$basic_string@DU?$char_traits@D@std@@V?$allocator@D@2@@std@@PAVState@@@1@AAY06$$CBDAAPAVState@@@Z 0042eae0 f i mainfunction.obj
 0001:0002db40       ??$construct@U?$pair@$$CBV?$basic_string@DU?$char_traits@D@std@@V?$allocator@D@2@@std@@PAVState@@@std@@AAY09$$CBDAAPAVState@@@?$_Default_allocator_traits@V?$allocator@U?$_List_node@U?$pair@$$CBV?$basic_string@DU?$char_traits@D@std@@V?$allocator@D@2@@std@@PAVState@@@std@@PAX@std@@@std@@@std@@SAXAAV?$allocator@U?$_List_node@U?$pair@$$CBV?$basic_string@DU?$char_traits@D@std@@V?$allocator@D@2@@std@@PAVState@@@std@@PAX@std@@@1@QAU?$pair@$$CBV?$basic_string@DU?$char_traits@D@std@@V?$allocator@D@2@@std@@PAVState@@@1@AAY09$$CBDAAPAVState@@@Z 0042eb40 f i mainfunction.obj
 0001:0002dba0       ??$construct@U?$pair@$$CBV?$basic_string@DU?$char_traits@D@std@@V?$allocator@D@2@@std@@PAVState@@@std@@AAY0L@$$CBDAAPAVState@@@?$_Default_allocator_traits@V?$allocator@U?$_List_node@U?$pair@$$CBV?$basic_string@DU?$char_traits@D@std@@V?$allocator@D@2@@std@@PAVState@@@std@@PAX@std@@@std@@@std@@SAXAAV?$allocator@U?$_List_node@U?$pair@$$CBV?$basic_string@DU?$char_traits@D@std@@V?$allocator@D@2@@std@@PAVState@@@std@@PAX@std@@@1@QAU?$pair@$$CBV?$basic_string@DU?$char_traits@D@std@@V?$allocator@D@2@@std@@PAVState@@@1@AAY0L@$$CBDAAPAVState@@@Z 0042eba0 f i mainfunction.obj
 0001:0002dc00       ??$construct@U?$pair@$$CBV?$basic_string@DU?$char_traits@D@std@@V?$allocator@D@2@@std@@PAVState@@@std@@AAY0M@$$CBDAAPAVState@@@?$_Default_allocator_traits@V?$allocator@U?$_List_node@U?$pair@$$CBV?$basic_string@DU?$char_traits@D@std@@V?$allocator@D@2@@std@@PAVState@@@std@@PAX@std@@@std@@@std@@SAXAAV?$allocator@U?$_List_node@U?$pair@$$CBV?$basic_string@DU?$char_traits@D@std@@V?$allocator@D@2@@std@@PAVState@@@std@@PAX@std@@@1@QAU?$pair@$$CBV?$basic_string@DU?$char_traits@D@std@@V?$allocator@D@2@@std@@PAVState@@@1@AAY0M@$$CBDAAPAVState@@@Z 0042ec00 f i mainfunction.obj
 0001:0002dc60       ??$construct@U?$pair@$$CBV?$basic_string@DU?$char_traits@D@std@@V?$allocator@D@2@@std@@PAVState@@@std@@AAY0N@$$CBDAAPAVState@@@?$_Default_allocator_traits@V?$allocator@U?$_List_node@U?$pair@$$CBV?$basic_string@DU?$char_traits@D@std@@V?$allocator@D@2@@std@@PAVState@@@std@@PAX@std@@@std@@@std@@SAXAAV?$allocator@U?$_List_node@U?$pair@$$CBV?$basic_string@DU?$char_traits@D@std@@V?$allocator@D@2@@std@@PAVState@@@std@@PAX@std@@@1@QAU?$pair@$$CBV?$basic_string@DU?$char_traits@D@std@@V?$allocator@D@2@@std@@PAVState@@@1@AAY0N@$$CBDAAPAVState@@@Z 0042ec60 f i mainfunction.obj
 0001:0002dcc0       ??$construct@U?$pair@$$CBV?$basic_string@DU?$char_traits@D@std@@V?$allocator@D@2@@std@@PAVState@@@std@@ABU12@@?$_Default_allocator_traits@V?$allocator@U?$_List_node@U?$pair@$$CBV?$basic_string@DU?$char_traits@D@std@@V?$allocator@D@2@@std@@PAVState@@@std@@PAX@std@@@std@@@std@@SAXAAV?$allocator@U?$_List_node@U?$pair@$$CBV?$basic_string@DU?$char_traits@D@std@@V?$allocator@D@2@@std@@PAVState@@@std@@PAX@std@@@1@QAU?$pair@$$CBV?$basic_string@DU?$char_traits@D@std@@V?$allocator@D@2@@std@@PAVState@@@1@ABU31@@Z 0042ecc0 f i mainfunction.obj
 0001:0002dd10       ??$destroy@U?$pair@$$CBV?$basic_string@DU?$char_traits@D@std@@V?$allocator@D@2@@std@@PAVState@@@std@@@?$_Default_allocator_traits@V?$allocator@U?$_List_node@U?$pair@$$CBV?$basic_string@DU?$char_traits@D@std@@V?$allocator@D@2@@std@@PAVState@@@std@@PAX@std@@@std@@@std@@SAXAAV?$allocator@U?$_List_node@U?$pair@$$CBV?$basic_string@DU?$char_traits@D@std@@V?$allocator@D@2@@std@@PAVState@@@std@@PAX@std@@@1@QAU?$pair@$$CBV?$basic_string@DU?$char_traits@D@std@@V?$allocator@D@2@@std@@PAVState@@@1@@Z 0042ed10 f i mainfunction.obj
 0001:0002dd30       ??$emplace@AAY05$$CBDAAPAVState@@@?$_Hash@V?$_Umap_traits@V?$basic_string@DU?$char_traits@D@std@@V?$allocator@D@2@@std@@PAVState@@V?$_Uhash_compare@V?$basic_string@DU?$char_traits@D@std@@V?$allocator@D@2@@std@@U?$hash@V?$basic_string@DU?$char_traits@D@std@@V?$allocator@D@2@@std@@@2@U?$equal_to@V?$basic_string@DU?$char_traits@D@std@@V?$allocator@D@2@@std@@@2@@2@V?$allocator@U?$pair@$$CBV?$basic_string@DU?$char_traits@D@std@@V?$allocator@D@2@@std@@PAVState@@@std@@@2@$0A@@std@@@std@@QAE?AU?$pair@V?$_List_iterator@V?$_List_val@U?$_List_simple_types@U?$pair@$$CBV?$basic_string@DU?$char_traits@D@std@@V?$allocator@D@2@@std@@PAVState@@@std@@@std@@@std@@@std@@_N@1@AAY05$$CBDAAPAVState@@@Z 0042ed30 f i mainfunction.obj
 0001:0002df60       ??$emplace@AAY06$$CBDAAPAVState@@@?$_Hash@V?$_Umap_traits@V?$basic_string@DU?$char_traits@D@std@@V?$allocator@D@2@@std@@PAVState@@V?$_Uhash_compare@V?$basic_string@DU?$char_traits@D@std@@V?$allocator@D@2@@std@@U?$hash@V?$basic_string@DU?$char_traits@D@std@@V?$allocator@D@2@@std@@@2@U?$equal_to@V?$basic_string@DU?$char_traits@D@std@@V?$allocator@D@2@@std@@@2@@2@V?$allocator@U?$pair@$$CBV?$basic_string@DU?$char_traits@D@std@@V?$allocator@D@2@@std@@PAVState@@@std@@@2@$0A@@std@@@std@@QAE?AU?$pair@V?$_List_iterator@V?$_List_val@U?$_List_simple_types@U?$pair@$$CBV?$basic_string@DU?$char_traits@D@std@@V?$allocator@D@2@@std@@PAVState@@@std@@@std@@@std@@@std@@_N@1@AAY06$$CBDAAPAVState@@@Z 0042ef60 f i mainfunction.obj
 0001:0002e190       ??$emplace@AAY09$$CBDAAPAVState@@@?$_Hash@V?$_Umap_traits@V?$basic_string@DU?$char_traits@D@std@@V?$allocator@D@2@@std@@PAVState@@V?$_Uhash_compare@V?$basic_string@DU?$char_traits@D@std@@V?$allocator@D@2@@std@@U?$hash@V?$basic_string@DU?$char_traits@D@std@@V?$allocator@D@2@@std@@@2@U?$equal_to@V?$basic_string@DU?$char_traits@D@std@@V?$allocator@D@2@@std@@@2@@2@V?$allocator@U?$pair@$$CBV?$basic_string@DU?$char_traits@D@std@@V?$allocator@D@2@@std@@PAVState@@@std@@@2@$0A@@std@@@std@@QAE?AU?$pair@V?$_List_iterator@V?$_List_val@U?$_List_simple_types@U?$pair@$$CBV?$basic_string@DU?$char_traits@D@std@@V?$allocator@D@2@@std@@PAVState@@@std@@@std@@@std@@@std@@_N@1@AAY09$$CBDAAPAVState@@@Z 0042f190 f i mainfunction.obj
 0001:0002e3c0       ??$emplace@AAY0L@$$CBDAAPAVState@@@?$_Hash@V?$_Umap_traits@V?$basic_string@DU?$char_traits@D@std@@V?$allocator@D@2@@std@@PAVState@@V?$_Uhash_compare@V?$basic_string@DU?$char_traits@D@std@@V?$allocator@D@2@@std@@U?$hash@V?$basic_string@DU?$char_traits@D@std@@V?$allocator@D@2@@std@@@2@U?$equal_to@V?$basic_string@DU?$char_traits@D@std@@V?$allocator@D@2@@std@@@2@@2@V?$allocator@U?$pair@$$CBV?$basic_string@DU?$char_traits@D@std@@V?$allocator@D@2@@std@@PAVState@@@std@@@2@$0A@@std@@@std@@QAE?AU?$pair@V?$_List_iterator@V?$_List_val@U?$_List_simple_types@U?$pair@$$CBV?$basic_string@DU?$char_traits@D@std@@V?$allocator@D@2@@std@@PAVState@@@std@@@std@@@std@@@std@@_N@1@AAY0L@$$CBDAAPAVState@@@Z 0042f3c0 f i mainfunction.obj
 0001:0002e5f0       ??$emplace@AAY0M@$$CBDAAPAVState@@@?$_Hash@V?$_Umap_traits@V?$basic_string@DU?$char_traits@D@std@@V?$allocator@D@2@@std@@PAVState@@V?$_Uhash_compare@V?$basic_string@DU?$char_traits@D@std@@V?$allocator@D@2@@std@@U?$hash@V?$basic_string@DU?$char_traits@D@std@@V?$allocator@D@2@@std@@@2@U?$equal_to@V?$basic_string@DU?$char_traits@D@std@@V?$allocator@D@2@@std@@@2@@2@V?$allocator@U?$pair@$$CBV?$basic_string@DU?$char_traits@D@std@@V?$allocator@D@2@@std@@PAVState@@@std@@@2@$0A@@std@@@std@@QAE?AU?$pair@V?$_List_iterator@V?$_List_val@U?$_List_simple_types@U?$pair@$$CBV?$basic_string@DU?$char_traits@D@std@@V?$allocator@D@2@@std@@PAVState@@@std@@@std@@@std@@@std@@_N@1@AAY0M@$$CBDAAPAVState@@@Z 0042f5f0 f i mainfunction.obj
 0001:0002e820       ??$emplace@AAY0N@$$CBDAAPAVState@@@?$_Hash@V?$_Umap_traits@V?$basic_string@DU?$char_traits@D@std@@V?$allocator@D@2@@std@@PAVState@@V?$_Uhash_compare@V?$basic_string@DU?$char_traits@D@std@@V?$allocator@D@2@@std@@U?$hash@V?$basic_string@DU?$char_traits@D@std@@V?$allocator@D@2@@std@@@2@U?$equal_to@V?$basic_string@DU?$char_traits@D@std@@V?$allocator@D@2@@std@@@2@@2@V?$allocator@U?$pair@$$CBV?$basic_string@DU?$char_traits@D@std@@V?$allocator@D@2@@std@@PAVState@@@std@@@2@$0A@@std@@@std@@QAE?AU?$pair@V?$_List_iterator@V?$_List_val@U?$_List_simple_types@U?$pair@$$CBV?$basic_string@DU?$char_traits@D@std@@V?$allocator@D@2@@std@@PAVState@@@std@@@std@@@std@@@std@@_N@1@AAY0N@$$CBDAAPAVState@@@Z 0042f820 f i mainfunction.obj
 0001:0002ea50       ??$emplace@ABU?$pair@$$CBV?$basic_string@DU?$char_traits@D@std@@V?$allocator@D@2@@std@@PAVState@@@std@@@?$_Hash@V?$_Umap_traits@V?$basic_string@DU?$char_traits@D@std@@V?$allocator@D@2@@std@@PAVState@@V?$_Uhash_compare@V?$basic_string@DU?$char_traits@D@std@@V?$allocator@D@2@@std@@U?$hash@V?$basic_string@DU?$char_traits@D@std@@V?$allocator@D@2@@std@@@2@U?$equal_to@V?$basic_string@DU?$char_traits@D@std@@V?$allocator@D@2@@std@@@2@@2@V?$allocator@U?$pair@$$CBV?$basic_string@DU?$char_traits@D@std@@V?$allocator@D@2@@std@@PAVState@@@std@@@2@$0A@@std@@@std@@QAE?AU?$pair@V?$_List_iterator@V?$_List_val@U?$_List_simple_types@U?$pair@$$CBV?$basic_string@DU?$char_traits@D@std@@V?$allocator@D@2@@std@@PAVState@@@std@@@std@@@std@@@std@@_N@1@ABU?$pair@$$CBV?$basic_string@DU?$char_traits@D@std@@V?$allocator@D@2@@std@@PAVState@@@1@@Z 0042fa50 f i mainfunction.obj
 0001:0002ec60       ??$exchange@PAU?$_List_node@U?$pair@$$CBV?$basic_string@DU?$char_traits@D@std@@V?$allocator@D@2@@std@@PAVState@@@std@@PAX@std@@$$T@std@@YAPAU?$_List_node@U?$pair@$$CBV?$basic_string@DU?$char_traits@D@std@@V?$allocator@D@2@@std@@PAVState@@@std@@PAX@0@AAPAU10@$$QA$$T@Z 0042fc60 f i mainfunction.obj
 0001:0002ec90       ??$exchange@PAU?$_Tree_node@U?$pair@$$CBV?$basic_string@DU?$char_traits@D@std@@V?$allocator@D@2@@std@@V?$shared_ptr@VRawImageData@@@2@@std@@PAX@std@@AAPAU12@@std@@YAPAU?$_Tree_node@U?$pair@$$CBV?$basic_string@DU?$char_traits@D@std@@V?$allocator@D@2@@std@@V?$shared_ptr@VRawImageData@@@2@@std@@PAX@0@AAPAU10@0@Z 0042fc90 f i mainfunction.obj
 0001:0002ecc0       ??$fill@PAV?$_List_unchecked_iterator@V?$_List_val@U?$_List_simple_types@U?$pair@$$CBV?$basic_string@DU?$char_traits@D@std@@V?$allocator@D@2@@std@@PAVState@@@std@@@std@@@std@@@std@@V12@@std@@YAXQAV?$_List_unchecked_iterator@V?$_List_val@U?$_List_simple_types@U?$pair@$$CBV?$basic_string@DU?$char_traits@D@std@@V?$allocator@D@2@@std@@PAVState@@@std@@@std@@@std@@@0@0ABV10@@Z 0042fcc0 f i mainfunction.obj
 0001:0002ed30       ??$forward@AAPAU?$_List_node@U?$pair@$$CBV?$basic_string@DU?$char_traits@D@std@@V?$allocator@D@2@@std@@PAVState@@@std@@PAX@std@@@std@@YAAAPAU?$_List_node@U?$pair@$$CBV?$basic_string@DU?$char_traits@D@std@@V?$allocator@D@2@@std@@PAVState@@@std@@PAX@0@AAPAU10@@Z 0042fd30 f i mainfunction.obj
 0001:0002ed40       ??$forward@AAPAVState@@@std@@YAAAPAVState@@AAPAV1@@Z 0042fd40 f i mainfunction.obj
 0001:0002ed50       ??$forward@AAY05$$CBD@std@@YAAAY05$$CBDAAY05$$CBD@Z 0042fd50 f i mainfunction.obj
 0001:0002ed60       ??$forward@AAY06$$CBD@std@@YAAAY06$$CBDAAY06$$CBD@Z 0042fd60 f i mainfunction.obj
 0001:0002ed70       ??$forward@AAY09$$CBD@std@@YAAAY09$$CBDAAY09$$CBD@Z 0042fd70 f i mainfunction.obj
 0001:0002ed80       ??$forward@AAY0L@$$CBD@std@@YAAAY0L@$$CBDAAY0L@$$CBD@Z 0042fd80 f i mainfunction.obj
 0001:0002ed90       ??$forward@AAY0M@$$CBD@std@@YAAAY0M@$$CBDAAY0M@$$CBD@Z 0042fd90 f i mainfunction.obj
 0001:0002eda0       ??$forward@AAY0N@$$CBD@std@@YAAAY0N@$$CBDAAY0N@$$CBD@Z 0042fda0 f i mainfunction.obj
 0001:0002edb0       ??$forward@ABQAU?$_List_node@U?$pair@$$CBV?$basic_string@DU?$char_traits@D@std@@V?$allocator@D@2@@std@@PAVState@@@std@@PAX@std@@@std@@YAABQAU?$_List_node@U?$pair@$$CBV?$basic_string@DU?$char_traits@D@std@@V?$allocator@D@2@@std@@PAVState@@@std@@PAX@0@ABQAU10@@Z 0042fdb0 f i mainfunction.obj
 0001:0002edc0       ??$forward@ABU?$pair@$$CBV?$basic_string@DU?$char_traits@D@std@@V?$allocator@D@2@@std@@PAVState@@@std@@@std@@YAABU?$pair@$$CBV?$basic_string@DU?$char_traits@D@std@@V?$allocator@D@2@@std@@PAVState@@@0@ABU10@@Z 0042fdc0 f i mainfunction.obj
 0001:0002edd0       ??$forward@ABV?$_List_unchecked_iterator@V?$_List_val@U?$_List_simple_types@U?$pair@$$CBV?$basic_string@DU?$char_traits@D@std@@V?$allocator@D@2@@std@@PAVState@@@std@@@std@@@std@@@std@@@std@@YAABV?$_List_unchecked_iterator@V?$_List_val@U?$_List_simple_types@U?$pair@$$CBV?$basic_string@DU?$char_traits@D@std@@V?$allocator@D@2@@std@@PAVState@@@std@@@std@@@std@@@0@ABV10@@Z 0042fdd0 f i mainfunction.obj
 0001:0002ede0       ??$forward@ABV?$allocator@U?$_List_node@U?$pair@$$CBV?$basic_string@DU?$char_traits@D@std@@V?$allocator@D@2@@std@@PAVState@@@std@@PAX@std@@@std@@@std@@YAABV?$allocator@U?$_List_node@U?$pair@$$CBV?$basic_string@DU?$char_traits@D@std@@V?$allocator@D@2@@std@@PAVState@@@std@@PAX@std@@@0@ABV10@@Z 0042fde0 f i mainfunction.obj
 0001:0002edf0       ??$forward@ABV?$allocator@U?$pair@$$CBV?$basic_string@DU?$char_traits@D@std@@V?$allocator@D@2@@std@@PAVState@@@std@@@std@@@std@@YAABV?$allocator@U?$pair@$$CBV?$basic_string@DU?$char_traits@D@std@@V?$allocator@D@2@@std@@PAVState@@@std@@@0@ABV10@@Z 0042fdf0 f i mainfunction.obj
 0001:0002ee00       ??$forward@M@std@@YA$$QAMAAM@Z 0042fe00 f i mainfunction.obj
 0001:0002ee10       ??$forward@V?$_List_iterator@V?$_List_val@U?$_List_simple_types@U?$pair@$$CBV?$basic_string@DU?$char_traits@D@std@@V?$allocator@D@2@@std@@PAVState@@@std@@@std@@@std@@@std@@@std@@YA$$QAV?$_List_iterator@V?$_List_val@U?$_List_simple_types@U?$pair@$$CBV?$basic_string@DU?$char_traits@D@std@@V?$allocator@D@2@@std@@PAVState@@@std@@@std@@@std@@@0@AAV10@@Z 0042fe10 f i mainfunction.obj
 0001:0002ee20       ??$insert@V?$_List_unchecked_const_iterator@V?$_List_val@U?$_List_simple_types@U?$pair@$$CBV?$basic_string@DU?$char_traits@D@std@@V?$allocator@D@2@@std@@PAVState@@@std@@@std@@@std@@U_Iterator_base0@2@@std@@@?$_Hash@V?$_Umap_traits@V?$basic_string@DU?$char_traits@D@std@@V?$allocator@D@2@@std@@PAVState@@V?$_Uhash_compare@V?$basic_string@DU?$char_traits@D@std@@V?$allocator@D@2@@std@@U?$hash@V?$basic_string@DU?$char_traits@D@std@@V?$allocator@D@2@@std@@@2@U?$equal_to@V?$basic_string@DU?$char_traits@D@std@@V?$allocator@D@2@@std@@@2@@2@V?$allocator@U?$pair@$$CBV?$basic_string@DU?$char_traits@D@std@@V?$allocator@D@2@@std@@PAVState@@@std@@@2@$0A@@std@@@std@@QAEXV?$_List_unchecked_const_iterator@V?$_List_val@U?$_List_simple_types@U?$pair@$$CBV?$basic_string@DU?$char_traits@D@std@@V?$allocator@D@2@@std@@PAVState@@@std@@@std@@@std@@U_Iterator_base0@2@@1@0@Z 0042fe20 f i mainfunction.obj
 0001:0002eec0       ??$uninitialized_fill@PAV?$_List_unchecked_iterator@V?$_List_val@U?$_List_simple_types@U?$pair@$$CBV?$basic_string@DU?$char_traits@D@std@@V?$allocator@D@2@@std@@PAVState@@@std@@@std@@@std@@@std@@V12@@std@@YAXQAV?$_List_unchecked_iterator@V?$_List_val@U?$_List_simple_types@U?$pair@$$CBV?$basic_string@DU?$char_traits@D@std@@V?$allocator@D@2@@std@@PAVState@@@std@@@std@@@std@@@0@0ABV10@@Z 0042fec0 f i mainfunction.obj
 0001:0002ef90       ??0?$_Alloc_construct_ptr@V?$allocator@U?$_List_node@U?$pair@$$CBV?$basic_string@DU?$char_traits@D@std@@V?$allocator@D@2@@std@@PAVState@@@std@@PAX@std@@@std@@@std@@QAE@AAV?$allocator@U?$_List_node@U?$pair@$$CBV?$basic_string@DU?$char_traits@D@std@@V?$allocator@D@2@@std@@PAVState@@@std@@PAX@std@@@1@@Z 0042ff90 f i mainfunction.obj
 0001:0002efc0       ??0?$_Hash@V?$_Umap_traits@V?$basic_string@DU?$char_traits@D@std@@V?$allocator@D@2@@std@@PAVState@@V?$_Uhash_compare@V?$basic_string@DU?$char_traits@D@std@@V?$allocator@D@2@@std@@U?$hash@V?$basic_string@DU?$char_traits@D@std@@V?$allocator@D@2@@std@@@2@U?$equal_to@V?$basic_string@DU?$char_traits@D@std@@V?$allocator@D@2@@std@@@2@@2@V?$allocator@U?$pair@$$CBV?$basic_string@DU?$char_traits@D@std@@V?$allocator@D@2@@std@@PAVState@@@std@@@2@$0A@@std@@@std@@IAE@ABV?$_Uhash_compare@V?$basic_string@DU?$char_traits@D@std@@V?$allocator@D@2@@std@@U?$hash@V?$basic_string@DU?$char_traits@D@std@@V?$allocator@D@2@@std@@@2@U?$equal_to@V?$basic_string@DU?$char_traits@D@std@@V?$allocator@D@2@@std@@@2@@1@ABV?$allocator@U?$pair@$$CBV?$basic_string@DU?$char_traits@D@std@@V?$allocator@D@2@@std@@PAVState@@@std@@@1@@Z 0042ffc0 f i mainfunction.obj
 0001:0002f0b0       ??0?$_List_const_iterator@V?$_List_val@U?$_List_simple_types@U?$pair@$$CBV?$basic_string@DU?$char_traits@D@std@@V?$allocator@D@2@@std@@PAVState@@@std@@@std@@@std@@@std@@QAE@$$QAV01@@Z 004300b0 f i mainfunction.obj
 0001:0002f0e0       ??0?$_List_const_iterator@V?$_List_val@U?$_List_simple_types@U?$pair@$$CBV?$basic_string@DU?$char_traits@D@std@@V?$allocator@D@2@@std@@PAVState@@@std@@@std@@@std@@@std@@QAE@PAU?$_List_node@U?$pair@$$CBV?$basic_string@DU?$char_traits@D@std@@V?$allocator@D@2@@std@@PAVState@@@std@@PAX@1@PBV?$_List_val@U?$_List_simple_types@U?$pair@$$CBV?$basic_string@DU?$char_traits@D@std@@V?$allocator@D@2@@std@@PAVState@@@std@@@std@@@1@@Z 004300e0 f i mainfunction.obj
 0001:0002f110       ??0?$_List_iterator@V?$_List_val@U?$_List_simple_types@U?$pair@$$CBV?$basic_string@DU?$char_traits@D@std@@V?$allocator@D@2@@std@@PAVState@@@std@@@std@@@std@@@std@@QAE@$$QAV01@@Z 00430110 f i mainfunction.obj
 0001:0002f140       ??0?$_List_iterator@V?$_List_val@U?$_List_simple_types@U?$pair@$$CBV?$basic_string@DU?$char_traits@D@std@@V?$allocator@D@2@@std@@PAVState@@@std@@@std@@@std@@@std@@QAE@PAU?$_List_node@U?$pair@$$CBV?$basic_string@DU?$char_traits@D@std@@V?$allocator@D@2@@std@@PAVState@@@std@@PAX@1@PBV?$_List_val@U?$_List_simple_types@U?$pair@$$CBV?$basic_string@DU?$char_traits@D@std@@V?$allocator@D@2@@std@@PAVState@@@std@@@std@@@1@@Z 00430140 f i mainfunction.obj
 0001:0002f170       ??0?$_List_unchecked_const_iterator@V?$_List_val@U?$_List_simple_types@U?$pair@$$CBV?$basic_string@DU?$char_traits@D@std@@V?$allocator@D@2@@std@@PAVState@@@std@@@std@@@std@@U_Iterator_base0@2@@std@@QAE@PAU?$_List_node@U?$pair@$$CBV?$basic_string@DU?$char_traits@D@std@@V?$allocator@D@2@@std@@PAVState@@@std@@PAX@1@PBV?$_List_val@U?$_List_simple_types@U?$pair@$$CBV?$basic_string@DU?$char_traits@D@std@@V?$allocator@D@2@@std@@PAVState@@@std@@@std@@@1@@Z 00430170 f i mainfunction.obj
 0001:0002f1a0       ??0?$_List_unchecked_const_iterator@V?$_List_val@U?$_List_simple_types@U?$pair@$$CBV?$basic_string@DU?$char_traits@D@std@@V?$allocator@D@2@@std@@PAVState@@@std@@@std@@@std@@U_Iterator_base12@2@@std@@QAE@$$QAV01@@Z 004301a0 f i mainfunction.obj
 0001:0002f1e0       ??0?$_List_unchecked_const_iterator@V?$_List_val@U?$_List_simple_types@U?$pair@$$CBV?$basic_string@DU?$char_traits@D@std@@V?$allocator@D@2@@std@@PAVState@@@std@@@std@@@std@@U_Iterator_base12@2@@std@@QAE@PAU?$_List_node@U?$pair@$$CBV?$basic_string@DU?$char_traits@D@std@@V?$allocator@D@2@@std@@PAVState@@@std@@PAX@1@PBV?$_List_val@U?$_List_simple_types@U?$pair@$$CBV?$basic_string@DU?$char_traits@D@std@@V?$allocator@D@2@@std@@PAVState@@@std@@@std@@@1@@Z 004301e0 f i mainfunction.obj
 0001:0002f220       ??0?$_List_unchecked_iterator@V?$_List_val@U?$_List_simple_types@U?$pair@$$CBV?$basic_string@DU?$char_traits@D@std@@V?$allocator@D@2@@std@@PAVState@@@std@@@std@@@std@@@std@@QAE@PAU?$_List_node@U?$pair@$$CBV?$basic_string@DU?$char_traits@D@std@@V?$allocator@D@2@@std@@PAVState@@@std@@PAX@1@PBV?$_List_val@U?$_List_simple_types@U?$pair@$$CBV?$basic_string@DU?$char_traits@D@std@@V?$allocator@D@2@@std@@PAVState@@@std@@@std@@@1@@Z 00430220 f i mainfunction.obj
 0001:0002f250       ??0?$_List_val@U?$_List_simple_types@U?$pair@$$CBV?$basic_string@DU?$char_traits@D@std@@V?$allocator@D@2@@std@@PAVState@@@std@@@std@@@std@@QAE@XZ 00430250 f i mainfunction.obj
 0001:0002f290       ??0?$_Uhash_compare@V?$basic_string@DU?$char_traits@D@std@@V?$allocator@D@2@@std@@U?$hash@V?$basic_string@DU?$char_traits@D@std@@V?$allocator@D@2@@std@@@2@U?$equal_to@V?$basic_string@DU?$char_traits@D@std@@V?$allocator@D@2@@std@@@2@@std@@QAE@XZ 00430290 f i mainfunction.obj
 0001:0002f2d0       ??0?$_Umap_traits@V?$basic_string@DU?$char_traits@D@std@@V?$allocator@D@2@@std@@PAVState@@V?$_Uhash_compare@V?$basic_string@DU?$char_traits@D@std@@V?$allocator@D@2@@std@@U?$hash@V?$basic_string@DU?$char_traits@D@std@@V?$allocator@D@2@@std@@@2@U?$equal_to@V?$basic_string@DU?$char_traits@D@std@@V?$allocator@D@2@@std@@@2@@2@V?$allocator@U?$pair@$$CBV?$basic_string@DU?$char_traits@D@std@@V?$allocator@D@2@@std@@PAVState@@@std@@@2@$0A@@std@@QAE@ABV?$_Uhash_compare@V?$basic_string@DU?$char_traits@D@std@@V?$allocator@D@2@@std@@U?$hash@V?$basic_string@DU?$char_traits@D@std@@V?$allocator@D@2@@std@@@2@U?$equal_to@V?$basic_string@DU?$char_traits@D@std@@V?$allocator@D@2@@std@@@2@@1@@Z 004302d0 f i mainfunction.obj
 0001:0002f2f0       ??0?$_Uninitialized_backout@PAV?$_List_unchecked_iterator@V?$_List_val@U?$_List_simple_types@U?$pair@$$CBV?$basic_string@DU?$char_traits@D@std@@V?$allocator@D@2@@std@@PAVState@@@std@@@std@@@std@@@std@@@std@@QAE@PAV?$_List_unchecked_iterator@V?$_List_val@U?$_List_simple_types@U?$pair@$$CBV?$basic_string@DU?$char_traits@D@std@@V?$allocator@D@2@@std@@PAVState@@@std@@@std@@@std@@@1@@Z 004302f0 f i mainfunction.obj
 0001:0002f320       ??0?$_Vector_val@U?$_Simple_types@PAVStationCollection@@@std@@@std@@QAE@XZ 00430320 f i mainfunction.obj
 0001:0002f370       ??0?$_Vector_val@U?$_Simple_types@V?$_List_unchecked_iterator@V?$_List_val@U?$_List_simple_types@U?$pair@$$CBV?$basic_string@DU?$char_traits@D@std@@V?$allocator@D@2@@std@@PAVState@@@std@@@std@@@std@@@std@@@std@@@std@@QAE@XZ 00430370 f i mainfunction.obj
 0001:0002f3c0       ??0?$allocator@PAVStationCollection@@@std@@QAE@XZ 004303c0 f i mainfunction.obj
 0001:0002f3e0       ??0?$allocator@U?$pair@$$CBV?$basic_string@DU?$char_traits@D@std@@V?$allocator@D@2@@std@@PAVState@@@std@@@std@@QAE@XZ 004303e0 f i mainfunction.obj
 0001:0002f400       ??0?$list@U?$pair@$$CBV?$basic_string@DU?$char_traits@D@std@@V?$allocator@D@2@@std@@PAVState@@@std@@V?$allocator@U?$pair@$$CBV?$basic_string@DU?$char_traits@D@std@@V?$allocator@D@2@@std@@PAVState@@@std@@@2@@std@@QAE@ABV?$allocator@U?$pair@$$CBV?$basic_string@DU?$char_traits@D@std@@V?$allocator@D@2@@std@@PAVState@@@std@@@1@@Z 00430400 f i mainfunction.obj
 0001:0002f440       ??0?$pair@$$CBV?$basic_string@DU?$char_traits@D@std@@V?$allocator@D@2@@std@@PAVState@@@std@@QAE@ABU01@@Z 00430440 f i mainfunction.obj
 0001:0002f480       ??0?$unordered_map@V?$basic_string@DU?$char_traits@D@std@@V?$allocator@D@2@@std@@PAVState@@U?$hash@V?$basic_string@DU?$char_traits@D@std@@V?$allocator@D@2@@std@@@2@U?$equal_to@V?$basic_string@DU?$char_traits@D@std@@V?$allocator@D@2@@std@@@2@V?$allocator@U?$pair@$$CBV?$basic_string@DU?$char_traits@D@std@@V?$allocator@D@2@@std@@PAVState@@@std@@@2@@std@@QAE@ABV01@@Z 00430480 f i mainfunction.obj
 0001:0002f4d0       ??0?$unordered_map@V?$basic_string@DU?$char_traits@D@std@@V?$allocator@D@2@@std@@PAVState@@U?$hash@V?$basic_string@DU?$char_traits@D@std@@V?$allocator@D@2@@std@@@2@U?$equal_to@V?$basic_string@DU?$char_traits@D@std@@V?$allocator@D@2@@std@@@2@V?$allocator@U?$pair@$$CBV?$basic_string@DU?$char_traits@D@std@@V?$allocator@D@2@@std@@PAVState@@@std@@@2@@std@@QAE@XZ 004304d0 f i mainfunction.obj
 0001:0002f510       ??0?$vector@PAVStationCollection@@V?$allocator@PAVStationCollection@@@std@@@std@@QAE@XZ 00430510 f i mainfunction.obj
 0001:0002f590       ??0ChooseLevelState@@QAE@XZ 00430590 f i mainfunction.obj
 0001:0002f5c0       ??0GameOverState@@QAE@XZ   004305c0 f i mainfunction.obj
 0001:0002f670       ??0GameState@@QAE@XZ       00430670 f i mainfunction.obj
 0001:0002f720       ??0HighScoreState@@QAE@XZ  00430720 f i mainfunction.obj
 0001:0002f760       ??0InstructionState@@QAE@XZ 00430760 f i mainfunction.obj
 0001:0002f7c0       ??0PauseState@@QAE@XZ      004307c0 f i mainfunction.obj
 0001:0002f7f0       ??0Scyyz12Engine2@@QAE@PAVState@@V?$unordered_map@V?$basic_string@DU?$char_traits@D@std@@V?$allocator@D@2@@std@@PAVState@@U?$hash@V?$basic_string@DU?$char_traits@D@std@@V?$allocator@D@2@@std@@@2@U?$equal_to@V?$basic_string@DU?$char_traits@D@std@@V?$allocator@D@2@@std@@@2@V?$allocator@U?$pair@$$CBV?$basic_string@DU?$char_traits@D@std@@V?$allocator@D@2@@std@@PAVState@@@std@@@2@@std@@@Z 004307f0 f i mainfunction.obj
 0001:0002f8a0       ??0StartState@@QAE@XZ      004308a0 f i mainfunction.obj
 0001:0002f920       ??0State@@QAE@XZ           00430920 f i mainfunction.obj
 0001:0002f940       ??0_Clear_guard@?$_Hash@V?$_Umap_traits@V?$basic_string@DU?$char_traits@D@std@@V?$allocator@D@2@@std@@PAVState@@V?$_Uhash_compare@V?$basic_string@DU?$char_traits@D@std@@V?$allocator@D@2@@std@@U?$hash@V?$basic_string@DU?$char_traits@D@std@@V?$allocator@D@2@@std@@@2@U?$equal_to@V?$basic_string@DU?$char_traits@D@std@@V?$allocator@D@2@@std@@@2@@2@V?$allocator@U?$pair@$$CBV?$basic_string@DU?$char_traits@D@std@@V?$allocator@D@2@@std@@PAVState@@@std@@@2@$0A@@std@@@std@@QAE@QAV12@@Z 00430940 f i mainfunction.obj
 0001:0002f960       ??0_Range_eraser@?$_Hash@V?$_Umap_traits@V?$basic_string@DU?$char_traits@D@std@@V?$allocator@D@2@@std@@PAVState@@V?$_Uhash_compare@V?$basic_string@DU?$char_traits@D@std@@V?$allocator@D@2@@std@@U?$hash@V?$basic_string@DU?$char_traits@D@std@@V?$allocator@D@2@@std@@@2@U?$equal_to@V?$basic_string@DU?$char_traits@D@std@@V?$allocator@D@2@@std@@@2@@2@V?$allocator@U?$pair@$$CBV?$basic_string@DU?$char_traits@D@std@@V?$allocator@D@2@@std@@PAVState@@@std@@@2@$0A@@std@@@std@@QAE@AAV?$list@U?$pair@$$CBV?$basic_string@DU?$char_traits@D@std@@V?$allocator@D@2@@std@@PAVState@@@std@@V?$allocator@U?$pair@$$CBV?$basic_string@DU?$char_traits@D@std@@V?$allocator@D@2@@std@@PAVState@@@std@@@2@@2@QAU?$_List_node@U?$pair@$$CBV?$basic_string@DU?$char_traits@D@std@@V?$allocator@D@2@@std@@PAVState@@@std@@PAX@2@@Z 00430960 f i mainfunction.obj
 0001:0002f9a0       ??1?$_Alloc_construct_ptr@V?$allocator@U?$_List_node@U?$pair@$$CBV?$basic_string@DU?$char_traits@D@std@@V?$allocator@D@2@@std@@PAVState@@@std@@PAX@std@@@std@@@std@@QAE@XZ 004309a0 f i mainfunction.obj
 0001:0002fa10       ??1?$_Hash@V?$_Umap_traits@V?$basic_string@DU?$char_traits@D@std@@V?$allocator@D@2@@std@@PAVState@@V?$_Uhash_compare@V?$basic_string@DU?$char_traits@D@std@@V?$allocator@D@2@@std@@U?$hash@V?$basic_string@DU?$char_traits@D@std@@V?$allocator@D@2@@std@@@2@U?$equal_to@V?$basic_string@DU?$char_traits@D@std@@V?$allocator@D@2@@std@@@2@@2@V?$allocator@U?$pair@$$CBV?$basic_string@DU?$char_traits@D@std@@V?$allocator@D@2@@std@@PAVState@@@std@@@2@$0A@@std@@@std@@QAE@XZ 00430a10 f i mainfunction.obj
 0001:0002fa40       ??1?$_Hash_vec@V?$allocator@V?$_List_unchecked_iterator@V?$_List_val@U?$_List_simple_types@U?$pair@$$CBV?$basic_string@DU?$char_traits@D@std@@V?$allocator@D@2@@std@@PAVState@@@std@@@std@@@std@@@std@@@std@@@std@@QAE@XZ 00430a40 f i mainfunction.obj
 0001:0002fab0       ??1?$_List_const_iterator@V?$_List_val@U?$_List_simple_types@U?$pair@$$CBV?$basic_string@DU?$char_traits@D@std@@V?$allocator@D@2@@std@@PAVState@@@std@@@std@@@std@@@std@@QAE@XZ 00430ab0 f i mainfunction.obj
 0001:0002fad0       ??1?$_List_iterator@V?$_List_val@U?$_List_simple_types@U?$pair@$$CBV?$basic_string@DU?$char_traits@D@std@@V?$allocator@D@2@@std@@PAVState@@@std@@@std@@@std@@@std@@QAE@XZ 00430ad0 f i mainfunction.obj
 0001:0002faf0       ??1?$_List_node_emplace_op2@V?$allocator@U?$_List_node@U?$pair@$$CBV?$basic_string@DU?$char_traits@D@std@@V?$allocator@D@2@@std@@PAVState@@@std@@PAX@std@@@std@@@std@@QAE@XZ 00430af0 f i mainfunction.obj
 0001:0002fb80       ??1?$_List_unchecked_const_iterator@V?$_List_val@U?$_List_simple_types@U?$pair@$$CBV?$basic_string@DU?$char_traits@D@std@@V?$allocator@D@2@@std@@PAVState@@@std@@@std@@@std@@U_Iterator_base12@2@@std@@QAE@XZ 00430b80 f i mainfunction.obj
 0001:0002fba0       ??1?$_Tree@V?$_Tmap_traits@V?$basic_string@DU?$char_traits@D@std@@V?$allocator@D@2@@std@@V?$shared_ptr@VRawImageData@@@2@U?$less@V?$basic_string@DU?$char_traits@D@std@@V?$allocator@D@2@@std@@@2@V?$allocator@U?$pair@$$CBV?$basic_string@DU?$char_traits@D@std@@V?$allocator@D@2@@std@@V?$shared_ptr@VRawImageData@@@2@@std@@@2@$0A@@std@@@std@@QAE@XZ 00430ba0 f i mainfunction.obj
 0001:0002fc10       ??1?$_Uninitialized_backout@PAV?$_List_unchecked_iterator@V?$_List_val@U?$_List_simple_types@U?$pair@$$CBV?$basic_string@DU?$char_traits@D@std@@V?$allocator@D@2@@std@@PAVState@@@std@@@std@@@std@@@std@@@std@@QAE@XZ 00430c10 f i mainfunction.obj
 0001:0002fc40       ??1?$list@U?$pair@$$CBV?$basic_string@DU?$char_traits@D@std@@V?$allocator@D@2@@std@@PAVState@@@std@@V?$allocator@U?$pair@$$CBV?$basic_string@DU?$char_traits@D@std@@V?$allocator@D@2@@std@@PAVState@@@std@@@2@@std@@QAE@XZ 00430c40 f i mainfunction.obj
 0001:0002fc90       ??1?$map@V?$basic_string@DU?$char_traits@D@std@@V?$allocator@D@2@@std@@V?$shared_ptr@VRawImageData@@@2@U?$less@V?$basic_string@DU?$char_traits@D@std@@V?$allocator@D@2@@std@@@2@V?$allocator@U?$pair@$$CBV?$basic_string@DU?$char_traits@D@std@@V?$allocator@D@2@@std@@V?$shared_ptr@VRawImageData@@@2@@std@@@2@@std@@QAE@XZ 00430c90 f i mainfunction.obj
 0001:0002fcb0       ??1?$pair@$$CBV?$basic_string@DU?$char_traits@D@std@@V?$allocator@D@2@@std@@PAVState@@@std@@QAE@XZ 00430cb0 f i mainfunction.obj
 0001:0002fcd0       ??1?$pair@V?$_List_iterator@V?$_List_val@U?$_List_simple_types@U?$pair@$$CBV?$basic_string@DU?$char_traits@D@std@@V?$allocator@D@2@@std@@PAVState@@@std@@@std@@@std@@@std@@_N@std@@QAE@XZ 00430cd0 f i mainfunction.obj
 0001:0002fcf0       ??1?$unordered_map@V?$basic_string@DU?$char_traits@D@std@@V?$allocator@D@2@@std@@PAVState@@U?$hash@V?$basic_string@DU?$char_traits@D@std@@V?$allocator@D@2@@std@@@2@U?$equal_to@V?$basic_string@DU?$char_traits@D@std@@V?$allocator@D@2@@std@@@2@V?$allocator@U?$pair@$$CBV?$basic_string@DU?$char_traits@D@std@@V?$allocator@D@2@@std@@PAVState@@@std@@@2@@std@@QAE@XZ 00430cf0 f i mainfunction.obj
 0001:0002fd10       ??1?$vector@PAVStationCollection@@V?$allocator@PAVStationCollection@@@std@@@std@@QAE@XZ 00430d10 f i mainfunction.obj
 0001:0002fd80       ??1CarriageCollection@@QAE@XZ 00430d80 f i mainfunction.obj
 0001:0002fdd0       ??1ChooseLevelState@@UAE@XZ 00430dd0 f i mainfunction.obj
 0001:0002fdf0       ??1GameOverState@@UAE@XZ   00430df0 f i mainfunction.obj
 0001:0002fe20       ??1GameState@@UAE@XZ       00430e20 f i mainfunction.obj
 0001:0002fe80       ??1HighScoreState@@UAE@XZ  00430e80 f i mainfunction.obj
 0001:0002feb0       ??1ImageManager@@QAE@XZ    00430eb0 f i mainfunction.obj
 0001:0002fee0       ??1InstructionState@@UAE@XZ 00430ee0 f i mainfunction.obj
 0001:0002ffc0       ??1PauseState@@UAE@XZ      00430fc0 f i mainfunction.obj
 0001:0002ffe0       ??1Scyyz12Engine2@@UAE@XZ  00430fe0 f i mainfunction.obj
 0001:00030010       ??1StartState@@UAE@XZ      00431010 f i mainfunction.obj
 0001:00030120       ??1State@@UAE@XZ           00431120 f i mainfunction.obj
 0001:00030140       ??1StationCollection@@QAE@XZ 00431140 f i mainfunction.obj
 0001:00030190       ??1Train@@QAE@XZ           00431190 f i mainfunction.obj
 0001:00030220       ??1TrainCollection@@QAE@XZ 00431220 f i mainfunction.obj
 0001:00030260       ??1_Clear_guard@?$_Hash@V?$_Umap_traits@V?$basic_string@DU?$char_traits@D@std@@V?$allocator@D@2@@std@@PAVState@@V?$_Uhash_compare@V?$basic_string@DU?$char_traits@D@std@@V?$allocator@D@2@@std@@U?$hash@V?$basic_string@DU?$char_traits@D@std@@V?$allocator@D@2@@std@@@2@U?$equal_to@V?$basic_string@DU?$char_traits@D@std@@V?$allocator@D@2@@std@@@2@@2@V?$allocator@U?$pair@$$CBV?$basic_string@DU?$char_traits@D@std@@V?$allocator@D@2@@std@@PAVState@@@std@@@2@$0A@@std@@@std@@QAE@XZ 00431260 f i mainfunction.obj
 0001:00030290       ??1_Range_eraser@?$_Hash@V?$_Umap_traits@V?$basic_string@DU?$char_traits@D@std@@V?$allocator@D@2@@std@@PAVState@@V?$_Uhash_compare@V?$basic_string@DU?$char_traits@D@std@@V?$allocator@D@2@@std@@U?$hash@V?$basic_string@DU?$char_traits@D@std@@V?$allocator@D@2@@std@@@2@U?$equal_to@V?$basic_string@DU?$char_traits@D@std@@V?$allocator@D@2@@std@@@2@@2@V?$allocator@U?$pair@$$CBV?$basic_string@DU?$char_traits@D@std@@V?$allocator@D@2@@std@@PAVState@@@std@@@2@$0A@@std@@@std@@QAE@XZ 00431290 f i mainfunction.obj
 0001:000302c0       ??8?$_List_unchecked_const_iterator@V?$_List_val@U?$_List_simple_types@U?$pair@$$CBV?$basic_string@DU?$char_traits@D@std@@V?$allocator@D@2@@std@@PAVState@@@std@@@std@@@std@@U_Iterator_base0@2@@std@@QBE_NABV01@@Z 004312c0 f i mainfunction.obj
 0001:00030300       ??9?$_List_unchecked_const_iterator@V?$_List_val@U?$_List_simple_types@U?$pair@$$CBV?$basic_string@DU?$char_traits@D@std@@V?$allocator@D@2@@std@@PAVState@@@std@@@std@@@std@@U_Iterator_base0@2@@std@@QBE_NABV01@@Z 00431300 f i mainfunction.obj
 0001:00030350       ??A?$vector@PAVCarriageCollection@@V?$allocator@PAVCarriageCollection@@@std@@@std@@QAEAAPAVCarriageCollection@@I@Z 00431350 f i mainfunction.obj
 0001:00030400       ??D?$_List_unchecked_const_iterator@V?$_List_val@U?$_List_simple_types@U?$pair@$$CBV?$basic_string@DU?$char_traits@D@std@@V?$allocator@D@2@@std@@PAVState@@@std@@@std@@@std@@U_Iterator_base0@2@@std@@QBEABU?$pair@$$CBV?$basic_string@DU?$char_traits@D@std@@V?$allocator@D@2@@std@@PAVState@@@1@XZ 00431400 f i mainfunction.obj
 0001:00030420       ??D?$_List_unchecked_iterator@V?$_List_val@U?$_List_simple_types@U?$pair@$$CBV?$basic_string@DU?$char_traits@D@std@@V?$allocator@D@2@@std@@PAVState@@@std@@@std@@@std@@@std@@QBEAAU?$pair@$$CBV?$basic_string@DU?$char_traits@D@std@@V?$allocator@D@2@@std@@PAVState@@@1@XZ 00431420 f i mainfunction.obj
 0001:00030440       ??E?$_List_unchecked_const_iterator@V?$_List_val@U?$_List_simple_types@U?$pair@$$CBV?$basic_string@DU?$char_traits@D@std@@V?$allocator@D@2@@std@@PAVState@@@std@@@std@@@std@@U_Iterator_base0@2@@std@@QAEAAV01@XZ 00431440 f i mainfunction.obj
 0001:00030460       ??E?$_List_unchecked_iterator@V?$_List_val@U?$_List_simple_types@U?$pair@$$CBV?$basic_string@DU?$char_traits@D@std@@V?$allocator@D@2@@std@@PAVState@@@std@@@std@@@std@@@std@@QAEAAV01@XZ 00431460 f i mainfunction.obj
 0001:00030480       ??F?$_List_unchecked_const_iterator@V?$_List_val@U?$_List_simple_types@U?$pair@$$CBV?$basic_string@DU?$char_traits@D@std@@V?$allocator@D@2@@std@@PAVState@@@std@@@std@@@std@@U_Iterator_base0@2@@std@@QAEAAV01@XZ 00431480 f i mainfunction.obj
 0001:000304b0       ??_G?$pair@$$CBV?$basic_string@DU?$char_traits@D@std@@V?$allocator@D@2@@std@@PAVState@@@std@@QAEPAXI@Z 004314b0 f i mainfunction.obj
 0001:000304f0       ??_GCarriageCollection@@QAEPAXI@Z 004314f0 f i mainfunction.obj
 0001:00030530       ??_GChooseLevelState@@UAEPAXI@Z 00431530 f i mainfunction.obj
 0001:00030530       ??_EChooseLevelState@@UAEPAXI@Z 00431530 f i mainfunction.obj
 0001:00030570       ??_GDrawingSurface@@QAEPAXI@Z 00431570 f i mainfunction.obj
 0001:000305b0       ??_GGameOverState@@UAEPAXI@Z 004315b0 f i mainfunction.obj
 0001:000305b0       ??_EGameOverState@@UAEPAXI@Z 004315b0 f i mainfunction.obj
 0001:000305f0       ??_GGameState@@UAEPAXI@Z   004315f0 f i mainfunction.obj
 0001:000305f0       ??_EGameState@@UAEPAXI@Z   004315f0 f i mainfunction.obj
 0001:00030630       ??_EHighScoreState@@UAEPAXI@Z 00431630 f i mainfunction.obj
 0001:00030630       ??_GHighScoreState@@UAEPAXI@Z 00431630 f i mainfunction.obj
 0001:00030670       ??_GImageManager@@QAEPAXI@Z 00431670 f i mainfunction.obj
 0001:000306b0       ??_GInstructionState@@UAEPAXI@Z 004316b0 f i mainfunction.obj
 0001:000306b0       ??_EInstructionState@@UAEPAXI@Z 004316b0 f i mainfunction.obj
 0001:000306f0       ??_EPauseState@@UAEPAXI@Z  004316f0 f i mainfunction.obj
 0001:000306f0       ??_GPauseState@@UAEPAXI@Z  004316f0 f i mainfunction.obj
 0001:00030730       ??_EScyyz12Engine2@@UAEPAXI@Z 00431730 f i mainfunction.obj
 0001:00030730       ??_GScyyz12Engine2@@UAEPAXI@Z 00431730 f i mainfunction.obj
 0001:00030770       ??_EStartState@@UAEPAXI@Z  00431770 f i mainfunction.obj
 0001:00030770       ??_GStartState@@UAEPAXI@Z  00431770 f i mainfunction.obj
 0001:000307b0       ??_EState@@UAEPAXI@Z       004317b0 f i mainfunction.obj
 0001:000307b0       ??_GState@@UAEPAXI@Z       004317b0 f i mainfunction.obj
 0001:000307f0       ??_GStationCollection@@QAEPAXI@Z 004317f0 f i mainfunction.obj
 0001:00030830       ??_GTrain@@QAEPAXI@Z       00431830 f i mainfunction.obj
 0001:00030870       ??_GTrainCollection@@QAEPAXI@Z 00431870 f i mainfunction.obj
 0001:000308b0       ?_Alloc_sentinel_and_proxy@?$list@U?$pair@$$CBV?$basic_string@DU?$char_traits@D@std@@V?$allocator@D@2@@std@@PAVState@@@std@@V?$allocator@U?$pair@$$CBV?$basic_string@DU?$char_traits@D@std@@V?$allocator@D@2@@std@@PAVState@@@std@@@2@@std@@AAEXXZ 004318b0 f i mainfunction.obj
 0001:000309a0       ?_Allocate@?$_Alloc_construct_ptr@V?$allocator@U?$_List_node@U?$pair@$$CBV?$basic_string@DU?$char_traits@D@std@@V?$allocator@D@2@@std@@PAVState@@@std@@PAX@std@@@std@@@std@@QAEXXZ 004319a0 f i mainfunction.obj
 0001:000309d0       ?_Assign_grow@?$_Hash_vec@V?$allocator@V?$_List_unchecked_iterator@V?$_List_val@U?$_List_simple_types@U?$pair@$$CBV?$basic_string@DU?$char_traits@D@std@@V?$allocator@D@2@@std@@PAVState@@@std@@@std@@@std@@@std@@@std@@@std@@QAEXIV?$_List_unchecked_iterator@V?$_List_val@U?$_List_simple_types@U?$pair@$$CBV?$basic_string@DU?$char_traits@D@std@@V?$allocator@D@2@@std@@PAVState@@@std@@@std@@@std@@@2@@Z 004319d0 f i mainfunction.obj
 0001:00030ad0       ?_Bump_erased@_Range_eraser@?$_Hash@V?$_Umap_traits@V?$basic_string@DU?$char_traits@D@std@@V?$allocator@D@2@@std@@PAVState@@V?$_Uhash_compare@V?$basic_string@DU?$char_traits@D@std@@V?$allocator@D@2@@std@@U?$hash@V?$basic_string@DU?$char_traits@D@std@@V?$allocator@D@2@@std@@@2@U?$equal_to@V?$basic_string@DU?$char_traits@D@std@@V?$allocator@D@2@@std@@@2@@2@V?$allocator@U?$pair@$$CBV?$basic_string@DU?$char_traits@D@std@@V?$allocator@D@2@@std@@PAVState@@@std@@@2@$0A@@std@@@std@@QAEXXZ 00431ad0 f i mainfunction.obj
 0001:00030af0       ?_Ceiling_of_log_2@std@@YAKI@Z 00431af0 f i mainfunction.obj
 0001:00030b10       ?_Check_max_size@?$_Hash@V?$_Umap_traits@V?$basic_string@DU?$char_traits@D@std@@V?$allocator@D@2@@std@@PAVState@@V?$_Uhash_compare@V?$basic_string@DU?$char_traits@D@std@@V?$allocator@D@2@@std@@U?$hash@V?$basic_string@DU?$char_traits@D@std@@V?$allocator@D@2@@std@@@2@U?$equal_to@V?$basic_string@DU?$char_traits@D@std@@V?$allocator@D@2@@std@@@2@@2@V?$allocator@U?$pair@$$CBV?$basic_string@DU?$char_traits@D@std@@V?$allocator@D@2@@std@@PAVState@@@std@@@2@$0A@@std@@@std@@IBEXXZ 00431b10 f i mainfunction.obj
 0001:00030b50       ?_Check_rehash_required_1@?$_Hash@V?$_Umap_traits@V?$basic_string@DU?$char_traits@D@std@@V?$allocator@D@2@@std@@PAVState@@V?$_Uhash_compare@V?$basic_string@DU?$char_traits@D@std@@V?$allocator@D@2@@std@@U?$hash@V?$basic_string@DU?$char_traits@D@std@@V?$allocator@D@2@@std@@@2@U?$equal_to@V?$basic_string@DU?$char_traits@D@std@@V?$allocator@D@2@@std@@@2@@2@V?$allocator@U?$pair@$$CBV?$basic_string@DU?$char_traits@D@std@@V?$allocator@D@2@@std@@PAVState@@@std@@@2@$0A@@std@@@std@@IBE_NXZ 00431b50 f i mainfunction.obj
 0001:00030c30       ?_Desired_grow_bucket_count@?$_Hash@V?$_Umap_traits@V?$basic_string@DU?$char_traits@D@std@@V?$allocator@D@2@@std@@PAVState@@V?$_Uhash_compare@V?$basic_string@DU?$char_traits@D@std@@V?$allocator@D@2@@std@@U?$hash@V?$basic_string@DU?$char_traits@D@std@@V?$allocator@D@2@@std@@@2@U?$equal_to@V?$basic_string@DU?$char_traits@D@std@@V?$allocator@D@2@@std@@@2@@2@V?$allocator@U?$pair@$$CBV?$basic_string@DU?$char_traits@D@std@@V?$allocator@D@2@@std@@PAVState@@@std@@@2@$0A@@std@@@std@@IBEII@Z 00431c30 f i mainfunction.obj
 0001:00030cc0       ?_Extract@?$_In_place_key_extract_map@V?$basic_string@DU?$char_traits@D@std@@V?$allocator@D@2@@std@@U?$pair@$$CBV?$basic_string@DU?$char_traits@D@std@@V?$allocator@D@2@@std@@PAVState@@@2@@std@@SAABV?$basic_string@DU?$char_traits@D@std@@V?$allocator@D@2@@2@ABU?$pair@$$CBV?$basic_string@DU?$char_traits@D@std@@V?$allocator@D@2@@std@@PAVState@@@2@@Z 00431cc0 f i mainfunction.obj
 0001:00030cd0       ?_Floor_of_log_2@std@@YAKI@Z 00431cd0 f i mainfunction.obj
 0001:00030d00       ?_Forced_rehash@?$_Hash@V?$_Umap_traits@V?$basic_string@DU?$char_traits@D@std@@V?$allocator@D@2@@std@@PAVState@@V?$_Uhash_compare@V?$basic_string@DU?$char_traits@D@std@@V?$allocator@D@2@@std@@U?$hash@V?$basic_string@DU?$char_traits@D@std@@V?$allocator@D@2@@std@@@2@U?$equal_to@V?$basic_string@DU?$char_traits@D@std@@V?$allocator@D@2@@std@@@2@@2@V?$allocator@U?$pair@$$CBV?$basic_string@DU?$char_traits@D@std@@V?$allocator@D@2@@std@@PAVState@@@std@@@2@$0A@@std@@@std@@IAEXI@Z 00431d00 f i mainfunction.obj
 0001:00031020       ?_Get_first@?$_Compressed_pair@V?$allocator@U?$_List_node@U?$pair@$$CBV?$basic_string@DU?$char_traits@D@std@@V?$allocator@D@2@@std@@PAVState@@@std@@PAX@std@@@std@@V?$_List_val@U?$_List_simple_types@U?$pair@$$CBV?$basic_string@DU?$char_traits@D@std@@V?$allocator@D@2@@std@@PAVState@@@std@@@std@@@2@$00@std@@QAEAAV?$allocator@U?$_List_node@U?$pair@$$CBV?$basic_string@DU?$char_traits@D@std@@V?$allocator@D@2@@std@@PAVState@@@std@@PAX@std@@@2@XZ 00432020 f i mainfunction.obj
 0001:00031040       ?_Get_first@?$_Compressed_pair@V?$allocator@U?$_List_node@U?$pair@$$CBV?$basic_string@DU?$char_traits@D@std@@V?$allocator@D@2@@std@@PAVState@@@std@@PAX@std@@@std@@V?$_List_val@U?$_List_simple_types@U?$pair@$$CBV?$basic_string@DU?$char_traits@D@std@@V?$allocator@D@2@@std@@PAVState@@@std@@@std@@@2@$00@std@@QBEABV?$allocator@U?$_List_node@U?$pair@$$CBV?$basic_string@DU?$char_traits@D@std@@V?$allocator@D@2@@std@@PAVState@@@std@@PAX@std@@@2@XZ 00432040 f i mainfunction.obj
 0001:00031060       ?_Get_first@?$_Compressed_pair@V?$allocator@V?$_List_unchecked_iterator@V?$_List_val@U?$_List_simple_types@U?$pair@$$CBV?$basic_string@DU?$char_traits@D@std@@V?$allocator@D@2@@std@@PAVState@@@std@@@std@@@std@@@std@@@std@@V?$_Vector_val@U?$_Simple_types@V?$_List_unchecked_iterator@V?$_List_val@U?$_List_simple_types@U?$pair@$$CBV?$basic_string@DU?$char_traits@D@std@@V?$allocator@D@2@@std@@PAVState@@@std@@@std@@@std@@@std@@@std@@@2@$00@std@@QAEAAV?$allocator@V?$_List_unchecked_iterator@V?$_List_val@U?$_List_simple_types@U?$pair@$$CBV?$basic_string@DU?$char_traits@D@std@@V?$allocator@D@2@@std@@PAVState@@@std@@@std@@@std@@@std@@@2@XZ 00432060 f i mainfunction.obj
 0001:00031080       ?_Get_first@?$_Compressed_pair@V?$allocator@V?$_List_unchecked_iterator@V?$_List_val@U?$_List_simple_types@U?$pair@$$CBV?$basic_string@DU?$char_traits@D@std@@V?$allocator@D@2@@std@@PAVState@@@std@@@std@@@std@@@std@@@std@@V?$_Vector_val@U?$_Simple_types@V?$_List_unchecked_iterator@V?$_List_val@U?$_List_simple_types@U?$pair@$$CBV?$basic_string@DU?$char_traits@D@std@@V?$allocator@D@2@@std@@PAVState@@@std@@@std@@@std@@@std@@@std@@@2@$00@std@@QBEABV?$allocator@V?$_List_unchecked_iterator@V?$_List_val@U?$_List_simple_types@U?$pair@$$CBV?$basic_string@DU?$char_traits@D@std@@V?$allocator@D@2@@std@@PAVState@@@std@@@std@@@std@@@std@@@2@XZ 00432080 f i mainfunction.obj
 0001:000310a0       ?_Get_max_bucket_size@?$_Uhash_compare@V?$basic_string@DU?$char_traits@D@std@@V?$allocator@D@2@@std@@U?$hash@V?$basic_string@DU?$char_traits@D@std@@V?$allocator@D@2@@std@@@2@U?$equal_to@V?$basic_string@DU?$char_traits@D@std@@V?$allocator@D@2@@std@@@2@@std@@QAEAAMXZ 004320a0 f i mainfunction.obj
 0001:000310c0       ?_Get_max_bucket_size@?$_Uhash_compare@V?$basic_string@DU?$char_traits@D@std@@V?$allocator@D@2@@std@@U?$hash@V?$basic_string@DU?$char_traits@D@std@@V?$allocator@D@2@@std@@@2@U?$equal_to@V?$basic_string@DU?$char_traits@D@std@@V?$allocator@D@2@@std@@@2@@std@@QBEABMXZ 004320c0 f i mainfunction.obj
 0001:000310e0       ?_Getal@?$_Hash@V?$_Umap_traits@V?$basic_string@DU?$char_traits@D@std@@V?$allocator@D@2@@std@@PAVState@@V?$_Uhash_compare@V?$basic_string@DU?$char_traits@D@std@@V?$allocator@D@2@@std@@U?$hash@V?$basic_string@DU?$char_traits@D@std@@V?$allocator@D@2@@std@@@2@U?$equal_to@V?$basic_string@DU?$char_traits@D@std@@V?$allocator@D@2@@std@@@2@@2@V?$allocator@U?$pair@$$CBV?$basic_string@DU?$char_traits@D@std@@V?$allocator@D@2@@std@@PAVState@@@std@@@2@$0A@@std@@@std@@IBEABV?$allocator@U?$_List_node@U?$pair@$$CBV?$basic_string@DU?$char_traits@D@std@@V?$allocator@D@2@@std@@PAVState@@@std@@PAX@std@@@2@XZ 004320e0 f i mainfunction.obj
 0001:00031100       ?_Getal@?$list@U?$pair@$$CBV?$basic_string@DU?$char_traits@D@std@@V?$allocator@D@2@@std@@PAVState@@@std@@V?$allocator@U?$pair@$$CBV?$basic_string@DU?$char_traits@D@std@@V?$allocator@D@2@@std@@PAVState@@@std@@@2@@std@@AAEAAV?$allocator@U?$_List_node@U?$pair@$$CBV?$basic_string@DU?$char_traits@D@std@@V?$allocator@D@2@@std@@PAVState@@@std@@PAX@std@@@2@XZ 00432100 f i mainfunction.obj
 0001:00031120       ?_Getal@?$list@U?$pair@$$CBV?$basic_string@DU?$char_traits@D@std@@V?$allocator@D@2@@std@@PAVState@@@std@@V?$allocator@U?$pair@$$CBV?$basic_string@DU?$char_traits@D@std@@V?$allocator@D@2@@std@@PAVState@@@std@@@2@@std@@ABEABV?$allocator@U?$_List_node@U?$pair@$$CBV?$basic_string@DU?$char_traits@D@std@@V?$allocator@D@2@@std@@PAVState@@@std@@PAX@std@@@2@XZ 00432120 f i mainfunction.obj
 0001:00031140       ?_Insert_new_node_before@?$_Hash@V?$_Umap_traits@V?$basic_string@DU?$char_traits@D@std@@V?$allocator@D@2@@std@@PAVState@@V?$_Uhash_compare@V?$basic_string@DU?$char_traits@D@std@@V?$allocator@D@2@@std@@U?$hash@V?$basic_string@DU?$char_traits@D@std@@V?$allocator@D@2@@std@@@2@U?$equal_to@V?$basic_string@DU?$char_traits@D@std@@V?$allocator@D@2@@std@@@2@@2@V?$allocator@U?$pair@$$CBV?$basic_string@DU?$char_traits@D@std@@V?$allocator@D@2@@std@@PAVState@@@std@@@2@$0A@@std@@@std@@IAEPAU?$_List_node@U?$pair@$$CBV?$basic_string@DU?$char_traits@D@std@@V?$allocator@D@2@@std@@PAVState@@@std@@PAX@2@IQAU32@0@Z 00432140 f i mainfunction.obj
 0001:00031260       ?_Make_iter@?$list@U?$pair@$$CBV?$basic_string@DU?$char_traits@D@std@@V?$allocator@D@2@@std@@PAVState@@@std@@V?$allocator@U?$pair@$$CBV?$basic_string@DU?$char_traits@D@std@@V?$allocator@D@2@@std@@PAVState@@@std@@@2@@std@@QBE?AV?$_List_iterator@V?$_List_val@U?$_List_simple_types@U?$pair@$$CBV?$basic_string@DU?$char_traits@D@std@@V?$allocator@D@2@@std@@PAVState@@@std@@@std@@@std@@@2@PAU?$_List_node@U?$pair@$$CBV?$basic_string@DU?$char_traits@D@std@@V?$allocator@D@2@@std@@PAVState@@@std@@PAX@2@@Z 00432260 f i mainfunction.obj
 0001:000312a0       ?_Max_bucket_size@?$_Hash@V?$_Umap_traits@V?$basic_string@DU?$char_traits@D@std@@V?$allocator@D@2@@std@@PAVState@@V?$_Uhash_compare@V?$basic_string@DU?$char_traits@D@std@@V?$allocator@D@2@@std@@U?$hash@V?$basic_string@DU?$char_traits@D@std@@V?$allocator@D@2@@std@@@2@U?$equal_to@V?$basic_string@DU?$char_traits@D@std@@V?$allocator@D@2@@std@@@2@@2@V?$allocator@U?$pair@$$CBV?$basic_string@DU?$char_traits@D@std@@V?$allocator@D@2@@std@@PAVState@@@std@@@2@$0A@@std@@@std@@IAEAAMXZ 004322a0 f i mainfunction.obj
 0001:000312c0       ?_Max_bucket_size@?$_Hash@V?$_Umap_traits@V?$basic_string@DU?$char_traits@D@std@@V?$allocator@D@2@@std@@PAVState@@V?$_Uhash_compare@V?$basic_string@DU?$char_traits@D@std@@V?$allocator@D@2@@std@@U?$hash@V?$basic_string@DU?$char_traits@D@std@@V?$allocator@D@2@@std@@@2@U?$equal_to@V?$basic_string@DU?$char_traits@D@std@@V?$allocator@D@2@@std@@@2@@2@V?$allocator@U?$pair@$$CBV?$basic_string@DU?$char_traits@D@std@@V?$allocator@D@2@@std@@PAVState@@@std@@@2@$0A@@std@@@std@@IBEABMXZ 004322c0 f i mainfunction.obj
 0001:000312e0       ?_Min_load_factor_buckets@?$_Hash@V?$_Umap_traits@V?$basic_string@DU?$char_traits@D@std@@V?$allocator@D@2@@std@@PAVState@@V?$_Uhash_compare@V?$basic_string@DU?$char_traits@D@std@@V?$allocator@D@2@@std@@U?$hash@V?$basic_string@DU?$char_traits@D@std@@V?$allocator@D@2@@std@@@2@U?$equal_to@V?$basic_string@DU?$char_traits@D@std@@V?$allocator@D@2@@std@@@2@@2@V?$allocator@U?$pair@$$CBV?$basic_string@DU?$char_traits@D@std@@V?$allocator@D@2@@std@@PAVState@@@std@@@2@$0A@@std@@@std@@IBEII@Z 004322e0 f i mainfunction.obj
 0001:00031370       ?_Orphan_non_end@?$_List_val@U?$_List_simple_types@U?$pair@$$CBV?$basic_string@DU?$char_traits@D@std@@V?$allocator@D@2@@std@@PAVState@@@std@@@std@@@std@@QAEXXZ 00432370 f i mainfunction.obj
 0001:00031410       ?_Rehash_for_1@?$_Hash@V?$_Umap_traits@V?$basic_string@DU?$char_traits@D@std@@V?$allocator@D@2@@std@@PAVState@@V?$_Uhash_compare@V?$basic_string@DU?$char_traits@D@std@@V?$allocator@D@2@@std@@U?$hash@V?$basic_string@DU?$char_traits@D@std@@V?$allocator@D@2@@std@@@2@U?$equal_to@V?$basic_string@DU?$char_traits@D@std@@V?$allocator@D@2@@std@@@2@@2@V?$allocator@U?$pair@$$CBV?$basic_string@DU?$char_traits@D@std@@V?$allocator@D@2@@std@@PAVState@@@std@@@2@$0A@@std@@@std@@IAEXXZ 00432410 f i mainfunction.obj
 0001:00031460       ?_Release@?$_Alloc_construct_ptr@V?$allocator@U?$_List_node@U?$pair@$$CBV?$basic_string@DU?$char_traits@D@std@@V?$allocator@D@2@@std@@PAVState@@@std@@PAX@std@@@std@@@std@@QAEPAU?$_List_node@U?$pair@$$CBV?$basic_string@DU?$char_traits@D@std@@V?$allocator@D@2@@std@@PAVState@@@std@@PAX@2@XZ 00432460 f i mainfunction.obj
 0001:00031490       ?_Release@?$_Uninitialized_backout@PAV?$_List_unchecked_iterator@V?$_List_val@U?$_List_simple_types@U?$pair@$$CBV?$basic_string@DU?$char_traits@D@std@@V?$allocator@D@2@@std@@PAVState@@@std@@@std@@@std@@@std@@@std@@QAEPAV?$_List_unchecked_iterator@V?$_List_val@U?$_List_simple_types@U?$pair@$$CBV?$basic_string@DU?$char_traits@D@std@@V?$allocator@D@2@@std@@PAVState@@@std@@@std@@@std@@@2@XZ 00432490 f i mainfunction.obj
 0001:000314c0       ?_Tidy@?$_Hash_vec@V?$allocator@V?$_List_unchecked_iterator@V?$_List_val@U?$_List_simple_types@U?$pair@$$CBV?$basic_string@DU?$char_traits@D@std@@V?$allocator@D@2@@std@@PAVState@@@std@@@std@@@std@@@std@@@std@@@std@@QAEXXZ 004324c0 f i mainfunction.obj
 0001:00031570       ?_Tidy@?$list@U?$pair@$$CBV?$basic_string@DU?$char_traits@D@std@@V?$allocator@D@2@@std@@PAVState@@@std@@V?$allocator@U?$pair@$$CBV?$basic_string@DU?$char_traits@D@std@@V?$allocator@D@2@@std@@PAVState@@@std@@@2@@std@@AAEXXZ 00432570 f i mainfunction.obj
 0001:000315d0       ?_Tidy@?$vector@PAVStationCollection@@V?$allocator@PAVStationCollection@@@std@@@std@@AAEXXZ 004325d0 f i mainfunction.obj
 0001:000316c0       ?_Unchecked_begin@?$_Hash@V?$_Umap_traits@V?$basic_string@DU?$char_traits@D@std@@V?$allocator@D@2@@std@@PAVState@@V?$_Uhash_compare@V?$basic_string@DU?$char_traits@D@std@@V?$allocator@D@2@@std@@U?$hash@V?$basic_string@DU?$char_traits@D@std@@V?$allocator@D@2@@std@@@2@U?$equal_to@V?$basic_string@DU?$char_traits@D@std@@V?$allocator@D@2@@std@@@2@@2@V?$allocator@U?$pair@$$CBV?$basic_string@DU?$char_traits@D@std@@V?$allocator@D@2@@std@@PAVState@@@std@@@2@$0A@@std@@@std@@QAE?AV?$_List_unchecked_iterator@V?$_List_val@U?$_List_simple_types@U?$pair@$$CBV?$basic_string@DU?$char_traits@D@std@@V?$allocator@D@2@@std@@PAVState@@@std@@@std@@@std@@@2@XZ 004326c0 f i mainfunction.obj
 0001:000316f0       ?_Unchecked_begin@?$_Hash@V?$_Umap_traits@V?$basic_string@DU?$char_traits@D@std@@V?$allocator@D@2@@std@@PAVState@@V?$_Uhash_compare@V?$basic_string@DU?$char_traits@D@std@@V?$allocator@D@2@@std@@U?$hash@V?$basic_string@DU?$char_traits@D@std@@V?$allocator@D@2@@std@@@2@U?$equal_to@V?$basic_string@DU?$char_traits@D@std@@V?$allocator@D@2@@std@@@2@@2@V?$allocator@U?$pair@$$CBV?$basic_string@DU?$char_traits@D@std@@V?$allocator@D@2@@std@@PAVState@@@std@@@2@$0A@@std@@@std@@QBE?AV?$_List_unchecked_const_iterator@V?$_List_val@U?$_List_simple_types@U?$pair@$$CBV?$basic_string@DU?$char_traits@D@std@@V?$allocator@D@2@@std@@PAVState@@@std@@@std@@@std@@U_Iterator_base0@2@@2@XZ 004326f0 f i mainfunction.obj
 0001:00031720       ?_Unchecked_begin@?$list@U?$pair@$$CBV?$basic_string@DU?$char_traits@D@std@@V?$allocator@D@2@@std@@PAVState@@@std@@V?$allocator@U?$pair@$$CBV?$basic_string@DU?$char_traits@D@std@@V?$allocator@D@2@@std@@PAVState@@@std@@@2@@std@@QAE?AV?$_List_unchecked_iterator@V?$_List_val@U?$_List_simple_types@U?$pair@$$CBV?$basic_string@DU?$char_traits@D@std@@V?$allocator@D@2@@std@@PAVState@@@std@@@std@@@std@@@2@XZ 00432720 f i mainfunction.obj
 0001:00031750       ?_Unchecked_begin@?$list@U?$pair@$$CBV?$basic_string@DU?$char_traits@D@std@@V?$allocator@D@2@@std@@PAVState@@@std@@V?$allocator@U?$pair@$$CBV?$basic_string@DU?$char_traits@D@std@@V?$allocator@D@2@@std@@PAVState@@@std@@@2@@std@@QBE?AV?$_List_unchecked_const_iterator@V?$_List_val@U?$_List_simple_types@U?$pair@$$CBV?$basic_string@DU?$char_traits@D@std@@V?$allocator@D@2@@std@@PAVState@@@std@@@std@@@std@@U_Iterator_base0@2@@2@XZ 00432750 f i mainfunction.obj
 0001:00031780       ?_Unchecked_end@?$_Hash@V?$_Umap_traits@V?$basic_string@DU?$char_traits@D@std@@V?$allocator@D@2@@std@@PAVState@@V?$_Uhash_compare@V?$basic_string@DU?$char_traits@D@std@@V?$allocator@D@2@@std@@U?$hash@V?$basic_string@DU?$char_traits@D@std@@V?$allocator@D@2@@std@@@2@U?$equal_to@V?$basic_string@DU?$char_traits@D@std@@V?$allocator@D@2@@std@@@2@@2@V?$allocator@U?$pair@$$CBV?$basic_string@DU?$char_traits@D@std@@V?$allocator@D@2@@std@@PAVState@@@std@@@2@$0A@@std@@@std@@QAE?AV?$_List_unchecked_iterator@V?$_List_val@U?$_List_simple_types@U?$pair@$$CBV?$basic_string@DU?$char_traits@D@std@@V?$allocator@D@2@@std@@PAVState@@@std@@@std@@@std@@@2@XZ 00432780 f i mainfunction.obj
 0001:000317b0       ?_Unchecked_end@?$_Hash@V?$_Umap_traits@V?$basic_string@DU?$char_traits@D@std@@V?$allocator@D@2@@std@@PAVState@@V?$_Uhash_compare@V?$basic_string@DU?$char_traits@D@std@@V?$allocator@D@2@@std@@U?$hash@V?$basic_string@DU?$char_traits@D@std@@V?$allocator@D@2@@std@@@2@U?$equal_to@V?$basic_string@DU?$char_traits@D@std@@V?$allocator@D@2@@std@@@2@@2@V?$allocator@U?$pair@$$CBV?$basic_string@DU?$char_traits@D@std@@V?$allocator@D@2@@std@@PAVState@@@std@@@2@$0A@@std@@@std@@QBE?AV?$_List_unchecked_const_iterator@V?$_List_val@U?$_List_simple_types@U?$pair@$$CBV?$basic_string@DU?$char_traits@D@std@@V?$allocator@D@2@@std@@PAVState@@@std@@@std@@@std@@U_Iterator_base0@2@@2@XZ 004327b0 f i mainfunction.obj
 0001:000317e0       ?_Unchecked_end@?$list@U?$pair@$$CBV?$basic_string@DU?$char_traits@D@std@@V?$allocator@D@2@@std@@PAVState@@@std@@V?$allocator@U?$pair@$$CBV?$basic_string@DU?$char_traits@D@std@@V?$allocator@D@2@@std@@PAVState@@@std@@@2@@std@@QAE?AV?$_List_unchecked_iterator@V?$_List_val@U?$_List_simple_types@U?$pair@$$CBV?$basic_string@DU?$char_traits@D@std@@V?$allocator@D@2@@std@@PAVState@@@std@@@std@@@std@@@2@XZ 004327e0 f i mainfunction.obj
 0001:00031810       ?_Unchecked_end@?$list@U?$pair@$$CBV?$basic_string@DU?$char_traits@D@std@@V?$allocator@D@2@@std@@PAVState@@@std@@V?$allocator@U?$pair@$$CBV?$basic_string@DU?$char_traits@D@std@@V?$allocator@D@2@@std@@PAVState@@@std@@@2@@std@@QBE?AV?$_List_unchecked_const_iterator@V?$_List_val@U?$_List_simple_types@U?$pair@$$CBV?$basic_string@DU?$char_traits@D@std@@V?$allocator@D@2@@std@@PAVState@@@std@@@std@@@std@@U_Iterator_base0@2@@2@XZ 00432810 f i mainfunction.obj
 0001:00031840       ?_Unchecked_erase@?$_Hash@V?$_Umap_traits@V?$basic_string@DU?$char_traits@D@std@@V?$allocator@D@2@@std@@PAVState@@V?$_Uhash_compare@V?$basic_string@DU?$char_traits@D@std@@V?$allocator@D@2@@std@@U?$hash@V?$basic_string@DU?$char_traits@D@std@@V?$allocator@D@2@@std@@@2@U?$equal_to@V?$basic_string@DU?$char_traits@D@std@@V?$allocator@D@2@@std@@@2@@2@V?$allocator@U?$pair@$$CBV?$basic_string@DU?$char_traits@D@std@@V?$allocator@D@2@@std@@PAVState@@@std@@@2@$0A@@std@@@std@@AAEPAU?$_List_node@U?$pair@$$CBV?$basic_string@DU?$char_traits@D@std@@V?$allocator@D@2@@std@@PAVState@@@std@@PAX@2@PAU32@QAU32@@Z 00432840 f i mainfunction.obj
 0001:00031aa0       ?_Unchecked_erase@?$list@U?$pair@$$CBV?$basic_string@DU?$char_traits@D@std@@V?$allocator@D@2@@std@@PAVState@@@std@@V?$allocator@U?$pair@$$CBV?$basic_string@DU?$char_traits@D@std@@V?$allocator@D@2@@std@@PAVState@@@std@@@2@@std@@AAEPAU?$_List_node@U?$pair@$$CBV?$basic_string@DU?$char_traits@D@std@@V?$allocator@D@2@@std@@PAVState@@@std@@PAX@2@PAU32@QAU32@@Z 00432aa0 f i mainfunction.obj
 0001:00031c30       ?_Unchecked_splice@?$_List_val@U?$_List_simple_types@U?$pair@$$CBV?$basic_string@DU?$char_traits@D@std@@V?$allocator@D@2@@std@@PAVState@@@std@@@std@@@std@@SAPAU?$_List_node@U?$pair@$$CBV?$basic_string@DU?$char_traits@D@std@@V?$allocator@D@2@@std@@PAVState@@@std@@PAX@2@QAU32@00@Z 00432c30 f i mainfunction.obj
 0001:00031cb0       ?allocate@?$allocator@U?$_List_node@U?$pair@$$CBV?$basic_string@DU?$char_traits@D@std@@V?$allocator@D@2@@std@@PAVState@@@std@@PAX@std@@@std@@QAEPAU?$_List_node@U?$pair@$$CBV?$basic_string@DU?$char_traits@D@std@@V?$allocator@D@2@@std@@PAVState@@@std@@PAX@2@I@Z 00432cb0 f i mainfunction.obj
 0001:00031ce0       ?allocate@?$allocator@V?$_List_unchecked_iterator@V?$_List_val@U?$_List_simple_types@U?$pair@$$CBV?$basic_string@DU?$char_traits@D@std@@V?$allocator@D@2@@std@@PAVState@@@std@@@std@@@std@@@std@@@std@@QAEPAV?$_List_unchecked_iterator@V?$_List_val@U?$_List_simple_types@U?$pair@$$CBV?$basic_string@DU?$char_traits@D@std@@V?$allocator@D@2@@std@@PAVState@@@std@@@std@@@std@@@2@I@Z 00432ce0 f i mainfunction.obj
 0001:00031d10       ?bucket@?$_Hash@V?$_Umap_traits@V?$basic_string@DU?$char_traits@D@std@@V?$allocator@D@2@@std@@PAVState@@V?$_Uhash_compare@V?$basic_string@DU?$char_traits@D@std@@V?$allocator@D@2@@std@@U?$hash@V?$basic_string@DU?$char_traits@D@std@@V?$allocator@D@2@@std@@@2@U?$equal_to@V?$basic_string@DU?$char_traits@D@std@@V?$allocator@D@2@@std@@@2@@2@V?$allocator@U?$pair@$$CBV?$basic_string@DU?$char_traits@D@std@@V?$allocator@D@2@@std@@PAVState@@@std@@@2@$0A@@std@@@std@@QBEIABV?$basic_string@DU?$char_traits@D@std@@V?$allocator@D@2@@2@@Z 00432d10 f i mainfunction.obj
 0001:00031d40       ?bucket_count@?$_Hash@V?$_Umap_traits@V?$basic_string@DU?$char_traits@D@std@@V?$allocator@D@2@@std@@PAVState@@V?$_Uhash_compare@V?$basic_string@DU?$char_traits@D@std@@V?$allocator@D@2@@std@@U?$hash@V?$basic_string@DU?$char_traits@D@std@@V?$allocator@D@2@@std@@@2@U?$equal_to@V?$basic_string@DU?$char_traits@D@std@@V?$allocator@D@2@@std@@@2@@2@V?$allocator@U?$pair@$$CBV?$basic_string@DU?$char_traits@D@std@@V?$allocator@D@2@@std@@PAVState@@@std@@@2@$0A@@std@@@std@@QBEIXZ 00432d40 f i mainfunction.obj
 0001:00031d60       ?clear@?$_Hash@V?$_Umap_traits@V?$basic_string@DU?$char_traits@D@std@@V?$allocator@D@2@@std@@PAVState@@V?$_Uhash_compare@V?$basic_string@DU?$char_traits@D@std@@V?$allocator@D@2@@std@@U?$hash@V?$basic_string@DU?$char_traits@D@std@@V?$allocator@D@2@@std@@@2@U?$equal_to@V?$basic_string@DU?$char_traits@D@std@@V?$allocator@D@2@@std@@@2@@2@V?$allocator@U?$pair@$$CBV?$basic_string@DU?$char_traits@D@std@@V?$allocator@D@2@@std@@PAVState@@@std@@@2@$0A@@std@@@std@@QAEXXZ 00432d60 f i mainfunction.obj
 0001:00031e40       ?clear@?$list@U?$pair@$$CBV?$basic_string@DU?$char_traits@D@std@@V?$allocator@D@2@@std@@PAVState@@@std@@V?$allocator@U?$pair@$$CBV?$basic_string@DU?$char_traits@D@std@@V?$allocator@D@2@@std@@PAVState@@@std@@@2@@std@@QAEXXZ 00432e40 f i mainfunction.obj
 0001:00031eb0       ?deallocate@?$_Default_allocator_traits@V?$allocator@U?$_List_node@U?$pair@$$CBV?$basic_string@DU?$char_traits@D@std@@V?$allocator@D@2@@std@@PAVState@@@std@@PAX@std@@@std@@@std@@SAXAAV?$allocator@U?$_List_node@U?$pair@$$CBV?$basic_string@DU?$char_traits@D@std@@V?$allocator@D@2@@std@@PAVState@@@std@@PAX@std@@@2@QAU?$_List_node@U?$pair@$$CBV?$basic_string@DU?$char_traits@D@std@@V?$allocator@D@2@@std@@PAVState@@@std@@PAX@2@I@Z 00432eb0 f i mainfunction.obj
 0001:00031ed0       ?deallocate@?$_Default_allocator_traits@V?$allocator@U?$_Tree_node@U?$pair@$$CBV?$basic_string@DU?$char_traits@D@std@@V?$allocator@D@2@@std@@V?$shared_ptr@VRawImageData@@@2@@std@@PAX@std@@@std@@@std@@SAXAAV?$allocator@U?$_Tree_node@U?$pair@$$CBV?$basic_string@DU?$char_traits@D@std@@V?$allocator@D@2@@std@@V?$shared_ptr@VRawImageData@@@2@@std@@PAX@std@@@2@QAU?$_Tree_node@U?$pair@$$CBV?$basic_string@DU?$char_traits@D@std@@V?$allocator@D@2@@std@@V?$shared_ptr@VRawImageData@@@2@@std@@PAX@2@I@Z 00432ed0 f i mainfunction.obj
 0001:00031ef0       ?deallocate@?$allocator@U?$_List_node@U?$pair@$$CBV?$basic_string@DU?$char_traits@D@std@@V?$allocator@D@2@@std@@PAVState@@@std@@PAX@std@@@std@@QAEXQAU?$_List_node@U?$pair@$$CBV?$basic_string@DU?$char_traits@D@std@@V?$allocator@D@2@@std@@PAVState@@@std@@PAX@2@I@Z 00432ef0 f i mainfunction.obj
 0001:00031f20       ?deallocate@?$allocator@V?$_List_unchecked_iterator@V?$_List_val@U?$_List_simple_types@U?$pair@$$CBV?$basic_string@DU?$char_traits@D@std@@V?$allocator@D@2@@std@@PAVState@@@std@@@std@@@std@@@std@@@std@@QAEXQAV?$_List_unchecked_iterator@V?$_List_val@U?$_List_simple_types@U?$pair@$$CBV?$basic_string@DU?$char_traits@D@std@@V?$allocator@D@2@@std@@PAVState@@@std@@@std@@@std@@@2@I@Z 00432f20 f i mainfunction.obj
 0001:00031f50       ?destroyImageManager@ImageManager@@SAXXZ 00432f50 f i mainfunction.obj
 0001:00031fb0       ?max_load_factor@?$_Hash@V?$_Umap_traits@V?$basic_string@DU?$char_traits@D@std@@V?$allocator@D@2@@std@@PAVState@@V?$_Uhash_compare@V?$basic_string@DU?$char_traits@D@std@@V?$allocator@D@2@@std@@U?$hash@V?$basic_string@DU?$char_traits@D@std@@V?$allocator@D@2@@std@@@2@U?$equal_to@V?$basic_string@DU?$char_traits@D@std@@V?$allocator@D@2@@std@@@2@@2@V?$allocator@U?$pair@$$CBV?$basic_string@DU?$char_traits@D@std@@V?$allocator@D@2@@std@@PAVState@@@std@@@2@$0A@@std@@@std@@QBEMXZ 00432fb0 f i mainfunction.obj
 0001:00031fd0       ?max_size@?$_Default_allocator_traits@V?$allocator@U?$_List_node@U?$pair@$$CBV?$basic_string@DU?$char_traits@D@std@@V?$allocator@D@2@@std@@PAVState@@@std@@PAX@std@@@std@@@std@@SAIABV?$allocator@U?$_List_node@U?$pair@$$CBV?$basic_string@DU?$char_traits@D@std@@V?$allocator@D@2@@std@@PAVState@@@std@@PAX@std@@@2@@Z 00432fd0 f i mainfunction.obj
 0001:00031fe0       ?max_size@?$_Default_allocator_traits@V?$allocator@V?$_List_unchecked_iterator@V?$_List_val@U?$_List_simple_types@U?$pair@$$CBV?$basic_string@DU?$char_traits@D@std@@V?$allocator@D@2@@std@@PAVState@@@std@@@std@@@std@@@std@@@std@@@std@@SAIABV?$allocator@V?$_List_unchecked_iterator@V?$_List_val@U?$_List_simple_types@U?$pair@$$CBV?$basic_string@DU?$char_traits@D@std@@V?$allocator@D@2@@std@@PAVState@@@std@@@std@@@std@@@std@@@2@@Z 00432fe0 f i mainfunction.obj
 0001:00031ff0       ?max_size@?$_Hash_vec@V?$allocator@V?$_List_unchecked_iterator@V?$_List_val@U?$_List_simple_types@U?$pair@$$CBV?$basic_string@DU?$char_traits@D@std@@V?$allocator@D@2@@std@@PAVState@@@std@@@std@@@std@@@std@@@std@@@std@@QBEIXZ 00432ff0 f i mainfunction.obj
 0001:00032040       ?max_size@?$list@U?$pair@$$CBV?$basic_string@DU?$char_traits@D@std@@V?$allocator@D@2@@std@@PAVState@@@std@@V?$allocator@U?$pair@$$CBV?$basic_string@DU?$char_traits@D@std@@V?$allocator@D@2@@std@@PAVState@@@std@@@2@@std@@QBEIXZ 00433040 f i mainfunction.obj
 0001:00032090       ?select_on_container_copy_construction@?$_Default_allocator_traits@V?$allocator@U?$_List_node@U?$pair@$$CBV?$basic_string@DU?$char_traits@D@std@@V?$allocator@D@2@@std@@PAVState@@@std@@PAX@std@@@std@@@std@@SA?AV?$allocator@U?$_List_node@U?$pair@$$CBV?$basic_string@DU?$char_traits@D@std@@V?$allocator@D@2@@std@@PAVState@@@std@@PAX@std@@@2@ABV32@@Z 00433090 f i mainfunction.obj
 0001:000320a0       ?size@?$_Hash_vec@V?$allocator@V?$_List_unchecked_iterator@V?$_List_val@U?$_List_simple_types@U?$pair@$$CBV?$basic_string@DU?$char_traits@D@std@@V?$allocator@D@2@@std@@PAVState@@@std@@@std@@@std@@@std@@@std@@@std@@QBEIXZ 004330a0 f i mainfunction.obj
 0001:000320c0       _ceilf                     004330c0 f i mainfunction.obj
 0001:000320f0       ??0BaseEngine@@QAE@XZ      004330f0 f   BaseEngine.obj
 0001:00032330       ??1BaseEngine@@UAE@XZ      00433330 f   BaseEngine.obj
 0001:00032380       ?initialise@BaseEngine@@QAEHPBDHH0H@Z 00433380 f   BaseEngine.obj
 0001:000324b0       ?deinitialise@BaseEngine@@QAEXXZ 004334b0 f   BaseEngine.obj
 0001:000324e0       ?mainLoop@BaseEngine@@QAEHXZ 004334e0 f   BaseEngine.obj
 0001:00032610       ?handleEvent@BaseEngine@@QAE_NPATSDL_Event@@@Z 00433610 f   BaseEngine.obj
 0001:00032c50       ?isKeyPressed@BaseEngine@@QBE_NH@Z 00433c50 f   BaseEngine.obj
 0001:00032c80       ?virtKeyUp@BaseEngine@@UAEXH@Z 00433c80 f   BaseEngine.obj
 0001:00032c90       ?virtKeyDown@BaseEngine@@UAEXH@Z 00433c90 f   BaseEngine.obj
 0001:00032ca0       ?virtMouseMoved@BaseEngine@@UAEXHH@Z 00433ca0 f   BaseEngine.obj
 0001:00032cb0       ?virtMouseDown@BaseEngine@@UAEXHHH@Z 00433cb0 f   BaseEngine.obj
 0001:00032cc0       ?virtMouseUp@BaseEngine@@UAEXHHH@Z 00433cc0 f   BaseEngine.obj
 0001:00032cd0       ?virtInitialise@BaseEngine@@UAEHXZ 00433cd0 f   BaseEngine.obj
 0001:00032d20       ?virtCreateWindows@BaseEngine@@UAEXPBD@Z 00433d20 f   BaseEngine.obj
 0001:00032db0       ?virtCreateSurfaces@BaseEngine@@UAEXXZ 00433db0 f   BaseEngine.obj
 0001:00032e00       ?virtCleanUp@BaseEngine@@UAEXXZ 00433e00 f   BaseEngine.obj
 0001:00032e10       ?virtSetupBackgroundBuffer@BaseEngine@@UAEXXZ 00433e10 f   BaseEngine.obj
 0001:00032e30       ?virtDrawStringsUnderneath@BaseEngine@@UAEXXZ 00433e30 f   BaseEngine.obj
 0001:00032e40       ?virtDrawStringsOnTop@BaseEngine@@UAEXXZ 00433e40 f   BaseEngine.obj
 0001:00032e50       ?virtCheckForUpdateTime@BaseEngine@@UAE_NXZ 00433e50 f   BaseEngine.obj
 0001:00032ea0       ?virtRenderScreen@BaseEngine@@UAEXXZ 00433ea0 f   BaseEngine.obj
 0001:00033030       ?getColour@BaseEngine@@QBEIH@Z 00434030 f   BaseEngine.obj
 0001:00033270       ?virtInitialiseObjects@BaseEngine@@UAEHXZ 00434270 f   BaseEngine.obj
 0001:000332a0       ?drawAllObjects@BaseEngine@@UAEXXZ 004342a0 f   BaseEngine.obj
 0001:00033460       ?updateAllObjects@BaseEngine@@UAEXH@Z 00434460 f   BaseEngine.obj
 0001:00033620       _mydebug                   00434620 f   BaseEngine.obj
 0001:00033de0       ??$?0ABV?$allocator@PAVDisplayableObject@@@std@@$$V@?$_Compressed_pair@V?$allocator@PAVDisplayableObject@@@std@@V?$_Vector_val@U?$_Simple_types@PAVDisplayableObject@@@std@@@2@$00@std@@QAE@U_One_then_variadic_args_t@1@ABV?$allocator@PAVDisplayableObject@@@1@@Z 00434de0 f i BaseEngine.obj
 0001:00033e10       ??$?0PAVDisplayableObject@@@?$allocator@U_Container_proxy@std@@@std@@QAE@ABV?$allocator@PAVDisplayableObject@@@1@@Z 00434e10 f i BaseEngine.obj
 0001:00033e30       ??$_Adl_verify_range@V?$_Vector_iterator@V?$_Vector_val@U?$_Simple_types@PAVDisplayableObject@@@std@@@std@@@std@@V12@@std@@YAXABV?$_Vector_iterator@V?$_Vector_val@U?$_Simple_types@PAVDisplayableObject@@@std@@@std@@@0@0@Z 00434e30 f i BaseEngine.obj
 0001:00033e50       ??$_Construct_n_copies_of_ty@U_Value_init_tag@std@@@?$vector@PAVDisplayableObject@@V?$allocator@PAVDisplayableObject@@@std@@@std@@AAEXIABU_Value_init_tag@1@@Z 00434e50 f i BaseEngine.obj
 0001:00033f60       ??$_Get_unwrapped@AAV?$_Vector_iterator@V?$_Vector_val@U?$_Simple_types@PAVDisplayableObject@@@std@@@std@@@std@@@std@@YA?A_TAAV?$_Vector_iterator@V?$_Vector_val@U?$_Simple_types@PAVDisplayableObject@@@std@@@std@@@0@@Z 00434f60 f i BaseEngine.obj
 0001:00033f70       ??$addressof@V?$_Vector_val@U?$_Simple_types@PAVDisplayableObject@@@std@@@std@@@std@@YAPAV?$_Vector_val@U?$_Simple_types@PAVDisplayableObject@@@std@@@0@AAV10@@Z 00434f70 f i BaseEngine.obj
 0001:00034400       ??$forward@ABV?$allocator@PAVDisplayableObject@@@std@@@std@@YAABV?$allocator@PAVDisplayableObject@@@0@ABV10@@Z 00435400 f i BaseEngine.obj
 0001:00034410       ??0?$_Vector_const_iterator@V?$_Vector_val@U?$_Simple_types@PAVDisplayableObject@@@std@@@std@@@std@@QAE@ABV01@@Z 00435410 f i BaseEngine.obj
 0001:00034450       ??0?$_Vector_const_iterator@V?$_Vector_val@U?$_Simple_types@PAVDisplayableObject@@@std@@@std@@@std@@QAE@PAPAVDisplayableObject@@PBU_Container_base12@1@@Z 00435450 f i BaseEngine.obj
 0001:00034490       ??0?$_Vector_iterator@V?$_Vector_val@U?$_Simple_types@PAVDisplayableObject@@@std@@@std@@@std@@QAE@ABV01@@Z 00435490 f i BaseEngine.obj
 0001:000344c0       ??0?$_Vector_iterator@V?$_Vector_val@U?$_Simple_types@PAVDisplayableObject@@@std@@@std@@@std@@QAE@PAPAVDisplayableObject@@PBU_Container_base12@1@@Z 004354c0 f i BaseEngine.obj
 0001:000344f0       ??0?$_Vector_val@U?$_Simple_types@PAVDisplayableObject@@@std@@@std@@QAE@XZ 004354f0 f i BaseEngine.obj
 0001:00034540       ??0?$allocator@PAVDisplayableObject@@@std@@QAE@XZ 00435540 f i BaseEngine.obj
 0001:00034560       ??0?$vector@PAVDisplayableObject@@V?$allocator@PAVDisplayableObject@@@std@@@std@@QAE@IABV?$allocator@PAVDisplayableObject@@@1@@Z 00435560 f i BaseEngine.obj
 0001:000345a0       ??0DisplayableObjectContainer@@QAE@H@Z 004355a0 f i BaseEngine.obj
 0001:00034600       ??1?$_Tidy_guard@V?$vector@PAVDisplayableObject@@V?$allocator@PAVDisplayableObject@@@std@@@std@@@std@@QAE@XZ 00435600 f i BaseEngine.obj
 0001:00034630       ??1?$_Vector_const_iterator@V?$_Vector_val@U?$_Simple_types@PAVDisplayableObject@@@std@@@std@@@std@@QAE@XZ 00435630 f i BaseEngine.obj
 0001:00034650       ??1?$_Vector_iterator@V?$_Vector_val@U?$_Simple_types@PAVDisplayableObject@@@std@@@std@@@std@@QAE@XZ 00435650 f i BaseEngine.obj
 0001:00034670       ??1?$vector@PAVDisplayableObject@@V?$allocator@PAVDisplayableObject@@@std@@@std@@QAE@XZ 00435670 f i BaseEngine.obj
 0001:000346e0       ??1DisplayableObjectContainer@@UAE@XZ 004356e0 f i BaseEngine.obj
 0001:00034750       ??8?$_Vector_const_iterator@V?$_Vector_val@U?$_Simple_types@PAVDisplayableObject@@@std@@@std@@@std@@QBE_NABV01@@Z 00435750 f i BaseEngine.obj
 0001:000347a0       ??9?$_Vector_const_iterator@V?$_Vector_val@U?$_Simple_types@PAVDisplayableObject@@@std@@@std@@@std@@QBE_NABV01@@Z 004357a0 f i BaseEngine.obj
 0001:000347f0       ??D?$_Vector_const_iterator@V?$_Vector_val@U?$_Simple_types@PAVDisplayableObject@@@std@@@std@@@std@@QBEABQAVDisplayableObject@@XZ 004357f0 f i BaseEngine.obj
 0001:00034900       ??D?$_Vector_iterator@V?$_Vector_val@U?$_Simple_types@PAVDisplayableObject@@@std@@@std@@@std@@QBEAAPAVDisplayableObject@@XZ 00435900 f i BaseEngine.obj
 0001:00034920       ??E?$_Vector_const_iterator@V?$_Vector_val@U?$_Simple_types@PAVDisplayableObject@@@std@@@std@@@std@@QAEAAV01@XZ 00435920 f i BaseEngine.obj
 0001:00034a30       ??E?$_Vector_iterator@V?$_Vector_val@U?$_Simple_types@PAVDisplayableObject@@@std@@@std@@@std@@QAE?AV01@H@Z 00435a30 f i BaseEngine.obj
 0001:00034a80       ??_EBaseEngine@@UAEPAXI@Z  00435a80 f i BaseEngine.obj
 0001:00034a80       ??_GBaseEngine@@UAEPAXI@Z  00435a80 f i BaseEngine.obj
 0001:00034ac0       ??_EDisplayableObjectContainer@@UAEPAXI@Z 00435ac0 f i BaseEngine.obj
 0001:00034ac0       ??_GDisplayableObjectContainer@@UAEPAXI@Z 00435ac0 f i BaseEngine.obj
 0001:00034b00       ?_Buy_nonzero@?$vector@PAVDisplayableObject@@V?$allocator@PAVDisplayableObject@@@std@@@std@@AAEXI@Z 00435b00 f i BaseEngine.obj
 0001:00034b40       ?_Buy_raw@?$vector@PAVDisplayableObject@@V?$allocator@PAVDisplayableObject@@@std@@@std@@AAEXI@Z 00435b40 f i BaseEngine.obj
 0001:00034bc0       ?_Compat@?$_Vector_const_iterator@V?$_Vector_val@U?$_Simple_types@PAVDisplayableObject@@@std@@@std@@@std@@QBEXABV12@@Z 00435bc0 f i BaseEngine.obj
 0001:00034c60       ?_Tidy@?$vector@PAVDisplayableObject@@V?$allocator@PAVDisplayableObject@@@std@@@std@@AAEXXZ 00435c60 f i BaseEngine.obj
 0001:00034d50       ?_Unwrapped@?$_Vector_iterator@V?$_Vector_val@U?$_Simple_types@PAVDisplayableObject@@@std@@@std@@@std@@QBEPAPAVDisplayableObject@@XZ 00435d50 f i BaseEngine.obj
 0001:00034d70       ?_Verify_range@std@@YAXABV?$_Vector_const_iterator@V?$_Vector_val@U?$_Simple_types@PAVDisplayableObject@@@std@@@std@@@1@0@Z 00435d70 f i BaseEngine.obj
 0001:00034e70       ?begin@?$vector@PAVDisplayableObject@@V?$allocator@PAVDisplayableObject@@@std@@@std@@QAE?AV?$_Vector_iterator@V?$_Vector_val@U?$_Simple_types@PAVDisplayableObject@@@std@@@std@@@2@XZ 00435e70 f i BaseEngine.obj
 0001:00034ec0       ?end@?$vector@PAVDisplayableObject@@V?$allocator@PAVDisplayableObject@@@std@@@std@@QAE?AV?$_Vector_iterator@V?$_Vector_val@U?$_Simple_types@PAVDisplayableObject@@@std@@@std@@@2@XZ 00435ec0 f i BaseEngine.obj
 0001:00034f10       ?getHasActed@DisplayableObject@@QBE_NXZ 00435f10 f i BaseEngine.obj
 0001:00034f30       ?isTimeToAct@BaseEngine@@QBE_NXZ 00435f30 f i BaseEngine.obj
 0001:00034f70       ?mySDLUpdateTexture@DrawingSurface@@QAEXPAUSDL_Texture@@@Z 00435f70 f i BaseEngine.obj
 0001:00034fb0       ?setHasActed@DisplayableObject@@QAEX_N@Z 00435fb0 f i BaseEngine.obj
 0001:00034fd0       ?setTimeToAct@BaseEngine@@QAEXH@Z 00435fd0 f i BaseEngine.obj
 0001:00035000       ?symbolToKeycode@BaseEngine@@SAHH@Z 00436000 f i BaseEngine.obj
 0001:000354f0       _fprintf                   004364f0 f i BaseEngine.obj
 0001:00035530       ??0DisplayableObject@@QAE@PAVBaseEngine@@HH_N@Z 00436530 f   DisplayableObject.obj
 0001:000355f0       ??0DisplayableObject@@QAE@HHPAVBaseEngine@@HH_N@Z 004365f0 f   DisplayableObject.obj
 0001:000356b0       ??1DisplayableObject@@UAE@XZ 004366b0 f   DisplayableObject.obj
 0001:000356d0       ?virtDraw@DisplayableObject@@UAEXXZ 004366d0 f   DisplayableObject.obj
 0001:00035770       ?virtDoUpdate@DisplayableObject@@UAEXH@Z 00436770 f   DisplayableObject.obj
 0001:00035780       ?redrawDisplay@DisplayableObject@@QAEXXZ 00436780 f   DisplayableObject.obj
 0001:000357a0       ?redrawRectangle@DisplayableObject@@QAEXXZ 004367a0 f   DisplayableObject.obj
 0001:000357e0       ?virtIsObjectInRedrawArea@DisplayableObject@@QAE_NXZ 004367e0 f   DisplayableObject.obj
 0001:00035880       ?fixPosition@DisplayableObject@@QAEXXZ 00436880 f   DisplayableObject.obj
 0001:00035a50       ??_GDisplayableObject@@UAEPAXI@Z 00436a50 f i DisplayableObject.obj
 0001:00035a50       ??_EDisplayableObject@@UAEPAXI@Z 00436a50 f i DisplayableObject.obj
 0001:00035a90       ?redrawRectangle@BaseEngine@@QAEXHHHH@Z 00436a90 f i DisplayableObject.obj
 0001:00035c00       ??0FontManager@@QAE@XZ     00436c00 f   FontManager.obj
 0001:00035c70       ??1FontManager@@QAE@XZ     00436c70 f   FontManager.obj
 0001:00035ce0       ?getFont@FontManager@@QAEPAVFont@@PBDH@Z 00436ce0 f   FontManager.obj
 0001:00035e80       ?loadFonts@FontManager@@QAEXXZ 00436e80 f   FontManager.obj
 0001:00035fb0       ??$growArrayOfObjects@PAVFont@@@@YAPAPAVFont@@PAPAV0@AAHH@Z 00436fb0 f i FontManager.obj
 0001:00036070       ??0Font@@QAE@PBDH@Z        00437070 f i FontManager.obj
 0001:000360f0       ??1Font@@QAE@XZ            004370f0 f i FontManager.obj
 0001:00036170       ??_GFont@@QAEPAXI@Z        00437170 f i FontManager.obj
 0001:000361b0       ?getName@Font@@QAEPBDXZ    004371b0 f i FontManager.obj
 0001:000361d0       ?getSize@Font@@QAEHXZ      004371d0 f i FontManager.obj
 0001:000361f0       ?virtSetupBackgroundBuffer@Scyyz12Engine@@UAEXXZ 004371f0 f   Scyyz12Engine.obj
 0001:00036500       ?virtDrawStringsOnTop@Scyyz12Engine@@UAEXXZ 00437500 f   Scyyz12Engine.obj
 0001:00036680       ?virtInitialiseObjects@Scyyz12Engine@@UAEHXZ 00437680 f   Scyyz12Engine.obj
 0001:000367e0       ?virtMouseDown@Scyyz12Engine@@UAEXHHH@Z 004377e0 f   Scyyz12Engine.obj
 0001:000369c0       ??0Part1Object2@@QAE@PAVBaseEngine@@HHHN_N@Z 004379c0 f i Scyyz12Engine.obj
 0001:00036a30       ??0Part1Object@@QAE@PAVBaseEngine@@PAVTileManager@@HHHNN@Z 00437a30 f i Scyyz12Engine.obj
 0001:00036ab0       ??1Part1Object2@@UAE@XZ    00437ab0 f i Scyyz12Engine.obj
 0001:00036ad0       ??1Part1Object@@UAE@XZ     00437ad0 f i Scyyz12Engine.obj
 0001:00036af0       ??_EPart1Object2@@UAEPAXI@Z 00437af0 f i Scyyz12Engine.obj
 0001:00036af0       ??_GPart1Object2@@UAEPAXI@Z 00437af0 f i Scyyz12Engine.obj
 0001:00036b30       ??_EPart1Object@@UAEPAXI@Z 00437b30 f i Scyyz12Engine.obj
 0001:00036b30       ??_GPart1Object@@UAEPAXI@Z 00437b30 f i Scyyz12Engine.obj
 0001:00036b70       ?drawBackgroundPolygon@BaseEngine@@QAEXNNNNNNNNNNNNI@Z 00437b70 f i Scyyz12Engine.obj
 0001:00036c60       ?getMapHeight@TileManager@@QBEHXZ 00437c60 f i Scyyz12Engine.obj
 0001:00036c80       ?getMapWidth@TileManager@@QBEHXZ 00437c80 f i Scyyz12Engine.obj
 0001:00036ca0       ?virtSetupBackgroundBuffer@MyDemoA@@UAEXXZ 00437ca0 f   MyDemoA.obj
 0001:00036f10       ?virtMouseDown@MyDemoA@@UAEXHHH@Z 00437f10 f   MyDemoA.obj
 0001:00037060       ?virtKeyDown@MyDemoA@@UAEXH@Z 00438060 f   MyDemoA.obj
 0001:000370b0       ?virtInitialiseObjects@MyDemoA@@UAEHXZ 004380b0 f   MyDemoA.obj
 0001:000372a0       ??$addressof@$$CBV?$_Vector_val@U?$_Simple_types@PAVDisplayableObject@@@std@@@std@@@std@@YAPBV?$_Vector_val@U?$_Simple_types@PAVDisplayableObject@@@std@@@0@ABV10@@Z 004382a0 f i MyDemoA.obj
 0001:000372b0       ??0MyObjectB@@QAE@PAVBaseEngine@@@Z 004382b0 f i MyDemoA.obj
 0001:00037300       ??1MyObjectB@@UAE@XZ       00438300 f i MyDemoA.obj
 0001:00037320       ??E?$_Vector_const_iterator@V?$_Vector_val@U?$_Simple_types@PAVDisplayableObject@@@std@@@std@@@std@@QAE?AV01@H@Z 00438320 f i MyDemoA.obj
 0001:00037370       ??_GMyObjectB@@UAEPAXI@Z   00438370 f i MyDemoA.obj
 0001:00037370       ??_EMyObjectB@@UAEPAXI@Z   00438370 f i MyDemoA.obj
 0001:000373b0       ?begin@?$vector@PAVDisplayableObject@@V?$allocator@PAVDisplayableObject@@@std@@@std@@QBE?AV?$_Vector_const_iterator@V?$_Vector_val@U?$_Simple_types@PAVDisplayableObject@@@std@@@std@@@2@XZ 004383b0 f i MyDemoA.obj
 0001:00037400       ?drawBackgroundOval@BaseEngine@@QAEXHHHHI@Z 00438400 f i MyDemoA.obj
 0001:00037440       ?end@?$vector@PAVDisplayableObject@@V?$allocator@PAVDisplayableObject@@@std@@@std@@QBE?AV?$_Vector_const_iterator@V?$_Vector_val@U?$_Simple_types@PAVDisplayableObject@@@std@@@std@@@2@XZ 00438440 f i MyDemoA.obj
 0001:00037490       ?setAllObjectsVisible@DisplayableObjectContainer@@QBEX_N@Z 00438490 f i MyDemoA.obj
 0001:00037590       ?virtDraw@MyObjectB@@UAEXXZ 00438590 f   MyObjectB.obj
 0001:000375e0       ?virtDoUpdate@MyObjectB@@UAEXH@Z 004385e0 f   MyObjectB.obj
 0001:000377a0       ?virtDrawTileAt@MyTileManager@@UBEXPAVBaseEngine@@PAVDrawingSurface@@HHHH@Z 004387a0 f   MyTileManager.obj
 0001:00037840       ?virtDrawTileAt@Scyyz12TileManager@@UBEXPAVBaseEngine@@PAVDrawingSurface@@HHHH@Z 00438840 f   Scyyz12TileManager.obj
 0001:00037e50       ?virtDrawTileAt@SelectionArea@@UBEXPAVBaseEngine@@PAVDrawingSurface@@HHHH@Z 00438e50 f   SelectionArea.obj
 0001:00038630       ?incProperty@SelectionArea@@QAEXF@Z 00439630 f   SelectionArea.obj
 0001:000386b0       ?setProperty@SelectionArea@@QAEXFH@Z 004396b0 f   SelectionArea.obj
 0001:00038720       ?decProperty@SelectionArea@@QAE_NF@Z 00439720 f   SelectionArea.obj
 0001:000387e0       ?isAllLineDiscovered@SelectionArea@@QAE_NXZ 004397e0 f   SelectionArea.obj
 0001:00038820       ?addNewLineState2Discovered@SelectionArea@@QAEXXZ 00439820 f   SelectionArea.obj
 0001:000388d0       ?setLineState2Using@SelectionArea@@QAEXF@Z 004398d0 f   SelectionArea.obj
 0001:00038980       ?setLineState2Discovered@SelectionArea@@QAEXF@Z 00439980 f   SelectionArea.obj
 0001:00038d20       ??$move@AAPAVRawImageData@@@std@@YA$$QAPAVRawImageData@@AAPAV1@@Z 00439d20 f i SelectionArea.obj
 0001:00038d30       ??$move@AAPAV_Ref_count_base@std@@@std@@YA$$QAPAV_Ref_count_base@0@AAPAV10@@Z 00439d30 f i SelectionArea.obj
 0001:00038d40       ??$swap@PAVRawImageData@@$0A@@std@@YAXAAPAVRawImageData@@0@Z 00439d40 f i SelectionArea.obj
 0001:00038d90       ??$swap@PAV_Ref_count_base@std@@$0A@@std@@YAXAAPAV_Ref_count_base@0@0@Z 00439d90 f i SelectionArea.obj
 0001:00038de0       ??4?$shared_ptr@VRawImageData@@@std@@QAEAAV01@ABV01@@Z 00439de0 f i SelectionArea.obj
 0001:00038e20       ??4SimpleImage@@QAEAAV0@ABV0@@Z 00439e20 f i SelectionArea.obj
 0001:00038e70       ??A?$vector@HV?$allocator@H@std@@@std@@QAEAAHI@Z 00439e70 f i SelectionArea.obj
 0001:00038f20       ??A?$vector@HV?$allocator@H@std@@@std@@QBEABHI@Z 00439f20 f i SelectionArea.obj
 0001:00038fd0       ??A?$vector@IV?$allocator@I@std@@@std@@QBEABII@Z 00439fd0 f i SelectionArea.obj
 0001:00039080       ?_Swap@?$_Ptr_base@VRawImageData@@@std@@IAEXAAV12@@Z 0043a080 f i SelectionArea.obj
 0001:000390c0       ?swap@?$shared_ptr@VRawImageData@@@std@@QAEXAAV12@@Z 0043a0c0 f i SelectionArea.obj
 0001:000390e0       ?mapCoordinates@CroppedImagePixelMapping@@UAE_NAAN0ABVSimpleImage@@@Z 0043a0e0 f i SimpleImage.obj
 0001:00039180       ??0SimpleImage@@QAE@XZ     0043a180 f   SimpleImage.obj
 0001:000391b0       ??0SimpleImage@@QAE@V?$shared_ptr@VRawImageData@@@std@@@Z 0043a1b0 f   SimpleImage.obj
 0001:000391f0       ?exists@SimpleImage@@QBE_NXZ 0043a1f0 f   SimpleImage.obj
 0001:00039210       ?renderImage@SimpleImage@@QBEXPAVDrawingSurface@@HHHHHH@Z 0043a210 f   SimpleImage.obj
 0001:00039320       ?renderImageWithMask@SimpleImage@@QBEXPAVDrawingSurface@@HHHHHHH@Z 0043a320 f   SimpleImage.obj
 0001:00039460       ?renderImageWithMaskAndTransparency@SimpleImage@@QBEXPAVDrawingSurface@@HHHHHHHH@Z 0043a460 f   SimpleImage.obj
 0001:00039630       ?renderImageBlit@SimpleImage@@QAEXPAVBaseEngine@@PAVDrawingSurface@@HHHHHHHH_N@Z 0043a630 f   SimpleImage.obj
 0001:00039900       ?adjustXYWidthHeight@SimpleImage@@SA_NPAVDrawingSurface@@AAH11111@Z 0043a900 f   SimpleImage.obj
 0001:00039b00       ?renderImageApplyingMapping@SimpleImage@@QBEXPAVBaseEngine@@PAVDrawingSurface@@HHHHPAVImagePixelMapping@@@Z 0043ab00 f   SimpleImage.obj
 0001:0003a120       ??BDrawingSurface@@QAEPAUSDL_Surface@@XZ 0043b120 f i SimpleImage.obj
 0001:0003a140       ?getSurface@RawImageData@@QAEPAUSDL_Surface@@XZ 0043b140 f i SimpleImage.obj
 0001:0003a160       ?virtSetupBackgroundBuffer@SimpleDemo@@UAEXXZ 0043b160 f   SimpleDemo.obj
 0001:0003a2a0       ?virtInitialiseObjects@SimpleDemo@@UAEHXZ 0043b2a0 f   SimpleDemo.obj
 0001:0003a420       ?virtDrawStringsUnderneath@SimpleDemo@@UAEXXZ 0043b420 f   SimpleDemo.obj
 0001:0003a4a0       ?virtDrawStringsOnTop@SimpleDemo@@UAEXXZ 0043b4a0 f   SimpleDemo.obj
 0001:0003a560       ?virtMouseDown@SimpleDemo@@UAEXHHH@Z 0043b560 f   SimpleDemo.obj
 0001:0003a580       ?virtKeyDown@SimpleDemo@@UAEXH@Z 0043b580 f   SimpleDemo.obj
 0001:0003a6f0       ??0BouncingObject@@QAE@PAVBaseEngine@@HHNNNN@Z 0043b6f0 f i SimpleDemo.obj
 0001:0003a7c0       ??1BouncingObject@@UAE@XZ  0043b7c0 f i SimpleDemo.obj
 0001:0003a7e0       ??_GBouncingObject@@UAEPAXI@Z 0043b7e0 f i SimpleDemo.obj
 0001:0003a7e0       ??_EBouncingObject@@UAEPAXI@Z 0043b7e0 f i SimpleDemo.obj
 0001:0003a820       ?isPaused@BaseEngine@@QAE_NXZ 0043b820 f i SimpleDemo.obj
 0001:0003a860       ?pause@BaseEngine@@QAEXXZ  0043b860 f i SimpleDemo.obj
 0001:0003a890       ?unpause@BaseEngine@@QAEXXZ 0043b890 f i SimpleDemo.obj
 0001:0003a8e0       ?virtDoUpdate@BouncingObject@@UAEXH@Z 0043b8e0 f i SimpleDemo.obj
 0001:0003ace0       ?virtDraw@BouncingObject@@UAEXXZ 0043bce0 f i SimpleDemo.obj
 0001:0003ad80       ??0StarfieldDemo@@QAE@XZ   0043bd80 f   StarfieldDemo.obj
 0001:0003adc0       ??1StarfieldDemo@@UAE@XZ   0043bdc0 f   StarfieldDemo.obj
 0001:0003adf0       ?virtSetupBackgroundBuffer@StarfieldDemo@@UAEXXZ 0043bdf0 f   StarfieldDemo.obj
 0001:0003af30       ?virtMainLoopDoBeforeUpdate@StarfieldDemo@@UAEXXZ 0043bf30 f   StarfieldDemo.obj
 0001:0003af70       ?copyAllBackgroundBuffer@StarfieldDemo@@UAEXXZ 0043bf70 f   StarfieldDemo.obj
 0001:0003b0b0       ??_GStarfieldDemo@@UAEPAXI@Z 0043c0b0 f i StarfieldDemo.obj
 0001:0003b0b0       ??_EStarfieldDemo@@UAEPAXI@Z 0043c0b0 f i StarfieldDemo.obj
 0001:0003b0f0       ?virtInitialise@StartState@@UAEHPAVScyyz12Engine2@@@Z 0043c0f0 f   StartState.obj
 0001:0003b110       ?virtSetupBackgroundBuffer@StartState@@UAEXPAVScyyz12Engine2@@@Z 0043c110 f   StartState.obj
 0001:0003b2d0       ?virtDrawStringsOnTop@StartState@@UAEXPAVScyyz12Engine2@@@Z 0043c2d0 f   StartState.obj
 0001:0003b6f0       ?virtInitialiseObjects@StartState@@UAEHPAVScyyz12Engine2@@@Z 0043c6f0 f   StartState.obj
 0001:0003b710       ?virtMouseDown@StartState@@UAEXPAVScyyz12Engine2@@HHH@Z 0043c710 f   StartState.obj
 0001:0003b830       ?virtMouseWheel@StartState@@UAEXPAVScyyz12Engine2@@HHHH@Z 0043c830 f   StartState.obj
 0001:0003b860       ?virtMainLoopDoBeforeUpdate@StartState@@UAEXPAVScyyz12Engine2@@@Z 0043c860 f   StartState.obj
 0001:0003b930       ?copyAllBackgroundBuffer@StartState@@UAEXPAVScyyz12Engine2@@@Z 0043c930 f   StartState.obj
 0001:0003b950       ?virtKeyDown@StartState@@UAEXPAVScyyz12Engine2@@H@Z 0043c950 f   StartState.obj
 0001:0003b970       ?virtCreateSurfaces@StartState@@UAEXPAVScyyz12Engine2@@@Z 0043c970 f   StartState.obj
 0001:0003be60       ?addPassenger@Station@@QAEXPAVPassengerCollection@@@Z 0043ce60 f   Station.obj
 0001:0003bf30       ?findFirstPassengerOfType@Station@@QAEHF@Z 0043cf30 f   Station.obj
 0001:0003bf90       ?removePassenger@Station@@QAEXH@Z 0043cf90 f   Station.obj
 0001:0003c110       ?virtDraw@StationCircle@@UAEXXZ 0043d110 f   Station.obj
 0001:0003c260       ?virtDraw@StationSquare@@UAEXXZ 0043d260 f   Station.obj
 0001:0003c3d0       ?virtDraw@StationDiamond@@UAEXXZ 0043d3d0 f   Station.obj
 0001:0003c630       ?virtDraw@StationTriangle@@UAEXXZ 0043d630 f   Station.obj
 0001:0003c820       ?virtDraw@StationInvTriangle@@UAEXXZ 0043d820 f   Station.obj
 0001:0003ca10       ?dist@StationFlower@@AAEHHHHH@Z 0043da10 f   Station.obj
 0001:0003ca60       ?virtDraw@StationFlower@@UAEXXZ 0043da60 f   Station.obj
 0001:0003cec0       ?getStation@StationCollection@@QAEPAVStation@@XZ 0043dec0 f   Station.obj
 0001:0003d2f0       ??$_Copy_memmove@PAPAVPassengerCollection@@PAPAV1@@std@@YAPAPAVPassengerCollection@@PAPAV1@00@Z 0043e2f0 f i Station.obj
 0001:0003d380       ??$_Emplace_back@PAVPassengerCollection@@@?$_Uninitialized_backout_al@V?$allocator@PAVPassengerCollection@@@std@@@std@@QAEX$$QAPAVPassengerCollection@@@Z 0043e380 f i Station.obj
 0001:0003d3e0       ??$_Emplace_back_with_unused_capacity@AAPAVPassengerCollection@@@?$vector@PAVPassengerCollection@@V?$allocator@PAVPassengerCollection@@@std@@@std@@AAE?A_TAAPAVPassengerCollection@@@Z 0043e3e0 f i Station.obj
 0001:0003d480       ??$_Emplace_reallocate@AAPAVPassengerCollection@@@?$vector@PAVPassengerCollection@@V?$allocator@PAVPassengerCollection@@@std@@@std@@QAEPAPAVPassengerCollection@@QAPAV2@AAPAV2@@Z 0043e480 f i Station.obj
 0001:0003d6d0       ??$_Get_unwrapped@ABQAPAVPassengerCollection@@@std@@YA?A_TABQAPAVPassengerCollection@@@Z 0043e6d0 f i Station.obj
 0001:0003d6e0       ??$_Move_unchecked@PAPAVPassengerCollection@@PAPAV1@@std@@YAPAPAVPassengerCollection@@PAPAV1@00@Z 0043e6e0 f i Station.obj
 0001:0003d750       ??$_To_address@PAPAVPassengerCollection@@@std@@YA?A_PABQAPAVPassengerCollection@@@Z 0043e750 f i Station.obj
 0001:0003d760       ??$_Unfancy@PAVPassengerCollection@@@std@@YAPAPAVPassengerCollection@@PAPAV1@@Z 0043e760 f i Station.obj
 0001:0003d770       ??$_Uninitialized_move@PAPAVPassengerCollection@@V?$allocator@PAVPassengerCollection@@@std@@@std@@YAPAPAVPassengerCollection@@QAPAV1@0PAPAV1@AAV?$allocator@PAVPassengerCollection@@@0@@Z 0043e770 f i Station.obj
 0001:0003d890       ??$_Voidify_iter@PAPAVPassengerCollection@@@std@@YAPAXPAPAVPassengerCollection@@@Z 0043e890 f i Station.obj
 0001:0003d8a0       ??$addressof@V?$_Vector_val@U?$_Simple_types@PAVPassengerCollection@@@std@@@std@@@std@@YAPAV?$_Vector_val@U?$_Simple_types@PAVPassengerCollection@@@std@@@0@AAV10@@Z 0043e8a0 f i Station.obj
 0001:0003d8b0       ??$construct@PAVPassengerCollection@@AAPAV1@@?$_Default_allocator_traits@V?$allocator@PAVPassengerCollection@@@std@@@std@@SAXAAV?$allocator@PAVPassengerCollection@@@1@QAPAVPassengerCollection@@AAPAV3@@Z 0043e8b0 f i Station.obj
 0001:0003d900       ??$construct@PAVPassengerCollection@@PAV1@@?$_Default_allocator_traits@V?$allocator@PAVPassengerCollection@@@std@@@std@@SAXAAV?$allocator@PAVPassengerCollection@@@1@QAPAVPassengerCollection@@$$QAPAV3@@Z 0043e900 f i Station.obj
 0001:0003d950       ??$destroy@PAVPassengerCollection@@@?$_Default_allocator_traits@V?$allocator@PAVPassengerCollection@@@std@@@std@@SAXAAV?$allocator@PAVPassengerCollection@@@1@QAPAVPassengerCollection@@@Z 0043e950 f i Station.obj
 0001:0003d960       ??$emplace_back@AAPAVPassengerCollection@@@?$vector@PAVPassengerCollection@@V?$allocator@PAVPassengerCollection@@@std@@@std@@QAE?A_TAAPAVPassengerCollection@@@Z 0043e960 f i Station.obj
 0001:0003d9e0       ??$forward@AAPAVPassengerCollection@@@std@@YAAAPAVPassengerCollection@@AAPAV1@@Z 0043e9e0 f i Station.obj
 0001:0003d9f0       ??$forward@PAVPassengerCollection@@@std@@YA$$QAPAVPassengerCollection@@AAPAV1@@Z 0043e9f0 f i Station.obj
 0001:0003da00       ??$move@AAPAVPassengerCollection@@@std@@YA$$QAPAVPassengerCollection@@AAPAV1@@Z 0043ea00 f i Station.obj
 0001:0003da10       ??0?$_Uninitialized_backout_al@V?$allocator@PAVPassengerCollection@@@std@@@std@@QAE@PAPAVPassengerCollection@@AAV?$allocator@PAVPassengerCollection@@@1@@Z 0043ea10 f i Station.obj
 0001:0003da50       ??0?$_Vector_const_iterator@V?$_Vector_val@U?$_Simple_types@PAVPassengerCollection@@@std@@@std@@@std@@QAE@ABV01@@Z 0043ea50 f i Station.obj
 0001:0003da90       ??0?$_Vector_const_iterator@V?$_Vector_val@U?$_Simple_types@PAVPassengerCollection@@@std@@@std@@@std@@QAE@PAPAVPassengerCollection@@PBU_Container_base12@1@@Z 0043ea90 f i Station.obj
 0001:0003dad0       ??0?$_Vector_iterator@V?$_Vector_val@U?$_Simple_types@PAVPassengerCollection@@@std@@@std@@@std@@QAE@ABV01@@Z 0043ead0 f i Station.obj
 0001:0003db00       ??0?$_Vector_iterator@V?$_Vector_val@U?$_Simple_types@PAVPassengerCollection@@@std@@@std@@@std@@QAE@PAPAVPassengerCollection@@PBU_Container_base12@1@@Z 0043eb00 f i Station.obj
 0001:0003db30       ??1?$_Uninitialized_backout_al@V?$allocator@PAVPassengerCollection@@@std@@@std@@QAE@XZ 0043eb30 f i Station.obj
 0001:0003db60       ??1?$_Vector_const_iterator@V?$_Vector_val@U?$_Simple_types@PAVPassengerCollection@@@std@@@std@@@std@@QAE@XZ 0043eb60 f i Station.obj
 0001:0003db80       ??1?$_Vector_iterator@V?$_Vector_val@U?$_Simple_types@PAVPassengerCollection@@@std@@@std@@@std@@QAE@XZ 0043eb80 f i Station.obj
 0001:0003dba0       ??H?$_Vector_iterator@V?$_Vector_val@U?$_Simple_types@PAVPassengerCollection@@@std@@@std@@@std@@QBE?AV01@H@Z 0043eba0 f i Station.obj
 0001:0003dbf0       ??Y?$_Vector_const_iterator@V?$_Vector_val@U?$_Simple_types@PAVPassengerCollection@@@std@@@std@@@std@@QAEAAV01@H@Z 0043ebf0 f i Station.obj
 0001:0003dc30       ??Y?$_Vector_iterator@V?$_Vector_val@U?$_Simple_types@PAVPassengerCollection@@@std@@@std@@@std@@QAEAAV01@H@Z 0043ec30 f i Station.obj
 0001:0003dc60       ?_Calculate_growth@?$vector@PAVPassengerCollection@@V?$allocator@PAVPassengerCollection@@@std@@@std@@ABEII@Z 0043ec60 f i Station.obj
 0001:0003dcd0       ?_Change_array@?$vector@PAVPassengerCollection@@V?$allocator@PAVPassengerCollection@@@std@@@std@@AAEXQAPAVPassengerCollection@@II@Z 0043ecd0 f i Station.obj
 0001:0003dda0       ?_Get_first@?$_Compressed_pair@V?$allocator@PAVPassengerCollection@@@std@@V?$_Vector_val@U?$_Simple_types@PAVPassengerCollection@@@std@@@2@$00@std@@QBEABV?$allocator@PAVPassengerCollection@@@2@XZ 0043eda0 f i Station.obj
 0001:0003ddc0       ?_Getal@?$vector@PAVPassengerCollection@@V?$allocator@PAVPassengerCollection@@@std@@@std@@ABEABV?$allocator@PAVPassengerCollection@@@2@XZ 0043edc0 f i Station.obj
 0001:0003dde0       ?_Orphan_range@?$vector@PAVPassengerCollection@@V?$allocator@PAVPassengerCollection@@@std@@@std@@ABEXPAPAVPassengerCollection@@0@Z 0043ede0 f i Station.obj
 0001:0003de10       ?_Orphan_range_locked@?$vector@PAVPassengerCollection@@V?$allocator@PAVPassengerCollection@@@std@@@std@@ABEXPAPAVPassengerCollection@@0@Z 0043ee10 f i Station.obj
 0001:0003dea0       ?_Orphan_range_unlocked@?$vector@PAVPassengerCollection@@V?$allocator@PAVPassengerCollection@@@std@@@std@@ABEXPAPAVPassengerCollection@@0@Z 0043eea0 f i Station.obj
 0001:0003df30       ?_Release@?$_Uninitialized_backout_al@V?$allocator@PAVPassengerCollection@@@std@@@std@@QAEPAPAVPassengerCollection@@XZ 0043ef30 f i Station.obj
 0001:0003df60       ?_Umove@?$vector@PAVPassengerCollection@@V?$allocator@PAVPassengerCollection@@@std@@@std@@AAEPAPAVPassengerCollection@@PAPAV3@00@Z 0043ef60 f i Station.obj
 0001:0003dfa0       ?_Umove_if_noexcept1@?$vector@PAVPassengerCollection@@V?$allocator@PAVPassengerCollection@@@std@@@std@@AAEXPAPAVPassengerCollection@@00U?$integral_constant@_N$00@2@@Z 0043efa0 f i Station.obj
 0001:0003dfe0       ?_Umove_if_noexcept@?$vector@PAVPassengerCollection@@V?$allocator@PAVPassengerCollection@@@std@@@std@@AAEXPAPAVPassengerCollection@@00@Z 0043efe0 f i Station.obj
 0001:0003e020       ?_Unchecked_begin@?$vector@PAVPassengerCollection@@V?$allocator@PAVPassengerCollection@@@std@@@std@@QAEPAPAVPassengerCollection@@XZ 0043f020 f i Station.obj
 0001:0003e040       ?_Unchecked_end@?$vector@PAVPassengerCollection@@V?$allocator@PAVPassengerCollection@@@std@@@std@@QAEPAPAVPassengerCollection@@XZ 0043f040 f i Station.obj
 0001:0003e060       ?_Verify_offset@?$_Vector_const_iterator@V?$_Vector_val@U?$_Simple_types@PAVPassengerCollection@@@std@@@std@@@std@@QBEXH@Z 0043f060 f i Station.obj
 0001:0003e1f0       ?_Xlength@?$vector@PAVPassengerCollection@@V?$allocator@PAVPassengerCollection@@@std@@@std@@CAXXZ 0043f1f0 f i Station.obj
 0001:0003e210       ?allocate@?$allocator@PAVPassengerCollection@@@std@@QAEPAPAVPassengerCollection@@I@Z 0043f210 f i Station.obj
 0001:0003e240       ?begin@?$vector@PAVPassengerCollection@@V?$allocator@PAVPassengerCollection@@@std@@@std@@QAE?AV?$_Vector_iterator@V?$_Vector_val@U?$_Simple_types@PAVPassengerCollection@@@std@@@std@@@2@XZ 0043f240 f i Station.obj
 0001:0003e290       ?capacity@?$vector@PAVPassengerCollection@@V?$allocator@PAVPassengerCollection@@@std@@@std@@QBEIXZ 0043f290 f i Station.obj
 0001:0003e2c0       ?erase@?$vector@PAVPassengerCollection@@V?$allocator@PAVPassengerCollection@@@std@@@std@@QAE?AV?$_Vector_iterator@V?$_Vector_val@U?$_Simple_types@PAVPassengerCollection@@@std@@@std@@@2@V?$_Vector_const_iterator@V?$_Vector_val@U?$_Simple_types@PAVPassengerCollection@@@std@@@std@@@2@@Z 0043f2c0 f i Station.obj
 0001:0003e470       ?max_size@?$_Default_allocator_traits@V?$allocator@PAVPassengerCollection@@@std@@@std@@SAIABV?$allocator@PAVPassengerCollection@@@2@@Z 0043f470 f i Station.obj
 0001:0003e480       ?max_size@?$vector@PAVPassengerCollection@@V?$allocator@PAVPassengerCollection@@@std@@@std@@QBEIXZ 0043f480 f i Station.obj
 0001:0003e4d0       ?drawAllTiles@TileManager@@QBEXPAVBaseEngine@@PAVDrawingSurface@@@Z 0043f4d0 f   TileManager.obj
 0001:0003e570       ?drawSomeTiles@TileManager@@QBEXPAVBaseEngine@@PAVDrawingSurface@@HHHH@Z 0043f570 f   TileManager.obj
 0001:0003e610       ?virtDrawTileAt@TileManager@@UBEXPAVBaseEngine@@PAVDrawingSurface@@HHHH@Z 0043f610 f   TileManager.obj
 0001:0003e700       ??0BouncingBall@@QAE@PAVBouncingBallMain@@HHHHPBDHH@Z 0043f700 f   BouncingBall.obj
 0001:0003e7d0       ??1BouncingBall@@UAE@XZ    0043f7d0 f   BouncingBall.obj
 0001:0003e7f0       ?virtDraw@BouncingBall@@UAEXXZ 0043f7f0 f   BouncingBall.obj
 0001:0003eac0       ?virtDoUpdate@BouncingBall@@UAEXH@Z 0043fac0 f   BouncingBall.obj
 0001:0003eae0       ??0BouncingBall1@@QAE@PAVBouncingBallMain@@HHHHPBDHHPAVTileManager@@@Z 0043fae0 f   BouncingBall.obj
 0001:0003eb80       ?setMovement@BouncingBall1@@QAEXHHHHHHH@Z 0043fb80 f   BouncingBall.obj
 0001:0003ebf0       ?virtDoUpdate@BouncingBall1@@UAEXH@Z 0043fbf0 f   BouncingBall.obj
 0001:0003ed30       ??0BouncingBall2@@QAE@PAVBouncingBallMain@@HHHHPBDHH@Z 0043fd30 f   BouncingBall.obj
 0001:0003edb0       ?setPosition@BouncingBall2@@QAEXNN@Z 0043fdb0 f   BouncingBall.obj
 0001:0003ede0       ?setSpeed@BouncingBall2@@QAEXNN@Z 0043fde0 f   BouncingBall.obj
 0001:0003ee10       ?virtDoUpdate@BouncingBall2@@UAEXH@Z 0043fe10 f   BouncingBall.obj
 0001:0003f3f0       ??0MovementPosition@@QAE@XZ 004403f0 f i BouncingBall.obj
 0001:0003f470       ??1BouncingBall1@@UAE@XZ   00440470 f i BouncingBall.obj
 0001:0003f490       ??1BouncingBall2@@UAE@XZ   00440490 f i BouncingBall.obj
 0001:0003f4b0       ??_GBouncingBall1@@UAEPAXI@Z 004404b0 f i BouncingBall.obj
 0001:0003f4b0       ??_EBouncingBall1@@UAEPAXI@Z 004404b0 f i BouncingBall.obj
 0001:0003f4f0       ??_GBouncingBall2@@UAEPAXI@Z 004404f0 f i BouncingBall.obj
 0001:0003f4f0       ??_EBouncingBall2@@UAEPAXI@Z 004404f0 f i BouncingBall.obj
 0001:0003f530       ??_GBouncingBall@@UAEPAXI@Z 00440530 f i BouncingBall.obj
 0001:0003f530       ??_EBouncingBall@@UAEPAXI@Z 00440530 f i BouncingBall.obj
 0001:0003f570       ?calculate@MovementPosition@@QAEXH@Z 00440570 f i BouncingBall.obj
 0001:0003f660       ?getX@MovementPosition@@QBEHXZ 00440660 f i BouncingBall.obj
 0001:0003f680       ?getY@MovementPosition@@QBEHXZ 00440680 f i BouncingBall.obj
 0001:0003f6a0       ?hasMovementFinished@MovementPosition@@QBE_NH@Z 004406a0 f i BouncingBall.obj
 0001:0003f6e0       ?reverse@MovementPosition@@QAEXXZ 004406e0 f i BouncingBall.obj
 0001:0003f770       ?setup@MovementPosition@@QAEXHHHHHH@Z 00440770 f i BouncingBall.obj
 0001:0003f7e0       ?virtMouseDown@BouncingBall@@UAEXHHH@Z 004407e0 f i BouncingBall.obj
 0001:0003f820       ?virtSetupBackgroundBuffer@BouncingBallMain@@UAEXXZ 00440820 f   BouncingBallMain.obj
 0001:0003fcf0       ?virtInitialiseObjects@BouncingBallMain@@UAEHXZ 00440cf0 f   BouncingBallMain.obj
 0001:0003ffc0       ?virtDrawStringsUnderneath@BouncingBallMain@@UAEXXZ 00440fc0 f   BouncingBallMain.obj
 0001:00040000       ?virtMouseDown@BouncingBallMain@@UAEXHHH@Z 00441000 f   BouncingBallMain.obj
 0001:00040040       ?virtKeyDown@BouncingBallMain@@UAEXH@Z 00441040 f   BouncingBallMain.obj
 0001:00040280       ?setBrightnessPercentage@ImagePixelMappingRotateAndColour@@QAEXH@Z 00441280 f i BouncingBallMain.obj
 0001:000402a0       ?setMergePercentage@ImagePixelMappingRotateAndColour@@QAEXHH@Z 004412a0 f i BouncingBallMain.obj
 0001:000402d0       ?setNthPixelColours@ImagePixelMappingRotateAndColour@@QAEXHHH@Z 004412d0 f i BouncingBallMain.obj
 0001:00040310       ?setTopLeftPositionInImage@ImagePixelMappingRotateAndColour@@QAEXHH@Z 00441310 f i BouncingBallMain.obj
 0001:00040340       ?virtDoUpdate@Carriage@@UAEXH@Z 00441340 f   Train.obj
 0001:000409e0       ?getLength@Carriage@@QAEHXZ 004419e0 f   Train.obj
 0001:00040a00       ?getMaxNumOfPassengers@Carriage@@QAEHXZ 00441a00 f   Train.obj
 0001:00040a20       ?addPassenger@Carriage@@QAEXPAVPassengerCollection@@@Z 00441a20 f   Train.obj
 0001:00040bb0       ?findPassengerByType@Carriage@@QAE?AV?$vector@HV?$allocator@H@std@@@std@@F@Z 00441bb0 f   Train.obj
 0001:00040c90       ?removePassenger@Carriage@@QAEXH@Z 00441c90 f   Train.obj
 0001:00040d30       ?isFull@Carriage@@QAE_NXZ  00441d30 f   Train.obj
 0001:00040d60       ?setIsRun@Carriage@@QAEX_N@Z 00441d60 f   Train.obj
 0001:00040d80       ?virtDraw@CarriageHead@@UAEXXZ 00441d80 f   Train.obj
 0001:00040ed0       ?virtDraw@CarriageMain@@UAEXXZ 00441ed0 f   Train.obj
 0001:00040fa0       ?virtDraw@CarriageHeadFast@@UAEXXZ 00441fa0 f   Train.obj
 0001:00041100       ?virtDraw@CarriageHeadIntelli@@UAEXXZ 00442100 f   Train.obj
 0001:00041260       ?getCarriage@CarriageCollection@@QAEPAVCarriage@@XZ 00442260 f   Train.obj
 0001:00041270       ?addCarriage@Train@@QAE_NHH@Z 00442270 f   Train.obj
 0001:00041450       ?removeCarriageAfterN@Train@@QAEXH@Z 00442450 f   Train.obj
 0001:00041530       ?getCarriageList@Train@@QAE?AV?$vector@PAVCarriageCollection@@V?$allocator@PAVCarriageCollection@@@std@@@std@@XZ 00442530 f   Train.obj
 0001:00041570       ?addPassenger@Train@@QAEXPAVPassengerCollection@@@Z 00442570 f   Train.obj
 0001:00041650       ?findPassengerByType@Train@@QAE?AV?$vector@HV?$allocator@H@std@@@std@@F@Z 00442650 f   Train.obj
 0001:00041810       ?removePassenger@Train@@QAEXH@Z 00442810 f   Train.obj
 0001:000418d0       ?isFull@Train@@QAE_NXZ     004428d0 f   Train.obj
 0001:00041900       ?getIsRun@Train@@QAE_NXZ   00442900 f   Train.obj
 0001:00041920       ?startTrain@Train@@QAEXXZ  00442920 f   Train.obj
 0001:00041990       ?stopTrain@Train@@QAEXXZ   00442990 f   Train.obj
 0001:00041a00       ?addHead@TrainNormal@@UAEXHH@Z 00442a00 f   Train.obj
 0001:00041b30       ?addHead@TrainFast@@UAEXHH@Z 00442b30 f   Train.obj
 0001:00041c60       ?addHead@TrainIntelli@@UAEXHH@Z 00442c60 f   Train.obj
 0001:00041d90       ?getTrain@TrainCollection@@QAEPAVTrain@@XZ 00442d90 f   Train.obj
 0001:000424a0       ??$?0V?$allocator@H@std@@PAHPAHPAH@?$_Compressed_pair@V?$allocator@H@std@@V?$_Vector_val@U?$_Simple_types@H@std@@@2@$00@std@@QAE@U_One_then_variadic_args_t@1@$$QAV?$allocator@H@1@$$QAPAH22@Z 004434a0 f i Train.obj
 0001:00042510       ??$?0V?$allocator@PAVCarriageCollection@@@std@@$$V@?$_Compressed_pair@V?$allocator@PAVCarriageCollection@@@std@@V?$_Vector_val@U?$_Simple_types@PAVCarriageCollection@@@std@@@2@$00@std@@QAE@U_One_then_variadic_args_t@1@$$QAV?$allocator@PAVCarriageCollection@@@1@@Z 00443510 f i Train.obj
 0001:00042540       ??$_Adl_verify_range@V?$_Vector_iterator@V?$_Vector_val@U?$_Simple_types@H@std@@@std@@@std@@V12@@std@@YAXABV?$_Vector_iterator@V?$_Vector_val@U?$_Simple_types@H@std@@@std@@@0@0@Z 00443540 f i Train.obj
 0001:00042560       ??$_Copy_backward_memmove@PAHPAH@std@@YAPAHPAH00@Z 00443560 f i Train.obj
 0001:000425f0       ??$_Copy_memmove@PAPAVCarriageCollection@@PAPAV1@@std@@YAPAPAVCarriageCollection@@PAPAV1@00@Z 004435f0 f i Train.obj
 0001:00042680       ??$_Emplace_back@AAH@?$_Uninitialized_backout_al@V?$allocator@H@std@@@std@@QAEXAAH@Z 00443680 f i Train.obj
 0001:000426e0       ??$_Emplace_back@AAPAVCarriageCollection@@@?$_Uninitialized_backout_al@V?$allocator@PAVCarriageCollection@@@std@@@std@@QAEXAAPAVCarriageCollection@@@Z 004436e0 f i Train.obj
 0001:00042740       ??$_Emplace_back@ABQAVPassengerCollection@@@?$_Uninitialized_backout_al@V?$allocator@PAVPassengerCollection@@@std@@@std@@QAEXABQAVPassengerCollection@@@Z 00443740 f i Train.obj
 0001:000427a0       ??$_Emplace_back@PAVCarriageCollection@@@?$_Uninitialized_backout_al@V?$allocator@PAVCarriageCollection@@@std@@@std@@QAEX$$QAPAVCarriageCollection@@@Z 004437a0 f i Train.obj
 0001:00042800       ??$_Emplace_back_with_unused_capacity@AAPAVCarriageCollection@@@?$vector@PAVCarriageCollection@@V?$allocator@PAVCarriageCollection@@@std@@@std@@AAE?A_TAAPAVCarriageCollection@@@Z 00443800 f i Train.obj
 0001:000428a0       ??$_Emplace_reallocate@AAPAVCarriageCollection@@@?$vector@PAVCarriageCollection@@V?$allocator@PAVCarriageCollection@@@std@@@std@@QAEPAPAVCarriageCollection@@QAPAV2@AAPAV2@@Z 004438a0 f i Train.obj
 0001:00042af0       ??$_Fill_zero_memset@PAPAVPassengerCollection@@@std@@YAXPAPAVPassengerCollection@@I@Z 00443af0 f i Train.obj
 0001:00042b20       ??$_Get_unwrapped@AAV?$_Vector_iterator@V?$_Vector_val@U?$_Simple_types@H@std@@@std@@@std@@@std@@YA?A_TAAV?$_Vector_iterator@V?$_Vector_val@U?$_Simple_types@H@std@@@std@@@0@@Z 00443b20 f i Train.obj
 0001:00042b30       ??$_Get_unwrapped@ABQAPAVCarriageCollection@@@std@@YA?A_TABQAPAVCarriageCollection@@@Z 00443b30 f i Train.obj
 0001:00042b40       ??$_Insert_range@PAH@?$vector@HV?$allocator@H@std@@@std@@AAEXV?$_Vector_const_iterator@V?$_Vector_val@U?$_Simple_types@H@std@@@std@@@1@PAH1Uforward_iterator_tag@1@@Z 00443b40 f i Train.obj
 0001:000430f0       ??$_Is_all_bits_zero@PAVPassengerCollection@@@std@@YA_NABQAVPassengerCollection@@@Z 004440f0 f i Train.obj
 0001:00043140       ??$_Move_backward_unchecked@PAHPAH@std@@YAPAHPAH00@Z 00444140 f i Train.obj
 0001:000431a0       ??$_Move_unchecked@PAHPAH@std@@YAPAHPAH00@Z 004441a0 f i Train.obj
 0001:00043210       ??$_Resize@PAVPassengerCollection@@@?$vector@PAVPassengerCollection@@V?$allocator@PAVPassengerCollection@@@std@@@std@@AAEXIABQAVPassengerCollection@@@Z 00444210 f i Train.obj
 0001:00043330       ??$_Resize_reallocate@PAVPassengerCollection@@@?$vector@PAVPassengerCollection@@V?$allocator@PAVPassengerCollection@@@std@@@std@@AAEXIABQAVPassengerCollection@@@Z 00444330 f i Train.obj
 0001:000434e0       ??$_To_address@PAPAVCarriageCollection@@@std@@YA?A_PABQAPAVCarriageCollection@@@Z 004444e0 f i Train.obj
 0001:000434f0       ??$_Ucopy@PAH@?$vector@HV?$allocator@H@std@@@std@@AAEPAHPAH00@Z 004444f0 f i Train.obj
 0001:00043530       ??$_Ucopy@PAPAVCarriageCollection@@@?$vector@PAVCarriageCollection@@V?$allocator@PAVCarriageCollection@@@std@@@std@@AAEPAPAVCarriageCollection@@PAPAV2@00@Z 00444530 f i Train.obj
 0001:00043570       ??$_Unfancy@PAVCarriageCollection@@@std@@YAPAPAVCarriageCollection@@PAPAV1@@Z 00444570 f i Train.obj
 0001:00043580       ??$_Uninitialized_copy@PAHV?$allocator@H@std@@@std@@YAPAHQAH0PAHAAV?$allocator@H@0@@Z 00444580 f i Train.obj
 0001:000436a0       ??$_Uninitialized_copy@PAPAVCarriageCollection@@V?$allocator@PAVCarriageCollection@@@std@@@std@@YAPAPAVCarriageCollection@@QAPAV1@0PAPAV1@AAV?$allocator@PAVCarriageCollection@@@0@@Z 004446a0 f i Train.obj
 0001:000437c0       ??$_Uninitialized_fill_n@V?$allocator@PAVPassengerCollection@@@std@@@std@@YAPAPAVPassengerCollection@@PAPAV1@IABQAV1@AAV?$allocator@PAVPassengerCollection@@@0@@Z 004447c0 f i Train.obj
 0001:000438b0       ??$_Uninitialized_move@PAPAVCarriageCollection@@V?$allocator@PAVCarriageCollection@@@std@@@std@@YAPAPAVCarriageCollection@@QAPAV1@0PAPAV1@AAV?$allocator@PAVCarriageCollection@@@0@@Z 004448b0 f i Train.obj
 0001:000439d0       ??$_Voidify_iter@PAPAVCarriageCollection@@@std@@YAPAXPAPAVCarriageCollection@@@Z 004449d0 f i Train.obj
 0001:000439e0       ??$addressof@V?$_Vector_val@U?$_Simple_types@H@std@@@std@@@std@@YAPAV?$_Vector_val@U?$_Simple_types@H@std@@@0@AAV10@@Z 004449e0 f i Train.obj
 0001:000439f0       ??$construct@PAVCarriageCollection@@AAPAV1@@?$_Default_allocator_traits@V?$allocator@PAVCarriageCollection@@@std@@@std@@SAXAAV?$allocator@PAVCarriageCollection@@@1@QAPAVCarriageCollection@@AAPAV3@@Z 004449f0 f i Train.obj
 0001:00043a40       ??$construct@PAVCarriageCollection@@PAV1@@?$_Default_allocator_traits@V?$allocator@PAVCarriageCollection@@@std@@@std@@SAXAAV?$allocator@PAVCarriageCollection@@@1@QAPAVCarriageCollection@@$$QAPAV3@@Z 00444a40 f i Train.obj
 0001:00043a90       ??$construct@PAVPassengerCollection@@ABQAV1@@?$_Default_allocator_traits@V?$allocator@PAVPassengerCollection@@@std@@@std@@SAXAAV?$allocator@PAVPassengerCollection@@@1@QAPAVPassengerCollection@@ABQAV3@@Z 00444a90 f i Train.obj
 0001:00043ae0       ??$destroy@PAVCarriageCollection@@@?$_Default_allocator_traits@V?$allocator@PAVCarriageCollection@@@std@@@std@@SAXAAV?$allocator@PAVCarriageCollection@@@1@QAPAVCarriageCollection@@@Z 00444ae0 f i Train.obj
 0001:00043af0       ??$distance@PAH@std@@YAHPAH0@Z 00444af0 f i Train.obj
 0001:00043b10       ??$emplace_back@AAPAVCarriageCollection@@@?$vector@PAVCarriageCollection@@V?$allocator@PAVCarriageCollection@@@std@@@std@@QAE?A_TAAPAVCarriageCollection@@@Z 00444b10 f i Train.obj
 0001:00043b90       ??$exchange@PAH$$T@std@@YAPAHAAPAH$$QA$$T@Z 00444b90 f i Train.obj
 0001:00043ca0       ??$forward@AAPAVCarriageCollection@@@std@@YAAAPAVCarriageCollection@@AAPAV1@@Z 00444ca0 f i Train.obj
 0001:00043cb0       ??$forward@ABQAVPassengerCollection@@@std@@YAABQAVPassengerCollection@@ABQAV1@@Z 00444cb0 f i Train.obj
 0001:00043cc0       ??$forward@PAH@std@@YA$$QAPAHAAPAH@Z 00444cc0 f i Train.obj
 0001:00043cd0       ??$forward@PAVCarriageCollection@@@std@@YA$$QAPAVCarriageCollection@@AAPAV1@@Z 00444cd0 f i Train.obj
 0001:00043ce0       ??$forward@V?$allocator@H@std@@@std@@YA$$QAV?$allocator@H@0@AAV10@@Z 00444ce0 f i Train.obj
 0001:00043cf0       ??$forward@V?$allocator@PAVCarriageCollection@@@std@@@std@@YA$$QAV?$allocator@PAVCarriageCollection@@@0@AAV10@@Z 00444cf0 f i Train.obj
 0001:00043d00       ??$insert@V?$_Vector_iterator@V?$_Vector_val@U?$_Simple_types@H@std@@@std@@@std@@$0A@@?$vector@HV?$allocator@H@std@@@std@@QAE?AV?$_Vector_iterator@V?$_Vector_val@U?$_Simple_types@H@std@@@std@@@1@V?$_Vector_const_iterator@V?$_Vector_val@U?$_Simple_types@H@std@@@std@@@1@V21@1@Z 00444d00 f i Train.obj
 0001:00043ed0       ??$move@AAPAVCarriageCollection@@@std@@YA$$QAPAVCarriageCollection@@AAPAV1@@Z 00444ed0 f i Train.obj
 0001:00043ee0       ??$move@AAV?$allocator@H@std@@@std@@YA$$QAV?$allocator@H@0@AAV10@@Z 00444ee0 f i Train.obj
 0001:00043ef0       ??$size@V?$vector@PAVCarriageCollection@@V?$allocator@PAVCarriageCollection@@@std@@@std@@@std@@YAIABV?$vector@PAVCarriageCollection@@V?$allocator@PAVCarriageCollection@@@std@@@0@@Z 00444ef0 f i Train.obj
 0001:00043f00       ??0?$_Uninitialized_backout_al@V?$allocator@PAVCarriageCollection@@@std@@@std@@QAE@PAPAVCarriageCollection@@AAV?$allocator@PAVCarriageCollection@@@1@@Z 00444f00 f i Train.obj
 0001:00043f40       ??0?$_Vector_const_iterator@V?$_Vector_val@U?$_Simple_types@H@std@@@std@@@std@@QAE@ABV01@@Z 00444f40 f i Train.obj
 0001:00043f80       ??0?$_Vector_const_iterator@V?$_Vector_val@U?$_Simple_types@H@std@@@std@@@std@@QAE@PAHPBU_Container_base12@1@@Z 00444f80 f i Train.obj
 0001:00043fc0       ??0?$_Vector_iterator@V?$_Vector_val@U?$_Simple_types@H@std@@@std@@@std@@QAE@PAHPBU_Container_base12@1@@Z 00444fc0 f i Train.obj
 0001:00043ff0       ??0?$_Vector_val@U?$_Simple_types@H@std@@@std@@QAE@PAH00@Z 00444ff0 f i Train.obj
 0001:00044030       ??0?$vector@HV?$allocator@H@std@@@std@@QAE@$$QAV01@@Z 00445030 f i Train.obj
 0001:00044160       ??0?$vector@PAVCarriageCollection@@V?$allocator@PAVCarriageCollection@@@std@@@std@@QAE@ABV01@@Z 00445160 f i Train.obj
 0001:000442c0       ??0Carriage@@QAE@PAVBaseEngine@@NNINFHHH@Z 004452c0 f i Train.obj
 0001:000444c0       ??0CarriageCollection@@QAE@FPAVBaseEngine@@NNINFIHHH@Z 004454c0 f i Train.obj
 0001:000449a0       ??0CarriageHead@@QAE@PAVBaseEngine@@NNINFHHH@Z 004459a0 f i Train.obj
 0001:00044a20       ??0CarriageHeadFast@@QAE@PAVBaseEngine@@NNINFHHH@Z 00445a20 f i Train.obj
 0001:00044aa0       ??0CarriageHeadIntelli@@QAE@PAVBaseEngine@@NNIINFHHH@Z 00445aa0 f i Train.obj
 0001:00044b30       ??0CarriageMain@@QAE@PAVBaseEngine@@NNINFHHH@Z 00445b30 f i Train.obj
 0001:00044bb0       ??1?$_Tidy_guard@V?$vector@PAVCarriageCollection@@V?$allocator@PAVCarriageCollection@@@std@@@std@@@std@@QAE@XZ 00445bb0 f i Train.obj
 0001:00044be0       ??1?$_Uninitialized_backout_al@V?$allocator@PAVCarriageCollection@@@std@@@std@@QAE@XZ 00445be0 f i Train.obj
 0001:00044c10       ??1?$_Vector_const_iterator@V?$_Vector_val@U?$_Simple_types@H@std@@@std@@@std@@QAE@XZ 00445c10 f i Train.obj
 0001:00044c30       ??1?$_Vector_iterator@V?$_Vector_val@U?$_Simple_types@H@std@@@std@@@std@@QAE@XZ 00445c30 f i Train.obj
 0001:00044c50       ??1Carriage@@UAE@XZ        00445c50 f i Train.obj
 0001:00044d00       ??1CarriageHead@@UAE@XZ    00445d00 f i Train.obj
 0001:00044d20       ??1CarriageHeadFast@@UAE@XZ 00445d20 f i Train.obj
 0001:00044d40       ??1CarriageHeadIntelli@@UAE@XZ 00445d40 f i Train.obj
 0001:00044d60       ??1CarriageMain@@UAE@XZ    00445d60 f i Train.obj
 0001:00044d80       ??_GCarriage@@UAEPAXI@Z    00445d80 f i Train.obj
 0001:00044d80       ??_ECarriage@@UAEPAXI@Z    00445d80 f i Train.obj
 0001:00044dc0       ??_ECarriageHead@@UAEPAXI@Z 00445dc0 f i Train.obj
 0001:00044dc0       ??_GCarriageHead@@UAEPAXI@Z 00445dc0 f i Train.obj
 0001:00044e00       ??_GCarriageHeadFast@@UAEPAXI@Z 00445e00 f i Train.obj
 0001:00044e00       ??_ECarriageHeadFast@@UAEPAXI@Z 00445e00 f i Train.obj
 0001:00044e40       ??_ECarriageHeadIntelli@@UAEPAXI@Z 00445e40 f i Train.obj
 0001:00044e40       ??_GCarriageHeadIntelli@@UAEPAXI@Z 00445e40 f i Train.obj
 0001:00044e80       ??_GCarriageMain@@UAEPAXI@Z 00445e80 f i Train.obj
 0001:00044e80       ??_ECarriageMain@@UAEPAXI@Z 00445e80 f i Train.obj
 0001:00044ec0       ?_Buy_raw@?$vector@PAVCarriageCollection@@V?$allocator@PAVCarriageCollection@@@std@@@std@@AAEXI@Z 00445ec0 f i Train.obj
 0001:00044f40       ?_Calculate_growth@?$vector@PAVCarriageCollection@@V?$allocator@PAVCarriageCollection@@@std@@@std@@ABEII@Z 00445f40 f i Train.obj
 0001:00044fb0       ?_Change_array@?$vector@PAVCarriageCollection@@V?$allocator@PAVCarriageCollection@@@std@@@std@@AAEXQAPAVCarriageCollection@@II@Z 00445fb0 f i Train.obj
 0001:00045080       ?_Get_first@?$_Compressed_pair@V?$allocator@PAVCarriageCollection@@@std@@V?$_Vector_val@U?$_Simple_types@PAVCarriageCollection@@@std@@@2@$00@std@@QBEABV?$allocator@PAVCarriageCollection@@@2@XZ 00446080 f i Train.obj
 0001:000450a0       ?_Getal@?$vector@PAVCarriageCollection@@V?$allocator@PAVCarriageCollection@@@std@@@std@@ABEABV?$allocator@PAVCarriageCollection@@@2@XZ 004460a0 f i Train.obj
 0001:000450c0       ?_Make_iterator_offset@?$vector@HV?$allocator@H@std@@@std@@AAE?AV?$_Vector_iterator@V?$_Vector_val@U?$_Simple_types@H@std@@@std@@@2@I@Z 004460c0 f i Train.obj
 0001:00045110       ?_Orphan_range@?$vector@PAVCarriageCollection@@V?$allocator@PAVCarriageCollection@@@std@@@std@@ABEXPAPAVCarriageCollection@@0@Z 00446110 f i Train.obj
 0001:00045140       ?_Orphan_range_locked@?$vector@PAVCarriageCollection@@V?$allocator@PAVCarriageCollection@@@std@@@std@@ABEXPAPAVCarriageCollection@@0@Z 00446140 f i Train.obj
 0001:000451d0       ?_Orphan_range_unlocked@?$vector@PAVCarriageCollection@@V?$allocator@PAVCarriageCollection@@@std@@@std@@ABEXPAPAVCarriageCollection@@0@Z 004461d0 f i Train.obj
 0001:00045260       ?_Release@?$_Uninitialized_backout_al@V?$allocator@PAVCarriageCollection@@@std@@@std@@QAEPAPAVCarriageCollection@@XZ 00446260 f i Train.obj
 0001:00045290       ?_Ufill@?$vector@PAVPassengerCollection@@V?$allocator@PAVPassengerCollection@@@std@@@std@@AAEPAPAVPassengerCollection@@PAPAV3@IABQAV3@@Z 00446290 f i Train.obj
 0001:000452d0       ?_Umove@?$vector@PAVCarriageCollection@@V?$allocator@PAVCarriageCollection@@@std@@@std@@AAEPAPAVCarriageCollection@@PAPAV3@00@Z 004462d0 f i Train.obj
 0001:00045310       ?_Umove_if_noexcept1@?$vector@PAVCarriageCollection@@V?$allocator@PAVCarriageCollection@@@std@@@std@@AAEXPAPAVCarriageCollection@@00U?$integral_constant@_N$00@2@@Z 00446310 f i Train.obj
 0001:00045350       ?_Umove_if_noexcept@?$vector@PAVCarriageCollection@@V?$allocator@PAVCarriageCollection@@@std@@@std@@AAEXPAPAVCarriageCollection@@00@Z 00446350 f i Train.obj
 0001:00045390       ?_Unwrapped@?$_Vector_iterator@V?$_Vector_val@U?$_Simple_types@H@std@@@std@@@std@@QBEPAHXZ 00446390 f i Train.obj
 0001:000453b0       ?_Verify_range@std@@YAXABV?$_Vector_const_iterator@V?$_Vector_val@U?$_Simple_types@H@std@@@std@@@1@0@Z 004463b0 f i Train.obj
 0001:000454b0       ?_Xlength@?$vector@PAVCarriageCollection@@V?$allocator@PAVCarriageCollection@@@std@@@std@@CAXXZ 004464b0 f i Train.obj
 0001:000454d0       ?allocate@?$allocator@PAVCarriageCollection@@@std@@QAEPAPAVCarriageCollection@@I@Z 004464d0 f i Train.obj
 0001:00045500       ?begin@?$vector@HV?$allocator@H@std@@@std@@QAE?AV?$_Vector_iterator@V?$_Vector_val@U?$_Simple_types@H@std@@@std@@@2@XZ 00446500 f i Train.obj
 0001:00045550       ?capacity@?$vector@PAVCarriageCollection@@V?$allocator@PAVCarriageCollection@@@std@@@std@@QBEIXZ 00446550 f i Train.obj
 0001:00045580       ?end@?$vector@HV?$allocator@H@std@@@std@@QAE?AV?$_Vector_iterator@V?$_Vector_val@U?$_Simple_types@H@std@@@std@@@2@XZ 00446580 f i Train.obj
 0001:000455d0       ?max_size@?$_Default_allocator_traits@V?$allocator@PAVCarriageCollection@@@std@@@std@@SAIABV?$allocator@PAVCarriageCollection@@@2@@Z 004465d0 f i Train.obj
 0001:000455e0       ?max_size@?$vector@PAVCarriageCollection@@V?$allocator@PAVCarriageCollection@@@std@@@std@@QBEIXZ 004465e0 f i Train.obj
 0001:00045630       ?pop_back@?$vector@PAVCarriageCollection@@V?$allocator@PAVCarriageCollection@@@std@@@std@@QAEXXZ 00446630 f i Train.obj
 0001:00045760       ?resize@?$vector@PAVPassengerCollection@@V?$allocator@PAVPassengerCollection@@@std@@@std@@QAEXIABQAVPassengerCollection@@@Z 00446760 f i Train.obj
 0001:00045790       ?select_on_container_copy_construction@?$_Default_allocator_traits@V?$allocator@PAVCarriageCollection@@@std@@@std@@SA?AV?$allocator@PAVCarriageCollection@@@2@ABV32@@Z 00446790 f i Train.obj
 0001:000457a0       ?size@?$vector@PAVCarriageCollection@@V?$allocator@PAVCarriageCollection@@@std@@@std@@QBEIXZ 004467a0 f i Train.obj
 0001:000457d0       ?virtInitialise@ZoomingDemo@@UAEHXZ 004467d0 f   ZoomingDemo.obj
 0001:00045820       ?virtSetupBackgroundBuffer@ZoomingDemo@@UAEXXZ 00446820 f   ZoomingDemo.obj
 0001:00045860       ?virtInitialiseObjects@ZoomingDemo@@UAEHXZ 00446860 f   ZoomingDemo.obj
 0001:00045a20       ?virtDrawStringsUnderneath@ZoomingDemo@@UAEXXZ 00446a20 f   ZoomingDemo.obj
 0001:00045ad0       ?virtDrawStringsOnTop@ZoomingDemo@@UAEXXZ 00446ad0 f   ZoomingDemo.obj
 0001:00045b50       ?virtMouseDown@ZoomingDemo@@UAEXHHH@Z 00446b50 f   ZoomingDemo.obj
 0001:00045ba0       ?virtKeyDown@ZoomingDemo@@UAEXH@Z 00446ba0 f   ZoomingDemo.obj
 0001:00045ca0       ?virtMouseWheel@ZoomingDemo@@UAEXHHHH@Z 00446ca0 f   ZoomingDemo.obj
 0001:00045eb0       ??0SimpleFlashingDragableImageObject@@QAE@HHPAVBaseEngine@@V?$basic_string@DU?$char_traits@D@std@@V?$allocator@D@2@@std@@1_N2@Z 00446eb0 f i ZoomingDemo.obj
 0001:000460b0       ??1SimpleFlashingDragableImageObject@@UAE@XZ 004470b0 f i ZoomingDemo.obj
 0001:000460f0       ??_GSimpleFlashingDragableImageObject@@UAEPAXI@Z 004470f0 f i ZoomingDemo.obj
 0001:000460f0       ??_ESimpleFlashingDragableImageObject@@UAEPAXI@Z 004470f0 f i ZoomingDemo.obj
 0001:00046130       ?changeOffset@FilterPointsTranslation@@QAEXHH@Z 00447130 f i ZoomingDemo.obj
 0001:00046170       ?compress@FilterPointsScaling@@QAEXXZ 00447170 f i ZoomingDemo.obj
 0001:000461a0       ?compressX@FilterPointsScaling@@QAEXXZ 004471a0 f i ZoomingDemo.obj
 0001:000461f0       ?compressY@FilterPointsScaling@@QAEXXZ 004471f0 f i ZoomingDemo.obj
 0001:00046240       ?setOffset@FilterPointsTranslation@@QAEXHH@Z 00447240 f i ZoomingDemo.obj
 0001:00046270       ?stretch@FilterPointsScaling@@QAEXXZ 00447270 f i ZoomingDemo.obj
 0001:000462a0       ?stretchX@FilterPointsScaling@@QAEXXZ 004472a0 f i ZoomingDemo.obj
 0001:000462f0       ?stretchY@FilterPointsScaling@@QAEXXZ 004472f0 f i ZoomingDemo.obj
 0001:00046340       ?virtDoUpdate@SimpleFlashingDragableImageObject@@UAEXH@Z 00447340 f i ZoomingDemo.obj
 0001:000463a0       ?virtDraw@SimpleFlashingDragableImageObject@@UAEXXZ 004473a0 f i ZoomingDemo.obj
 0001:00046490       ?virtMouseDown@SimpleFlashingDragableImageObject@@UAEXHHH@Z 00447490 f i ZoomingDemo.obj
 0001:00046500       ?virtMouseMoved@SimpleFlashingDragableImageObject@@UAEXHH@Z 00447500 f i ZoomingDemo.obj
 0001:00046560       ?virtMouseUp@SimpleFlashingDragableImageObject@@UAEXHHH@Z 00447560 f i ZoomingDemo.obj
 0001:00046580       ??0MazeDemoMain@@QAE@XZ    00447580 f   MazeDemoMain.obj
 0001:00046600       ??1MazeDemoMain@@UAE@XZ    00447600 f   MazeDemoMain.obj
 0001:00046640       ?virtSetupBackgroundBuffer@MazeDemoMain@@UAEXXZ 00447640 f   MazeDemoMain.obj
 0001:00046830       ?virtInitialiseObjects@MazeDemoMain@@UAEHXZ 00447830 f   MazeDemoMain.obj
 0001:00046a30       ?virtDrawStringsUnderneath@MazeDemoMain@@UAEXXZ 00447a30 f   MazeDemoMain.obj
 0001:00046ac0       ?virtMouseDown@MazeDemoMain@@UAEXHHH@Z 00447ac0 f   MazeDemoMain.obj
 0001:00046ad0       ?virtKeyDown@MazeDemoMain@@UAEXH@Z 00447ad0 f   MazeDemoMain.obj
 0001:00046d20       ??0MazeDemoTileManager@@QAE@XZ 00447d20 f i MazeDemoMain.obj
 0001:00046d50       ??0TileManager@@QAE@HH@Z   00447d50 f i MazeDemoMain.obj
 0001:00046dd0       ??1MazeDemoTileManager@@UAE@XZ 00447dd0 f i MazeDemoMain.obj
 0001:00046e00       ??_GMazeDemoMain@@UAEPAXI@Z 00447e00 f i MazeDemoMain.obj
 0001:00046e00       ??_EMazeDemoMain@@UAEPAXI@Z 00447e00 f i MazeDemoMain.obj
 0001:00046e40       ??_GMazeDemoTileManager@@UAEPAXI@Z 00447e40 f i MazeDemoMain.obj
 0001:00046e40       ??_EMazeDemoTileManager@@UAEPAXI@Z 00447e40 f i MazeDemoMain.obj
 0001:00046e80       ??0MazeDemoObject@@QAE@PAVMazeDemoMain@@HH@Z 00447e80 f   MazeDemoObject.obj
 0001:00046f60       ??1MazeDemoObject@@UAE@XZ  00447f60 f   MazeDemoObject.obj
 0001:00046f80       ?virtDraw@MazeDemoObject@@UAEXXZ 00447f80 f   MazeDemoObject.obj
 0001:00047030       ?virtDoUpdate@MazeDemoObject@@UAEXH@Z 00448030 f   MazeDemoObject.obj
 0001:000476d0       ??_GMazeDemoObject@@UAEPAXI@Z 004486d0 f i MazeDemoObject.obj
 0001:000476d0       ??_EMazeDemoObject@@UAEPAXI@Z 004486d0 f i MazeDemoObject.obj
 0001:00047710       ?GetTileManager@MazeDemoMain@@QAEAAVMazeDemoTileManager@@XZ 00448710 f i MazeDemoObject.obj
 0001:00047730       ?getXDiffForDirection@MazeDemoObject@@QAEHH@Z 00448730 f i MazeDemoObject.obj
 0001:000477a0       ?getYDiffForDirection@MazeDemoObject@@QAEHH@Z 004487a0 f i MazeDemoObject.obj
 0001:00047810       ?virtDrawTileAt@MazeDemoTileManager@@UBEXPAVBaseEngine@@PAVDrawingSurface@@HHHH@Z 00448810 f   MazeDemoTileManager.obj
 0001:000479f5       _SDL_CreateRGBSurface      004489f5 f   SDL2:SDL2.dll
 0001:000479fb       _SDL_FreeSurface           004489fb f   SDL2:SDL2.dll
 0001:00047a01       _SDL_UpperBlit             00448a01 f   SDL2:SDL2.dll
 0001:00047a07       _SDL_LockSurface           00448a07 f   SDL2:SDL2.dll
 0001:00047a0d       _SDL_UnlockSurface         00448a0d f   SDL2:SDL2.dll
 0001:00047a13       _SDL_FillRect              00448a13 f   SDL2:SDL2.dll
 0001:00047a19       _SDL_GetError              00448a19 f   SDL2:SDL2.dll
 0001:00047a1f       _SDL_CreateWindow          00448a1f f   SDL2:SDL2.dll
 0001:00047a25       _SDL_PollEvent             00448a25 f   SDL2:SDL2.dll
 0001:00047a2b       _SDL_WaitEvent             00448a2b f   SDL2:SDL2.dll
 0001:00047a31       _SDL_CreateRenderer        00448a31 f   SDL2:SDL2.dll
 0001:00047a37       _SDL_CreateTexture         00448a37 f   SDL2:SDL2.dll
 0001:00047a3d       _SDL_UpdateTexture         00448a3d f   SDL2:SDL2.dll
 0001:00047a43       _SDL_RenderCopy            00448a43 f   SDL2:SDL2.dll
 0001:00047a49       _SDL_RenderPresent         00448a49 f   SDL2:SDL2.dll
 0001:00047a4f       _SDL_GetTicks              00448a4f f   SDL2:SDL2.dll
 0001:00047a55       _SDL_Init                  00448a55 f   SDL2:SDL2.dll
 0001:00047a5b       _SDL_Quit                  00448a5b f   SDL2:SDL2.dll
 0001:00047a61       _SDL_SetClipRect           00448a61 f   SDL2:SDL2.dll
 0001:00047a67       _SDL_UpperBlitScaled       00448a67 f   SDL2:SDL2.dll
 0001:00047a6d       _IMG_Load                  00448a6d f   SDL2_image:SDL2_image.dll
 0001:00047a73       _TTF_RenderText_Solid      00448a73 f   SDL2_ttf:SDL2_ttf.dll
 0001:00047a79       _TTF_Init                  00448a79 f   SDL2_ttf:SDL2_ttf.dll
 0001:00047a7f       _TTF_Quit                  00448a7f f   SDL2_ttf:SDL2_ttf.dll
 0001:00047a85       _TTF_OpenFont              00448a85 f   SDL2_ttf:SDL2_ttf.dll
 0001:00047a8b       _TTF_CloseFont             00448a8b f   SDL2_ttf:SDL2_ttf.dll
 0001:00047a91       ??0_Lockit@std@@QAE@H@Z    00448a91 f   msvcprtd:MSVCP140D.dll
 0001:00047a97       ??1_Lockit@std@@QAE@XZ     00448a97 f   msvcprtd:MSVCP140D.dll
 0001:00047a9d       ?_Xlength_error@std@@YAXPBD@Z 00448a9d f   msvcprtd:MSVCP140D.dll
 0001:00047aa3       ?uncaught_exception@std@@YA_NXZ 00448aa3 f   msvcprtd:MSVCP140D.dll
 0001:00047aa9       ?good@ios_base@std@@QBE_NXZ 00448aa9 f   msvcprtd:MSVCP140D.dll
 0001:00047aaf       ?flags@ios_base@std@@QBEHXZ 00448aaf f   msvcprtd:MSVCP140D.dll
 0001:00047ab5       ?width@ios_base@std@@QBE_JXZ 00448ab5 f   msvcprtd:MSVCP140D.dll
 0001:00047abb       ?width@ios_base@std@@QAE_J_J@Z 00448abb f   msvcprtd:MSVCP140D.dll
 0001:00047ac1       ?sputc@?$basic_streambuf@DU?$char_traits@D@std@@@std@@QAEHD@Z 00448ac1 f   msvcprtd:MSVCP140D.dll
 0001:00047ac7       ?sputn@?$basic_streambuf@DU?$char_traits@D@std@@@std@@QAE_JPBD_J@Z 00448ac7 f   msvcprtd:MSVCP140D.dll
 0001:00047acd       ?setstate@?$basic_ios@DU?$char_traits@D@std@@@std@@QAEXH_N@Z 00448acd f   msvcprtd:MSVCP140D.dll
 0001:00047ad3       ?tie@?$basic_ios@DU?$char_traits@D@std@@@std@@QBEPAV?$basic_ostream@DU?$char_traits@D@std@@@2@XZ 00448ad3 f   msvcprtd:MSVCP140D.dll
 0001:00047ad9       ?rdbuf@?$basic_ios@DU?$char_traits@D@std@@@std@@QBEPAV?$basic_streambuf@DU?$char_traits@D@std@@@2@XZ 00448ad9 f   msvcprtd:MSVCP140D.dll
 0001:00047adf       ?fill@?$basic_ios@DU?$char_traits@D@std@@@std@@QBEDXZ 00448adf f   msvcprtd:MSVCP140D.dll
 0001:00047ae5       ?widen@?$basic_ios@DU?$char_traits@D@std@@@std@@QBEDD@Z 00448ae5 f   msvcprtd:MSVCP140D.dll
 0001:00047aeb       ?_Osfx@?$basic_ostream@DU?$char_traits@D@std@@@std@@QAEXXZ 00448aeb f   msvcprtd:MSVCP140D.dll
 0001:00047af1       ??6?$basic_ostream@DU?$char_traits@D@std@@@std@@QAEAAV01@P6AAAV01@AAV01@@Z@Z 00448af1 f   msvcprtd:MSVCP140D.dll
 0001:00047af7       ?put@?$basic_ostream@DU?$char_traits@D@std@@@std@@QAEAAV12@D@Z 00448af7 f   msvcprtd:MSVCP140D.dll
 0001:00047afd       ?flush@?$basic_ostream@DU?$char_traits@D@std@@@std@@QAEAAV12@XZ 00448afd f   msvcprtd:MSVCP140D.dll
 0001:00047b03       ?_Xinvalid_argument@std@@YAXPBD@Z 00448b03 f   msvcprtd:MSVCP140D.dll
 0001:00047b09       ?_Xout_of_range@std@@YAXPBD@Z 00448b09 f   msvcprtd:MSVCP140D.dll
 0001:00047b10       ??0_Fac_node@std@@QAE@PAU01@PAV_Facet_base@1@@Z 00448b10 f i msvcprtd:locale0_implib.obj
 0001:00047b40       ??1_Fac_node@std@@QAE@XZ   00448b40 f i msvcprtd:locale0_implib.obj
 0001:00047bc0       ??1_Fac_tidy_reg_t@std@@QAE@XZ 00448bc0 f i msvcprtd:locale0_implib.obj
 0001:00047c20       ??2_Fac_node@std@@SAPAXI@Z 00448c20 f i msvcprtd:locale0_implib.obj
 0001:00047c80       ??3_Fac_node@std@@SAXPAX@Z 00448c80 f i msvcprtd:locale0_implib.obj
 0001:00047ca0       ??_G_Fac_node@std@@QAEPAXI@Z 00448ca0 f i msvcprtd:locale0_implib.obj
 0001:00047d00       ?_Facet_Register@std@@YAXPAV_Facet_base@1@@Z 00448d00 f   msvcprtd:locale0_implib.obj
 0001:00047db0       ?__empty_global_delete@@YAXPAXIW4align_val_t@std@@@Z 00448db0 f i msvcprtd:locale0_implib.obj
 0001:00047dc0       ?__empty_global_delete@@YAXPAXW4align_val_t@std@@@Z 00448dc0 f i msvcprtd:locale0_implib.obj
 0001:00047dc5       ??Bid@locale@std@@QAEIXZ   00448dc5 f   msvcprtd:MSVCP140D.dll
 0001:00047dcb       ?_Getgloballocale@locale@std@@CAPAV_Locimp@12@XZ 00448dcb f   msvcprtd:MSVCP140D.dll
 0001:00047dd1       ?always_noconv@codecvt_base@std@@QBE_NXZ 00448dd1 f   msvcprtd:MSVCP140D.dll
 0001:00047dd7       ?in@?$codecvt@DDU_Mbstatet@@@std@@QBEHAAU_Mbstatet@@PBD1AAPBDPAD3AAPAD@Z 00448dd7 f   msvcprtd:MSVCP140D.dll
 0001:00047ddd       ?out@?$codecvt@DDU_Mbstatet@@@std@@QBEHAAU_Mbstatet@@PBD1AAPBDPAD3AAPAD@Z 00448ddd f   msvcprtd:MSVCP140D.dll
 0001:00047de3       ?unshift@?$codecvt@DDU_Mbstatet@@@std@@QBEHAAU_Mbstatet@@PAD1AAPAD@Z 00448de3 f   msvcprtd:MSVCP140D.dll
 0001:00047de9       ?_Getcat@?$codecvt@DDU_Mbstatet@@@std@@SAIPAPBVfacet@locale@2@PBV42@@Z 00448de9 f   msvcprtd:MSVCP140D.dll
 0001:00047def       ??Bios_base@std@@QBE_NXZ   00448def f   msvcprtd:MSVCP140D.dll
 0001:00047df5       ??0?$basic_streambuf@DU?$char_traits@D@std@@@std@@IAE@XZ 00448df5 f   msvcprtd:MSVCP140D.dll
 0001:00047dfb       ??1?$basic_streambuf@DU?$char_traits@D@std@@@std@@UAE@XZ 00448dfb f   msvcprtd:MSVCP140D.dll
 0001:00047e01       ?getloc@?$basic_streambuf@DU?$char_traits@D@std@@@std@@QBE?AVlocale@2@XZ 00448e01 f   msvcprtd:MSVCP140D.dll
 0001:00047e07       ?sbumpc@?$basic_streambuf@DU?$char_traits@D@std@@@std@@QAEHXZ 00448e07 f   msvcprtd:MSVCP140D.dll
 0001:00047e0d       ?sgetc@?$basic_streambuf@DU?$char_traits@D@std@@@std@@QAEHXZ 00448e0d f   msvcprtd:MSVCP140D.dll
 0001:00047e13       ?snextc@?$basic_streambuf@DU?$char_traits@D@std@@@std@@QAEHXZ 00448e13 f   msvcprtd:MSVCP140D.dll
 0001:00047e19       ?eback@?$basic_streambuf@DU?$char_traits@D@std@@@std@@IBEPADXZ 00448e19 f   msvcprtd:MSVCP140D.dll
 0001:00047e1f       ?gptr@?$basic_streambuf@DU?$char_traits@D@std@@@std@@IBEPADXZ 00448e1f f   msvcprtd:MSVCP140D.dll
 0001:00047e25       ?pptr@?$basic_streambuf@DU?$char_traits@D@std@@@std@@IBEPADXZ 00448e25 f   msvcprtd:MSVCP140D.dll
 0001:00047e2b       ?egptr@?$basic_streambuf@DU?$char_traits@D@std@@@std@@IBEPADXZ 00448e2b f   msvcprtd:MSVCP140D.dll
 0001:00047e31       ?gbump@?$basic_streambuf@DU?$char_traits@D@std@@@std@@IAEXH@Z 00448e31 f   msvcprtd:MSVCP140D.dll
 0001:00047e37       ?setg@?$basic_streambuf@DU?$char_traits@D@std@@@std@@IAEXPAD00@Z 00448e37 f   msvcprtd:MSVCP140D.dll
 0001:00047e3d       ?epptr@?$basic_streambuf@DU?$char_traits@D@std@@@std@@IBEPADXZ 00448e3d f   msvcprtd:MSVCP140D.dll
 0001:00047e43       ?_Gndec@?$basic_streambuf@DU?$char_traits@D@std@@@std@@IAEPADXZ 00448e43 f   msvcprtd:MSVCP140D.dll
 0001:00047e49       ?_Gninc@?$basic_streambuf@DU?$char_traits@D@std@@@std@@IAEPADXZ 00448e49 f   msvcprtd:MSVCP140D.dll
 0001:00047e4f       ?_Gnavail@?$basic_streambuf@DU?$char_traits@D@std@@@std@@IBE_JXZ 00448e4f f   msvcprtd:MSVCP140D.dll
 0001:00047e55       ?pbump@?$basic_streambuf@DU?$char_traits@D@std@@@std@@IAEXH@Z 00448e55 f   msvcprtd:MSVCP140D.dll
 0001:00047e5b       ?_Pninc@?$basic_streambuf@DU?$char_traits@D@std@@@std@@IAEPADXZ 00448e5b f   msvcprtd:MSVCP140D.dll
 0001:00047e61       ?_Pnavail@?$basic_streambuf@DU?$char_traits@D@std@@@std@@IBE_JXZ 00448e61 f   msvcprtd:MSVCP140D.dll
 0001:00047e67       ?_Init@?$basic_streambuf@DU?$char_traits@D@std@@@std@@IAEXXZ 00448e67 f   msvcprtd:MSVCP140D.dll
 0001:00047e6d       ?_Init@?$basic_streambuf@DU?$char_traits@D@std@@@std@@IAEXPAPAD0PAH001@Z 00448e6d f   msvcprtd:MSVCP140D.dll
 0001:00047e73       ?xsgetn@?$basic_streambuf@DU?$char_traits@D@std@@@std@@MAE_JPAD_J@Z 00448e73 f   msvcprtd:MSVCP140D.dll
 0001:00047e79       ?xsputn@?$basic_streambuf@DU?$char_traits@D@std@@@std@@MAE_JPBD_J@Z 00448e79 f   msvcprtd:MSVCP140D.dll
 0001:00047e7f       ??1?$basic_ios@DU?$char_traits@D@std@@@std@@UAE@XZ 00448e7f f   msvcprtd:MSVCP140D.dll
 0001:00047e85       ??0?$basic_ios@DU?$char_traits@D@std@@@std@@IAE@XZ 00448e85 f   msvcprtd:MSVCP140D.dll
 0001:00047e8b       ??0?$basic_ostream@DU?$char_traits@D@std@@@std@@QAE@PAV?$basic_streambuf@DU?$char_traits@D@std@@@1@_N@Z 00448e8b f   msvcprtd:MSVCP140D.dll
 0001:00047e91       ??1?$basic_ostream@DU?$char_traits@D@std@@@std@@UAE@XZ 00448e91 f   msvcprtd:MSVCP140D.dll
 0001:00047e97       ??0?$basic_istream@DU?$char_traits@D@std@@@std@@QAE@PAV?$basic_streambuf@DU?$char_traits@D@std@@@1@_N@Z 00448e97 f   msvcprtd:MSVCP140D.dll
 0001:00047e9d       ??1?$basic_istream@DU?$char_traits@D@std@@@std@@UAE@XZ 00448e9d f   msvcprtd:MSVCP140D.dll
 0001:00047ea3       ?_Ipfx@?$basic_istream@DU?$char_traits@D@std@@@std@@QAE_N_N@Z 00448ea3 f   msvcprtd:MSVCP140D.dll
 0001:00047ea9       ?_Fiopen@std@@YAPAU_iobuf@@PBDHH@Z 00448ea9 f   msvcprtd:MSVCP140D.dll
 0001:00047eaf       ?showmanyc@?$basic_streambuf@DU?$char_traits@D@std@@@std@@MAE_JXZ 00448eaf f   msvcprtd:MSVCP140D.dll
 0001:00047eb5       ??6?$basic_ostream@DU?$char_traits@D@std@@@std@@QAEAAV01@H@Z 00448eb5 f   msvcprtd:MSVCP140D.dll
 0001:00047ebb       ?_Xbad_alloc@std@@YAXXZ    00448ebb f   msvcprtd:MSVCP140D.dll
 0001:000482a0       ?configure_argv@__scrt_narrow_argv_policy@@SAHXZ 004492a0 f i MSVCRTD:exe_main.obj
 0001:000482c0       ?initialize_environment@__scrt_narrow_environment_policy@@SAHXZ 004492c0 f i MSVCRTD:exe_main.obj
 0001:00048320       ?set_app_type@__scrt_main_policy@@SAXXZ 00449320 f i MSVCRTD:exe_main.obj
 0001:00048340       ?set_commode@__scrt_file_policy@@SAXXZ 00449340 f i MSVCRTD:exe_main.obj
 0001:00048360       ?set_fmode@__scrt_file_policy@@SAXXZ 00449360 f i MSVCRTD:exe_main.obj
 0001:00048380       _mainCRTStartup            00449380 f   MSVCRTD:exe_main.obj
 0001:00048390       ??2@YAPAXI@Z               00449390 f   MSVCRTD:new_scalar.obj
 0001:000483f0       ??3@YAXPAXI@Z              004493f0 f   MSVCRTD:delete_scalar_size.obj
 0001:00048410       ??_V@YAXPAX@Z              00449410 f   MSVCRTD:delete_array.obj
 0001:00048430       @__security_check_cookie@4 00449430 f   MSVCRTD:secchk.obj
 0001:00048450       ??1type_info@@UAE@XZ       00449450 f   MSVCRTD:std_type_info_static.obj
 0001:00048470       ??_Etype_info@@UAEPAXI@Z   00449470 f i MSVCRTD:std_type_info_static.obj
 0001:00048470       ??_Gtype_info@@UAEPAXI@Z   00449470 f i MSVCRTD:std_type_info_static.obj
 0001:000484b0       ??_U@YAPAXI@Z              004494b0 f   MSVCRTD:new_array.obj
 0001:000484d0       __ftoui3                   004494d0 f   MSVCRTD:ftol3.obj
 0001:00048530       __ftoul3                   00449530 f   MSVCRTD:ftol3.obj
 0001:000485c0       __ftol3                    004495c0 f   MSVCRTD:ftol3.obj
 0001:00048650       __dtoui3                   00449650 f   MSVCRTD:ftol3.obj
 0001:000486f0       __dtoul3                   004496f0 f   MSVCRTD:ftol3.obj
 0001:000487c0       __dtol3                    004497c0 f   MSVCRTD:ftol3.obj
 0001:000488a0       __ultod3                   004498a0 f   MSVCRTD:ftol3.obj
 0001:00048910       __ltod3                    00449910 f   MSVCRTD:ftol3.obj
 0001:00048ab0       _NtCurrentTeb              00449ab0 f i MSVCRTD:utility.obj
 0001:00048ac0       ___scrt_acquire_startup_lock 00449ac0 f   MSVCRTD:utility.obj
 0001:00048b20       ___scrt_dllmain_after_initialize_c 00449b20 f   MSVCRTD:utility.obj
 0001:00048b60       ___scrt_dllmain_before_initialize_c 00449b60 f   MSVCRTD:utility.obj
 0001:00048b90       ___scrt_dllmain_crt_thread_attach 00449b90 f   MSVCRTD:utility.obj
 0001:00048bd0       ___scrt_dllmain_crt_thread_detach 00449bd0 f   MSVCRTD:utility.obj
 0001:00048bf0       ___scrt_dllmain_exception_filter 00449bf0 f   MSVCRTD:utility.obj
 0001:00048c50       ___scrt_dllmain_uninitialize_c 00449c50 f   MSVCRTD:utility.obj
 0001:00048c90       ___scrt_dllmain_uninitialize_critical 00449c90 f   MSVCRTD:utility.obj
 0001:00048cb0       ___scrt_initialize_crt     00449cb0 f   MSVCRTD:utility.obj
 0001:00048d10       ___scrt_initialize_onexit_tables 00449d10 f   MSVCRTD:utility.obj
 0001:00048e20       ___scrt_is_nonwritable_in_current_image 00449e20 f   MSVCRTD:utility.obj
 0001:00048fa0       ___scrt_release_startup_lock 00449fa0 f   MSVCRTD:utility.obj
 0001:00048fd0       ___scrt_uninitialize_crt   00449fd0 f   MSVCRTD:utility.obj
 0001:00049020       __onexit                   0044a020 f   MSVCRTD:utility.obj
 0001:000490a0       _at_quick_exit             0044a0a0 f   MSVCRTD:utility.obj
 0001:000490f0       _atexit                    0044a0f0 f   MSVCRTD:utility.obj
 0001:00049130       @_guard_check_icall_nop@4  0044a130 f i MSVCRTD:guard_support.obj
 0001:00049140       _ReadNoFence               0044a140 f i MSVCRTD:guard_support.obj
 0001:00049160       _ReadPointerNoFence        0044a160 f i MSVCRTD:guard_support.obj
 0001:00049180       ___castguard_check_failure_debugbreak 0044a180 f i MSVCRTD:guard_support.obj
 0001:000491a0       ___castguard_check_failure_fastfail 0044a1a0 f i MSVCRTD:guard_support.obj
 0001:000491d0       ___castguard_check_failure_nop 0044a1d0 f i MSVCRTD:guard_support.obj
 0001:000491e0       ___castguard_check_failure_os_handled 0044a1e0 f i MSVCRTD:guard_support.obj
 0001:00049280       ___castguard_slow_path_check_debugbreak 0044a280 f i MSVCRTD:guard_support.obj
 0001:000492c0       ___castguard_slow_path_check_fastfail 0044a2c0 f i MSVCRTD:guard_support.obj
 0001:00049310       ___castguard_slow_path_check_nop 0044a310 f i MSVCRTD:guard_support.obj
 0001:00049320       ___castguard_slow_path_check_os_handled 0044a320 f i MSVCRTD:guard_support.obj
 0001:000493e0       __guard_icall_checks_enforced 0044a3e0 f i MSVCRTD:guard_support.obj
 0001:000494b0       ___security_init_cookie    0044a4b0 f   MSVCRTD:gs_support.obj
 0001:00049550       __matherr                  0044a550 f   MSVCRTD:matherr.obj
 0001:00049560       __get_startup_argv_mode    0044a560 f   MSVCRTD:argv_mode.obj
 0001:00049570       __get_startup_commit_mode  0044a570 f   MSVCRTD:commit_mode.obj
 0001:00049580       __get_startup_file_mode    0044a580 f   MSVCRTD:file_mode.obj
 0001:00049590       __get_startup_new_mode     0044a590 f   MSVCRTD:new_mode.obj
 0001:000495a0       __get_startup_thread_locale_mode 0044a5a0 f   MSVCRTD:thread_locale.obj
 0001:000495b0       ?__scrt_initialize_type_info@@YAXXZ 0044a5b0 f   MSVCRTD:tncleanup.obj
 0001:000495d0       ?__scrt_uninitialize_type_info@@YAXXZ 0044a5d0 f   MSVCRTD:tncleanup.obj
 0001:000495f0       __should_initialize_environment 0044a5f0 f   MSVCRTD:env_mode.obj
 0001:00049600       __initialize_default_precision 0044a600 f   MSVCRTD:default_precision.obj
 0001:00049630       __initialize_invalid_parameter_handler 0044a630 f   MSVCRTD:invalid_parameter_handler.obj
 0001:00049640       __initialize_denormal_control 0044a640 f   MSVCRTD:denormal_control.obj
 0001:00049650       ___local_stdio_scanf_options 0044a650 f i MSVCRTD:default_local_stdio_options.obj
 0001:00049660       ___scrt_initialize_default_local_stdio_options 0044a660 f   MSVCRTD:default_local_stdio_options.obj
 0001:000496b0       ___scrt_is_user_matherr_present 0044a6b0 f   MSVCRTD:matherr_detection.obj
 0001:000496e0       ___scrt_get_dyn_tls_init_callback 0044a6e0 f   MSVCRTD:dyn_tls_init.obj
 0001:000496f0       ___scrt_get_dyn_tls_dtor_callback 0044a6f0 f   MSVCRTD:dyn_tls_dtor.obj
 0001:00049700       ___scrt_fastfail           0044a700 f   MSVCRTD:utility_desktop.obj
 0001:00049890       ___scrt_get_show_window_mode 0044a890 f   MSVCRTD:utility_desktop.obj
 0001:000498e0       ___scrt_initialize_mta     0044a8e0 f   MSVCRTD:utility_desktop.obj
 0001:000498f0       ___scrt_initialize_winrt   0044a8f0 f   MSVCRTD:utility_desktop.obj
 0001:00049900       ___scrt_is_managed_app     0044a900 f   MSVCRTD:utility_desktop.obj
 0001:000499b0       ___scrt_set_unhandled_exception_filter 0044a9b0 f   MSVCRTD:utility_desktop.obj
 0001:000499d0       ___scrt_exe_initialize_mta 0044a9d0 f   MSVCRTD:utility_desktop.obj
 0001:000499d0       ___scrt_stub_for_initialize_mta 0044a9d0 f   MSVCRTD:utility_desktop.obj
 0001:000499e0       ___scrt_unhandled_exception_filter@4 0044a9e0 f   MSVCRTD:utility_desktop.obj
 0001:00049a80       __crt_debugger_hook        0044aa80 f   MSVCRTD:utility_desktop.obj
 0001:00049aa0       __RTC_Initialize           0044aaa0 f   MSVCRTD:initsect.obj
 0001:00049ae0       __RTC_Terminate            0044aae0 f   MSVCRTD:initsect.obj
 0001:00049b20       __except_handler4          0044ab20 f   MSVCRTD:chandler4gs.obj
 0001:00049b70       ??0bad_alloc@std@@QAE@XZ   0044ab70 f i MSVCRTD:throw_bad_alloc.obj
 0001:00049ba0       ?__scrt_throw_std_bad_alloc@@YAXXZ 0044aba0 f   MSVCRTD:throw_bad_alloc.obj
 0001:00049bd0       ?__scrt_throw_std_bad_array_new_length@@YAXXZ 0044abd0 f   MSVCRTD:throw_bad_alloc.obj
 0001:00049c00       ??3@YAXPAX@Z               0044ac00 f   MSVCRTD:delete_scalar.obj
 0001:00049c20       ___raise_securityfailure   0044ac20 f   MSVCRTD:gs_report.obj
 0001:00049c60       ___report_gsfailure        0044ac60 f   MSVCRTD:gs_report.obj
 0001:00049db0       ___report_rangecheckfailure 0044adb0 f   MSVCRTD:gs_report.obj
 0001:00049dc0       ___report_securityfailure  0044adc0 f   MSVCRTD:gs_report.obj
 0001:00049ed0       ___report_securityfailureEx 0044aed0 f   MSVCRTD:gs_report.obj
 0001:0004a040       ___isa_available_init      0044b040 f   MSVCRTD:cpu_disp.obj
 0001:0004a440       ___scrt_is_ucrt_dll_in_use 0044b440 f   MSVCRTD:ucrt_detection.obj
 0001:0004a46d       __purecall                 0044b46d f   vcruntimed:VCRUNTIME140D.dll
 0001:0004a473       _memcmp                    0044b473 f   vcruntimed:VCRUNTIME140D.dll
 0001:0004a479       _memcpy                    0044b479 f   vcruntimed:VCRUNTIME140D.dll
 0001:0004a47f       _memmove                   0044b47f f   vcruntimed:VCRUNTIME140D.dll
 0001:0004a485       ___std_exception_copy      0044b485 f   vcruntimed:VCRUNTIME140D.dll
 0001:0004a48b       ___std_exception_destroy   0044b48b f   vcruntimed:VCRUNTIME140D.dll
 0001:0004a491       __CxxThrowException@8      0044b491 f   vcruntimed:VCRUNTIME140D.dll
 0001:0004a497       ___CxxFrameHandler3        0044b497 f   vcruntimed:VCRUNTIME140D.dll
 0001:0004a49d       _memset                    0044b49d f   vcruntimed:VCRUNTIME140D.dll
 0001:0004a4a3       ___std_type_info_destroy_list 0044b4a3 f   vcruntimed:VCRUNTIME140D.dll
 0001:0004a4a9       ___current_exception       0044b4a9 f   vcruntimed:VCRUNTIME140D.dll
 0001:0004a4af       ___current_exception_context 0044b4af f   vcruntimed:VCRUNTIME140D.dll
 0001:0004a4b5       __except_handler4_common   0044b4b5 f   vcruntimed:VCRUNTIME140D.dll
 0001:0004a4bb       __invalid_parameter        0044b4bb f   ucrtd:ucrtbased.dll
 0001:0004a4c1       __CrtDbgReport             0044b4c1 f   ucrtd:ucrtbased.dll
 0001:0004a4c7       _atan                      0044b4c7 f   ucrtd:ucrtbased.dll
 0001:0004a4cd       _cos                       0044b4cd f   ucrtd:ucrtbased.dll
 0001:0004a4d3       _sin                       0044b4d3 f   ucrtd:ucrtbased.dll
 0001:0004a4d9       _sqrt                      0044b4d9 f   ucrtd:ucrtbased.dll
 0001:0004a4df       ___acrt_iob_func           0044b4df f   ucrtd:ucrtbased.dll
 0001:0004a4e5       ___stdio_common_vfprintf   0044b4e5 f   ucrtd:ucrtbased.dll
 0001:0004a4eb       _strlen                    0044b4eb f   ucrtd:ucrtbased.dll
 0001:0004a4f1       __errno                    0044b4f1 f   ucrtd:ucrtbased.dll
 0001:0004a4f7       _strtol                    0044b4f7 f   ucrtd:ucrtbased.dll
 0001:0004a4fd       __get_stream_buffer_pointers 0044b4fd f   ucrtd:ucrtbased.dll
 0001:0004a503       _fclose                    0044b503 f   ucrtd:ucrtbased.dll
 0001:0004a509       _fflush                    0044b509 f   ucrtd:ucrtbased.dll
 0001:0004a50f       _fgetc                     0044b50f f   ucrtd:ucrtbased.dll
 0001:0004a515       _fgetpos                   0044b515 f   ucrtd:ucrtbased.dll
 0001:0004a51b       _fputc                     0044b51b f   ucrtd:ucrtbased.dll
 0001:0004a521       _fread                     0044b521 f   ucrtd:ucrtbased.dll
 0001:0004a527       _fsetpos                   0044b527 f   ucrtd:ucrtbased.dll
 0001:0004a52d       __fseeki64                 0044b52d f   ucrtd:ucrtbased.dll
 0001:0004a533       _fwrite                    0044b533 f   ucrtd:ucrtbased.dll
 0001:0004a539       _setvbuf                   0044b539 f   ucrtd:ucrtbased.dll
 0001:0004a53f       _ungetc                    0044b53f f   ucrtd:ucrtbased.dll
 0001:0004a545       __lock_file                0044b545 f   ucrtd:ucrtbased.dll
 0001:0004a54b       __unlock_file              0044b54b f   ucrtd:ucrtbased.dll
 0001:0004a551       ___stdio_common_vsprintf   0044b551 f   ucrtd:ucrtbased.dll
 0001:0004a557       _rand                      0044b557 f   ucrtd:ucrtbased.dll
 0001:0004a55d       __CrtDumpMemoryLeaks       0044b55d f   ucrtd:ucrtbased.dll
 0001:0004a563       _ceil                      0044b563 f   ucrtd:ucrtbased.dll
 0001:0004a569       _srand                     0044b569 f   ucrtd:ucrtbased.dll
 0001:0004a56f       __time64                   0044b56f f   ucrtd:ucrtbased.dll
 0001:0004a575       _puts                      0044b575 f   ucrtd:ucrtbased.dll
 0001:0004a57b       _strcmp                    0044b57b f   ucrtd:ucrtbased.dll
 0001:0004a581       _strcpy                    0044b581 f   ucrtd:ucrtbased.dll
 0001:0004a587       __free_dbg                 0044b587 f   ucrtd:ucrtbased.dll
 0001:0004a58d       __malloc_dbg               0044b58d f   ucrtd:ucrtbased.dll
 0001:0004a593       __seh_filter_exe           0044b593 f   ucrtd:ucrtbased.dll
 0001:0004a599       __set_app_type             0044b599 f   ucrtd:ucrtbased.dll
 0001:0004a59f       ___setusermatherr          0044b59f f   ucrtd:ucrtbased.dll
 0001:0004a5a5       __configure_narrow_argv    0044b5a5 f   ucrtd:ucrtbased.dll
 0001:0004a5ab       __initialize_narrow_environment 0044b5ab f   ucrtd:ucrtbased.dll
 0001:0004a5b1       __get_initial_narrow_environment 0044b5b1 f   ucrtd:ucrtbased.dll
 0001:0004a5b7       __initterm                 0044b5b7 f   ucrtd:ucrtbased.dll
 0001:0004a5bd       __initterm_e               0044b5bd f   ucrtd:ucrtbased.dll
 0001:0004a5c3       _exit                      0044b5c3 f   ucrtd:ucrtbased.dll
 0001:0004a5c9       __exit                     0044b5c9 f   ucrtd:ucrtbased.dll
 0001:0004a5cf       __set_fmode                0044b5cf f   ucrtd:ucrtbased.dll
 0001:0004a5d5       ___p___argc                0044b5d5 f   ucrtd:ucrtbased.dll
 0001:0004a5db       ___p___argv                0044b5db f   ucrtd:ucrtbased.dll
 0001:0004a5e1       __cexit                    0044b5e1 f   ucrtd:ucrtbased.dll
 0001:0004a5e7       __c_exit                   0044b5e7 f   ucrtd:ucrtbased.dll
 0001:0004a5ed       __register_thread_local_exe_atexit_callback 0044b5ed f   ucrtd:ucrtbased.dll
 0001:0004a5f3       __configthreadlocale       0044b5f3 f   ucrtd:ucrtbased.dll
 0001:0004a5f9       __set_new_mode             0044b5f9 f   ucrtd:ucrtbased.dll
 0001:0004a5ff       ___p__commode              0044b5ff f   ucrtd:ucrtbased.dll
 0001:0004a605       __callnewh                 0044b605 f   ucrtd:ucrtbased.dll
 0001:0004a60b       _malloc                    0044b60b f   ucrtd:ucrtbased.dll
 0001:0004a611       __except1                  0044b611 f   ucrtd:ucrtbased.dll
 0001:0004a617       __seh_filter_dll           0044b617 f   ucrtd:ucrtbased.dll
 0001:0004a61d       __initialize_onexit_table  0044b61d f   ucrtd:ucrtbased.dll
 0001:0004a623       __register_onexit_function 0044b623 f   ucrtd:ucrtbased.dll
 0001:0004a629       __execute_onexit_table     0044b629 f   ucrtd:ucrtbased.dll
 0001:0004a62f       __crt_atexit               0044b62f f   ucrtd:ucrtbased.dll
 0001:0004a635       __crt_at_quick_exit        0044b635 f   ucrtd:ucrtbased.dll
 0001:0004a63b       __controlfp_s              0044b63b f   ucrtd:ucrtbased.dll
 0001:0004a641       _terminate                 0044b641 f   ucrtd:ucrtbased.dll
 0001:0004a790       _WinMain@16                0044b790 f   SDL2main:SDL_windows_main.obj
 0001:0004a7a0       _main                      0044b7a0 f   SDL2main:SDL_windows_main.obj
 0001:0004a8f0       _wmain                     0044b8f0 f   SDL2main:SDL_windows_main.obj
 0001:0004a8f5       _QueryPerformanceCounter@4 0044b8f5 f   kernel32:KERNEL32.dll
 0001:0004a8fb       _GetCurrentProcessId@0     0044b8fb f   kernel32:KERNEL32.dll
 0001:0004a901       _GetCurrentThreadId@0      0044b901 f   kernel32:KERNEL32.dll
 0001:0004a907       _GetSystemTimeAsFileTime@4 0044b907 f   kernel32:KERNEL32.dll
 0001:0004a90d       _InitializeSListHead@4     0044b90d f   kernel32:KERNEL32.dll
 0001:0004a913       _IsDebuggerPresent@0       0044b913 f   kernel32:KERNEL32.dll
 0001:0004a919       _UnhandledExceptionFilter@4 0044b919 f   kernel32:KERNEL32.dll
 0001:0004a91f       _SetUnhandledExceptionFilter@4 0044b91f f   kernel32:KERNEL32.dll
 0001:0004a925       _GetStartupInfoW@4         0044b925 f   kernel32:KERNEL32.dll
 0001:0004a92b       _IsProcessorFeaturePresent@4 0044b92b f   kernel32:KERNEL32.dll
 0001:0004a931       _GetModuleHandleW@4        0044b931 f   kernel32:KERNEL32.dll
 0001:0004a937       _GetCurrentProcess@0       0044b937 f   kernel32:KERNEL32.dll
 0001:0004a93d       _TerminateProcess@8        0044b93d f   kernel32:KERNEL32.dll
 0001:0004a943       _GetCommandLineW@0         0044b943 f   kernel32:KERNEL32.dll
 0001:0004a949       _VirtualAlloc@16           0044b949 f   kernel32:KERNEL32.dll
 0001:0004a94f       _VirtualFree@12            0044b94f f   kernel32:KERNEL32.dll
 0001:0004a955       _WideCharToMultiByte@32    0044b955 f   kernel32:KERNEL32.dll
 0001:0004a95b       _SDL_SetMainReady          0044b95b f   SDL2:SDL2.dll
 0001:0004a961       _SDL_ShowSimpleMessageBox  0044b961 f   SDL2:SDL2.dll
 0001:0004a970       ___scrt_stub_for_acrt_initialize 0044b970 f   MSVCRTD:ucrt_stubs.obj
 0001:0004a970       ___acrt_initialize         0044b970 f   MSVCRTD:ucrt_stubs.obj
 0001:0004a970       ___vcrt_initialize         0044b970 f   MSVCRTD:ucrt_stubs.obj
 0001:0004a980       ___vcrt_thread_attach      0044b980 f   MSVCRTD:ucrt_stubs.obj
 0001:0004a980       ___scrt_stub_for_acrt_thread_attach 0044b980 f   MSVCRTD:ucrt_stubs.obj
 0001:0004a980       ___acrt_thread_attach      0044b980 f   MSVCRTD:ucrt_stubs.obj
 0001:0004a990       ___vcrt_thread_detach      0044b990 f   MSVCRTD:ucrt_stubs.obj
 0001:0004a990       ___acrt_thread_detach      0044b990 f   MSVCRTD:ucrt_stubs.obj
 0001:0004a990       ___scrt_stub_for_acrt_thread_detach 0044b990 f   MSVCRTD:ucrt_stubs.obj
 0001:0004a9a0       ___vcrt_uninitialize       0044b9a0 f   MSVCRTD:ucrt_stubs.obj
 0001:0004a9a0       ___acrt_uninitialize       0044b9a0 f   MSVCRTD:ucrt_stubs.obj
 0001:0004a9a0       ___scrt_stub_for_acrt_uninitialize 0044b9a0 f   MSVCRTD:ucrt_stubs.obj
 0001:0004a9b0       ___acrt_uninitialize_critical 0044b9b0 f   MSVCRTD:ucrt_stubs.obj
 0001:0004a9b0       ___vcrt_uninitialize_critical 0044b9b0 f   MSVCRTD:ucrt_stubs.obj
 0001:0004a9b0       ___scrt_stub_for_acrt_uninitialize_critical 0044b9b0 f   MSVCRTD:ucrt_stubs.obj
 0001:0004a9c0       __is_c_termination_complete 0044b9c0 f   MSVCRTD:ucrt_stubs.obj
 0001:0004a9c0       ___scrt_stub_for_is_c_termination_complete 0044b9c0 f   MSVCRTD:ucrt_stubs.obj
 0001:0004a9d0       __filter_x86_sse2_floating_point_exception 0044b9d0 f   MSVCRTD:x86_exception_filter.obj
 0001:0004a9d0       __filter_x86_sse2_floating_point_exception_default 0044b9d0 f   MSVCRTD:x86_exception_filter.obj
 0002:00000000       ___xc_a                    00454000     MSVCRTD:initializers.obj
 0002:0000030c       ___xc_z                    0045430c     MSVCRTD:initializers.obj
 0002:00000410       ___xi_a                    00454410     MSVCRTD:initializers.obj
 0002:0000071c       ___xi_z                    0045471c     MSVCRTD:initializers.obj
 0002:00000820       ___xp_a                    00454820     MSVCRTD:initializers.obj
 0002:00000924       ___xp_z                    00454924     MSVCRTD:initializers.obj
 0002:00000a28       ___xt_a                    00454a28     MSVCRTD:initializers.obj
 0002:00000b2c       ___xt_z                    00454b2c     MSVCRTD:initializers.obj
 0002:00001204       ??_7exception@std@@6B@     00455204     ChooseLevelState.obj
 0002:00001210       ??_C@_0BC@EOODALEL@Unknown?5exception@ 00455210     ChooseLevelState.obj
 0002:0000122c       ??_7bad_alloc@std@@6B@     0045522c     ChooseLevelState.obj
 0002:0000123c       ??_7bad_array_new_length@std@@6B@ 0045523c     ChooseLevelState.obj
 0002:00001248       ??_C@_0BF@KINCDENJ@bad?5array?5new?5length@ 00455248     ChooseLevelState.obj
 0002:00001264       ??_C@_0BB@FCMFBGOM@invalid?5argument@ 00455264     ChooseLevelState.obj
 0002:00001278       ??_C@_02DKCKIIND@?$CFs@    00455278     ChooseLevelState.obj
 0002:00001280       ??_C@_0FE@PHPFJGHK@E?3?2Microsoft?5Visual?5Studio?22019@ 00455280     ChooseLevelState.obj
 0002:000012e8       ??_C@_1KI@BHNOCFDK@?$AAE?$AA?3?$AA?2?$AAM?$AAi?$AAc?$AAr?$AAo?$AAs?$AAo?$AAf?$AAt?$AA?5?$AAV?$AAi@ 004552e8     ChooseLevelState.obj
 0002:000013b8       ??_C@_1EK@NIFDJFDG@?$AAs?$AAt?$AAd?$AA?3?$AA?3?$AA_?$AAA?$AAd?$AAj?$AAu?$AAs?$AAt?$AA_?$AAm?$AAa@ 004553b8     ChooseLevelState.obj
 0002:00001410       ??_C@_1CG@JNLFBNGN@?$AA?$CC?$AAi?$AAn?$AAv?$AAa?$AAl?$AAi?$AAd?$AA?5?$AAa?$AAr?$AAg?$AAu?$AAm?$AAe@ 00455410     ChooseLevelState.obj
 0002:00001440       ??_C@_0BJ@LFDBABJJ@ITERATOR?5LIST?5CORRUPTED?$CB@ 00455440     ChooseLevelState.obj
 0002:00001460       ??_C@_1FM@FOFDAEGI@?$AAs?$AAt?$AAd?$AA?3?$AA?3?$AA_?$AAI?$AAt?$AAe?$AAr?$AAa?$AAt?$AAo?$AAr?$AA_@ 00455460     ChooseLevelState.obj
 0002:000014d0       ??_C@_1DG@PLBPCAEM@?$AA?$CC?$AAI?$AAT?$AAE?$AAR?$AAA?$AAT?$AAO?$AAR?$AA?5?$AAL?$AAI?$AAS?$AAT?$AA?5@ 004554d0     ChooseLevelState.obj
 0002:00001510       ??_C@_0BA@JFNIOLAK@string?5too?5long@ 00455510     ChooseLevelState.obj
 0002:00001524       ??_C@_0BB@GCADKGJO@map?1set?5too?5long@ 00455524     ChooseLevelState.obj
 0002:00001538       ??_C@_0DC@BNOGMHFL@Error?5creating?5surface?5in?5RawIm@ 00455538     ChooseLevelState.obj
 0002:00001574       ??_C@_0BD@IFIGDDIC@?7?7?$CL?$CL?$CL?5Load?5image?3?5@ 00455574     ChooseLevelState.obj
 0002:0000158c       ??_C@_0DJ@OJEPJEDH@ImageManager?3?3getImagePtrbyURL?$CI@ 0045558c     ChooseLevelState.obj
 0002:000015d0       ??_C@_0BJ@LOCNEGOL@Failed?5to?5load?5image?5?$CFs?6@ 004555d0     ChooseLevelState.obj
 0002:000015f4       ??_7ImagePixelMapping@@6B@ 004555f4     ChooseLevelState.obj
 0002:00001604       ??_7ImagePixelMappingRotate@@6B@ 00455604     ChooseLevelState.obj
 0002:00001614       ??_7ImagePixelMappingRotateAndColour@@6B@ 00455614     ChooseLevelState.obj
 0002:00001624       ??_C@_0BP@OLDKBHLM@map?1set?5iterators?5incompatible@ 00455624     ChooseLevelState.obj
 0002:00001650       ??_C@_0FC@PJDHCPIF@E?3?2Microsoft?5Visual?5Studio?22019@ 00455650     ChooseLevelState.obj
 0002:000016b8       ??_C@_1KE@CCNMJAIH@?$AAE?$AA?3?$AA?2?$AAM?$AAi?$AAc?$AAr?$AAo?$AAs?$AAo?$AAf?$AAt?$AA?5?$AAV?$AAi@ 004556b8     ChooseLevelState.obj
 0002:00001780       ??_C@_1EC@JLIDLCDH@?$AA?$CC?$AAm?$AAa?$AAp?$AA?1?$AAs?$AAe?$AAt?$AA?5?$AAi?$AAt?$AAe?$AAr?$AAa?$AAt@ 00455780     ChooseLevelState.obj
 0002:000017d0       ??_C@_1BPG@KHABJGCD@?$AAs?$AAt?$AAd?$AA?3?$AA?3?$AA_?$AAT?$AAr?$AAe?$AAe?$AA_?$AAc?$AAo?$AAn?$AAs@ 004557d0     ChooseLevelState.obj
 0002:00001a2c       ??_C@_0DG@LCFNIIPB@cannot?5dereference?5value?9initia@ 00455a2c     ChooseLevelState.obj
 0002:00001a70       ??_C@_1BPE@BBFPAJEC@?$AAs?$AAt?$AAd?$AA?3?$AA?3?$AA_?$AAT?$AAr?$AAe?$AAe?$AA_?$AAc?$AAo?$AAn?$AAs@ 00455a70     ChooseLevelState.obj
 0002:00001cc8       ??_C@_1HA@ILGCNILF@?$AA?$CC?$AAc?$AAa?$AAn?$AAn?$AAo?$AAt?$AA?5?$AAd?$AAe?$AAr?$AAe?$AAf?$AAe?$AAr@ 00455cc8     ChooseLevelState.obj
 0002:00001d50       ??_C@_0CI@OKFEHCEB@cannot?5dereference?5end?5map?1set?5@ 00455d50     ChooseLevelState.obj
 0002:00001d80       ??_C@_1FE@NKHAAGMB@?$AA?$CC?$AAc?$AAa?$AAn?$AAn?$AAo?$AAt?$AA?5?$AAd?$AAe?$AAr?$AAe?$AAf?$AAe?$AAr@ 00455d80     ChooseLevelState.obj
 0002:00001de4       ??_C@_0DA@GGPHOHEL@map?1set?5erase?5iterator?5from?5inc@ 00455de4     ChooseLevelState.obj
 0002:00001e20       ??_C@_1DJG@KIJFPGMB@?$AAs?$AAt?$AAd?$AA?3?$AA?3?$AA_?$AAT?$AAr?$AAe?$AAe?$AA?$DM?$AAc?$AAl?$AAa?$AAs@ 00455e20     ChooseLevelState.obj
 0002:00002270       ??_C@_1GE@FENJBJJO@?$AA?$CC?$AAm?$AAa?$AAp?$AA?1?$AAs?$AAe?$AAt?$AA?5?$AAe?$AAr?$AAa?$AAs?$AAe?$AA?5@ 00456270     ChooseLevelState.obj
 0002:000022e8       ??_C@_0CE@JAJNKOFK@cannot?5erase?5map?1set?5end?$CI?$CJ?5iter@ 004562e8     ChooseLevelState.obj
 0002:00002318       ??_C@_1EM@MEAEPHLP@?$AA?$CC?$AAc?$AAa?$AAn?$AAn?$AAo?$AAt?$AA?5?$AAe?$AAr?$AAa?$AAs?$AAe?$AA?5?$AAm@ 00456318     ChooseLevelState.obj
 0002:00002378       ??_7?$_Ref_count@VRawImageData@@@std@@6B@ 00456378     ChooseLevelState.obj
 0002:00002390       ??_C@_0FF@HDNMGJOE@E?3?2Microsoft?5Visual?5Studio?22019@ 00456390     ChooseLevelState.obj
 0002:000023f8       ??_C@_1KK@GDGNDAOC@?$AAE?$AA?3?$AA?2?$AAM?$AAi?$AAc?$AAr?$AAo?$AAs?$AAo?$AAf?$AAt?$AA?5?$AAV?$AAi@ 004563f8     ChooseLevelState.obj
 0002:000024c4       ??_C@_0BD@FEEMDEPI@invalid?5comparator@ 004564c4     ChooseLevelState.obj
 0002:000024dc       ??_C@_1CI@JONCLBEJ@?$AAs?$AAt?$AAd?$AA?3?$AA?3?$AA_?$AAD?$AAe?$AAb?$AAu?$AAg?$AA_?$AAl?$AAt?$AA_@ 004564dc     ChooseLevelState.obj
 0002:0000250c       ??_C@_1CK@NDNHPKPI@?$AA?$CC?$AAi?$AAn?$AAv?$AAa?$AAl?$AAi?$AAd?$AA?5?$AAc?$AAo?$AAm?$AAp?$AAa?$AAr@ 0045650c     ChooseLevelState.obj
 0002:00002540       __real@0000000000000000    00456540     ChooseLevelState.obj
 0002:00002550       __real@3f1a36e2eb1c432d    00456550     ChooseLevelState.obj
 0002:00002560       __real@3fe0000000000000    00456560     ChooseLevelState.obj
 0002:00002570       __real@400921fb54442d18    00456570     ChooseLevelState.obj
 0002:00002580       __real@4059000000000000    00456580     ChooseLevelState.obj
 0002:00002590       __real@406fe00000000000    00456590     ChooseLevelState.obj
 0002:00002d34       ??_7bad_cast@std@@6B@      00456d34     GameOverState.obj
 0002:00002d40       ??_C@_08EPJLHIJG@bad?5cast@ 00456d40     GameOverState.obj
 0002:00002d4c       ??_C@_0BG@HGEDEDEC@invalid?5stoi?5argument@ 00456d4c     GameOverState.obj
 0002:00002d68       ??_C@_0BL@MFFNMGGC@stoi?5argument?5out?5of?5range@ 00456d68     GameOverState.obj
 0002:00002d8c       ??_7?$basic_filebuf@DU?$char_traits@D@std@@@std@@6B@ 00456d8c     GameOverState.obj
 0002:00002dd8       ??_7?$basic_ifstream@DU?$char_traits@D@std@@@std@@6B@ 00456dd8     GameOverState.obj
 0002:00002de0       ??_8?$basic_ifstream@DU?$char_traits@D@std@@@std@@7B@ 00456de0     GameOverState.obj
 0002:00002df0       ??_7?$basic_ofstream@DU?$char_traits@D@std@@@std@@6B@ 00456df0     GameOverState.obj
 0002:00002df8       ??_8?$basic_ofstream@DU?$char_traits@D@std@@@std@@7B@ 00456df8     GameOverState.obj
 0002:00002e04       ??_C@_0BO@PFKOHNJC@vector?5subscript?5out?5of?5range@ 00456e04     GameOverState.obj
 0002:00002e28       ??_C@_0FD@KACFPKIJ@E?3?2Microsoft?5Visual?5Studio?22019@ 00456e28     GameOverState.obj
 0002:00002e90       ??_C@_1KG@MADLNLBF@?$AAE?$AA?3?$AA?2?$AAM?$AAi?$AAc?$AAr?$AAo?$AAs?$AAo?$AAf?$AAt?$AA?5?$AAV?$AAi@ 00456e90     GameOverState.obj
 0002:00002f58       ??_C@_1BME@NCIPHHDN@?$AAs?$AAt?$AAd?$AA?3?$AA?3?$AAv?$AAe?$AAc?$AAt?$AAo?$AAr?$AA?$DM?$AAc?$AAl?$AAa@ 00456f58     GameOverState.obj
 0002:00003178       ??_C@_1EA@LEKOKFNB@?$AA?$CC?$AAv?$AAe?$AAc?$AAt?$AAo?$AAr?$AA?5?$AAs?$AAu?$AAb?$AAs?$AAc?$AAr?$AAi@ 00457178     GameOverState.obj
 0002:000031c4       ??_C@_0BI@PJHAPDF@vector?5empty?5before?5pop@ 004571c4     GameOverState.obj
 0002:000031e0       ??_C@_1BLO@KNBNMFIK@?$AAs?$AAt?$AAd?$AA?3?$AA?3?$AAv?$AAe?$AAc?$AAt?$AAo?$AAr?$AA?$DM?$AAc?$AAl?$AAa@ 004571e0     GameOverState.obj
 0002:000033f8       ??_C@_1DE@IPIBMNGD@?$AA?$CC?$AAv?$AAe?$AAc?$AAt?$AAo?$AAr?$AA?5?$AAe?$AAm?$AAp?$AAt?$AAy?$AA?5?$AAb@ 004573f8     GameOverState.obj
 0002:00003438       ??_C@_0FE@ODIJKJD@E?3?2Microsoft?5Visual?5Studio?22019@ 00457438     GameOverState.obj
 0002:000034a0       ??_C@_1KI@PJFCNMOL@?$AAE?$AA?3?$AA?2?$AAM?$AAi?$AAc?$AAr?$AAo?$AAs?$AAo?$AAf?$AAt?$AA?5?$AAV?$AAi@ 004574a0     GameOverState.obj
 0002:0000356c       ??_C@_0CB@EJBNKHHC@invalid?5to?5pop_back?5empty?5strin@ 0045756c     GameOverState.obj
 0002:00003598       ??_C@_1LI@HCBEBID@?$AAs?$AAt?$AAd?$AA?3?$AA?3?$AAb?$AAa?$AAs?$AAi?$AAc?$AA_?$AAs?$AAt?$AAr?$AAi@ 00457598     GameOverState.obj
 0002:00003678       ??_C@_1EG@GNALHNOG@?$AA?$CC?$AAi?$AAn?$AAv?$AAa?$AAl?$AAi?$AAd?$AA?5?$AAt?$AAo?$AA?5?$AAp?$AAo?$AAp@ 00457678     GameOverState.obj
 0002:000036cc       ??_C@_0BP@PFIPNLNI@front?$CI?$CJ?5called?5on?5empty?5string@ 004576cc     GameOverState.obj
 0002:000036f8       ??_C@_1LC@BJDDPGPA@?$AAs?$AAt?$AAd?$AA?3?$AA?3?$AAb?$AAa?$AAs?$AAi?$AAc?$AA_?$AAs?$AAt?$AAr?$AAi@ 004576f8     GameOverState.obj
 0002:000037d0       ??_C@_1EC@DINNLDHA@?$AA?$CC?$AAf?$AAr?$AAo?$AAn?$AAt?$AA?$CI?$AA?$CJ?$AA?5?$AAc?$AAa?$AAl?$AAl?$AAe?$AAd@ 004577d0     GameOverState.obj
 0002:00003820       ??_C@_0CO@LHPFLLJB@cannot?5seek?5value?9initialized?5v@ 00457820     GameOverState.obj
 0002:00003858       ??_C@_1BHG@CACGJPPI@?$AAs?$AAt?$AAd?$AA?3?$AA?3?$AA_?$AAV?$AAe?$AAc?$AAt?$AAo?$AAr?$AA_?$AAc?$AAo@ 00457858     GameOverState.obj
 0002:00003a18       ??_C@_1GA@EIHBFEJD@?$AA?$CC?$AAc?$AAa?$AAn?$AAn?$AAo?$AAt?$AA?5?$AAs?$AAe?$AAe?$AAk?$AA?5?$AAv?$AAa@ 00457a18     GameOverState.obj
 0002:00003a8c       ??_C@_0CJ@DIFMEJBE@cannot?5seek?5vector?5iterator?5bef@ 00457a8c     GameOverState.obj
 0002:00003ac0       ??_C@_1FG@JCGKNFIB@?$AA?$CC?$AAc?$AAa?$AAn?$AAn?$AAo?$AAt?$AA?5?$AAs?$AAe?$AAe?$AAk?$AA?5?$AAv?$AAe@ 00457ac0     GameOverState.obj
 0002:00003b28       ??_C@_0CG@JDIOCKHH@cannot?5seek?5vector?5iterator?5aft@ 00457b28     GameOverState.obj
 0002:00003b58       ??_C@_1FA@LCODAPOP@?$AA?$CC?$AAc?$AAa?$AAn?$AAn?$AAo?$AAt?$AA?5?$AAs?$AAe?$AAe?$AAk?$AA?5?$AAv?$AAe@ 00457b58     GameOverState.obj
 0002:00003bb8       ??_C@_0BI@CFPLBAOH@invalid?5string?5position@ 00457bb8     GameOverState.obj
 0002:00003bd4       ??_C@_0CG@PHHCFCMA@vector?5emplace?5iterator?5outside@ 00457bd4     GameOverState.obj
 0002:00003c08       ??_C@_1BLM@LJGHJHMN@?$AAs?$AAt?$AAd?$AA?3?$AA?3?$AAv?$AAe?$AAc?$AAt?$AAo?$AAr?$AA?$DM?$AAc?$AAl?$AAa@ 00457c08     GameOverState.obj
 0002:00003e20       ??_C@_1FA@JJEJIKGE@?$AA?$CC?$AAv?$AAe?$AAc?$AAt?$AAo?$AAr?$AA?5?$AAe?$AAm?$AAp?$AAl?$AAa?$AAc?$AAe@ 00457e20     GameOverState.obj
 0002:00003e80       ??_C@_0BA@FOIKENOD@vector?5too?5long@ 00457e80     GameOverState.obj
 0002:00003e94       ??_C@_0BJ@HAJGEHKO@transposed?5pointer?5range@ 00457e94     GameOverState.obj
 0002:00003eb4       ??_C@_1CG@LJCPDKEJ@?$AAs?$AAt?$AAd?$AA?3?$AA?3?$AA_?$AAV?$AAe?$AAr?$AAi?$AAf?$AAy?$AA_?$AAr?$AAa@ 00457eb4     GameOverState.obj
 0002:00003ee4       ??_C@_1DG@FJIKMGFD@?$AA?$CC?$AAt?$AAr?$AAa?$AAn?$AAs?$AAp?$AAo?$AAs?$AAe?$AAd?$AA?5?$AAp?$AAo?$AAi@ 00457ee4     GameOverState.obj
 0002:00004454       ??_7FilterPoints@@6B@      00458454     GameState.obj
 0002:0000446c       ??_C@_0CN@GHCLOPHF@Error?5in?5setting?5pixel?9?5should?5@ 0045846c     GameState.obj
 0002:000044a8       ??_C@_0JM@GIEKPEHN@WARNING?3?5Attempted?5write?5to?5sur@ 004584a8     GameState.obj
 0002:00004568       ??_7TileManager@@6B@       00458568     GameState.obj
 0002:00004578       ??_7SelectionArea@@6B@     00458578     GameState.obj
 0002:00004588       ??_C@_0HB@MIDMLFAO@?$CB?$CB?5Error?5?$EA?5SelectionArea?4h?5Sele@ 00458588     GameState.obj
 0002:00004614       ??_7Scyyz12FilterPointsScaling@@6B@ 00458614     GameState.obj
 0002:00004630       ??_7Scyyz12FilterPointsTranslation@@6B@ 00458630     GameState.obj
 0002:000051e4       ??_7RailLine@@6B@          004591e4     InstructionState.obj
 0002:00005228       ??_7RailLineDiagonal@@6B@  00459228     InstructionState.obj
 0002:00005268       ??_C@_0EF@CLLLEJE@?$CB?$CB?5Error?5?$EA?5Rail?4h?5RailLineDiago@ 00459268     InstructionState.obj
 0002:000052c0       ??_7Passenger@@6B@         004592c0     InstructionState.obj
 0002:00005304       ??_7PassengerCircle@@6B@   00459304     InstructionState.obj
 0002:00005348       ??_7PassengerSquare@@6B@   00459348     InstructionState.obj
 0002:0000538c       ??_7PassengerDiamond@@6B@  0045938c     InstructionState.obj
 0002:000053d0       ??_7PassengerTriangle@@6B@ 004593d0     InstructionState.obj
 0002:00005414       ??_7PassengerInvTriangle@@6B@ 00459414     InstructionState.obj
 0002:00005458       ??_7PassengerFlower@@6B@   00459458     InstructionState.obj
 0002:00005498       ??_C@_0EJ@LMFDHJLO@?$CB?$CB?5Error?5?$EA?5Passenger?4h?5Passenge@ 00459498     InstructionState.obj
 0002:000054f4       ??_7Station@@6B@           004594f4     InstructionState.obj
 0002:00005538       ??_7StationCircle@@6B@     00459538     InstructionState.obj
 0002:0000557c       ??_7StationSquare@@6B@     0045957c     InstructionState.obj
 0002:000055c0       ??_7StationDiamond@@6B@    004595c0     InstructionState.obj
 0002:00005604       ??_7StationTriangle@@6B@   00459604     InstructionState.obj
 0002:00005648       ??_7StationInvTriangle@@6B@ 00459648     InstructionState.obj
 0002:0000568c       ??_7StationFlower@@6B@     0045968c     InstructionState.obj
 0002:000056d0       ??_C@_0EF@MHJGFFPJ@?$CB?$CB?5Error?5?$EA?5Station?4h?5StationCol@ 004596d0     InstructionState.obj
 0002:00005728       ??_7Train@@6B@             00459728     InstructionState.obj
 0002:00005734       ??_7TrainNormal@@6B@       00459734     InstructionState.obj
 0002:00005740       ??_7TrainFast@@6B@         00459740     InstructionState.obj
 0002:0000574c       ??_7TrainIntelli@@6B@      0045974c     InstructionState.obj
 0002:00005758       ??_C@_0EB@MAPGDBJJ@?$CB?$CB?5Error?5?$EA?5Train?4h?5TrainCollect@ 00459758     InstructionState.obj
 0002:000057a8       ??_C@_1NC@BBDFHLCL@?$AAs?$AAt?$AAd?$AA?3?$AA?3?$AAv?$AAe?$AAc?$AAt?$AAo?$AAr?$AA?$DM?$AAc?$AAl?$AAa@ 004597a8     InstructionState.obj
 0002:000058a8       ??_C@_1MK@PODALHBD@?$AAs?$AAt?$AAd?$AA?3?$AA?3?$AAv?$AAe?$AAc?$AAt?$AAo?$AAr?$AA?$DM?$AAc?$AAl?$AAa@ 004598a8     InstructionState.obj
 0002:000059a0       __real@3ff0000000000000    004599a0     InstructionState.obj
 0002:000059b0       __real@4000000000000000    004599b0     InstructionState.obj
 0002:000059c0       __real@407f400000000000    004599c0     InstructionState.obj
 0002:000059d0       __real@bff0000000000000    004599d0     InstructionState.obj
 0002:00006210       __real@3fd76c8b43958106    0045a210     Passenger.obj
 0002:00006f58       ??_C@_0CA@MMOGIFNF@invalid?5unordered_map?$DMK?0?5T?$DO?5key@ 0045af58     Scyyz12Engine2.obj
 0002:000073a8       __real@3fb999999999999a    0045b3a8     Part1Object.obj
 0002:000073b8       __real@4024000000000000    0045b3b8     Part1Object.obj
 0002:00007800       ??_7DragableBaseClassObject@@6B@ 0045b800     DraggingDemo.obj
 0002:00007858       ??_7DragableObject@@6B@    0045b858     DraggingDemo.obj
 0002:000078b0       ??_7DragableImageObject@@6B@ 0045b8b0     DraggingDemo.obj
 0002:00007908       ??_7ImageObject@@6B@       0045b908     DraggingDemo.obj
 0002:00007948       ?MY_PI@DrawingSurface@@2NB 0045b948     DrawingSurface.obj
 0002:00007d68       ??_C@_0LN@HOLHFHJI@WARNING?3?5Attempted?5blit?5to?5lock@ 0045bd68     DrawingSurface.obj
 0002:00007e50       __real@3fe0c152382d7365    0045be50     DrawingSurface.obj
 0002:00007e60       __real@3ff8000000000000    0045be60     DrawingSurface.obj
 0002:00007e70       __real@3ff921fb54442d18    0045be70     DrawingSurface.obj
 0002:00007e80       __real@4008000000000000    0045be80     DrawingSurface.obj
 0002:00007e90       __real@400f6a7a2955385e    0045be90     DrawingSurface.obj
 0002:00007ea0       __real@4010000000000000    0045bea0     DrawingSurface.obj
 0002:00007eb0       __real@401921fb54442d18    0045beb0     DrawingSurface.obj
 0002:000082dc       ??_7FlashingDemo@@6BDisplayableObjectContainer@@@ 0045c2dc     FlashingDemo.obj
 0002:00008388       ??_7FlashingDemo@@6BFilterPoints@@@ 0045c388     FlashingDemo.obj
 0002:00008804       ??_7MappableImageObject@@6B@ 0045c804     ImageMappingDemo.obj
 0002:00008858       __real@c059000000000000    0045c858     ImageMappingDemo.obj
 0002:00008d34       ??_7State@@6B@             0045cd34     mainfunction.obj
 0002:00008d6c       ?_Min_buckets@?$_Hash@V?$_Umap_traits@V?$basic_string@DU?$char_traits@D@std@@V?$allocator@D@2@@std@@PAVState@@V?$_Uhash_compare@V?$basic_string@DU?$char_traits@D@std@@V?$allocator@D@2@@std@@U?$hash@V?$basic_string@DU?$char_traits@D@std@@V?$allocator@D@2@@std@@@2@U?$equal_to@V?$basic_string@DU?$char_traits@D@std@@V?$allocator@D@2@@std@@@2@@2@V?$allocator@U?$pair@$$CBV?$basic_string@DU?$char_traits@D@std@@V?$allocator@D@2@@std@@PAVState@@@std@@@2@$0A@@std@@@std@@2IB 0045cd6c     mainfunction.obj
 0002:00008d74       ??_7Scyyz12Engine2@@6BDisplayableObjectContainer@@@ 0045cd74     mainfunction.obj
 0002:00008e20       ??_7Scyyz12Engine2@@6BFilterPoints@@@ 0045ce20     mainfunction.obj
 0002:00008e3c       ??_7ChooseLevelState@@6B@  0045ce3c     mainfunction.obj
 0002:00008e78       ??_7GameOverState@@6B@     0045ce78     mainfunction.obj
 0002:00008eb4       ??_7GameState@@6B@         0045ceb4     mainfunction.obj
 0002:00008ef0       ??_7HighScoreState@@6B@    0045cef0     mainfunction.obj
 0002:00008f2c       ??_7InstructionState@@6B@  0045cf2c     mainfunction.obj
 0002:00008f68       ??_7StartState@@6B@        0045cf68     mainfunction.obj
 0002:00008fa4       ??_7PauseState@@6B@        0045cfa4     mainfunction.obj
 0002:00008fdc       ??_C@_06FKMFOHCO@?$DMName?$DO@ 0045cfdc     mainfunction.obj
 0002:00008fe8       ??_C@_1MO@IBHIAIBF@?$AAs?$AAt?$AAd?$AA?3?$AA?3?$AAv?$AAe?$AAc?$AAt?$AAo?$AAr?$AA?$DM?$AAc?$AAl?$AAa@ 0045cfe8     mainfunction.obj
 0002:000090e0       ??_C@_0BL@GOIGLPKN@unordered_map?1set?5too?5long@ 0045d0e0     mainfunction.obj
 0002:00009100       ??_C@_0BK@OGNNAFAB@invalid?5hash?5bucket?5count@ 0045d100     mainfunction.obj
 0002:00009120       __real@3f800000            0045d120     mainfunction.obj
 0002:00009130       __xmm@41f00000000000000000000000000000 0045d130     mainfunction.obj
 0002:000095b8       ??_7DisplayableObjectContainer@@6B@ 0045d5b8     BaseEngine.obj
 0002:000095c8       ??_7BaseEngine@@6BDisplayableObjectContainer@@@ 0045d5c8     BaseEngine.obj
 0002:00009674       ??_7BaseEngine@@6BFilterPoints@@@ 0045d674     BaseEngine.obj
 0002:0000968c       ??_C@_0DE@CHADHGFF@can?8t?5dereference?5value?9initial@ 0045d68c     BaseEngine.obj
 0002:000096d0       ??_C@_1PA@DMJFJEGO@?$AAs?$AAt?$AAd?$AA?3?$AA?3?$AA_?$AAV?$AAe?$AAc?$AAt?$AAo?$AAr?$AA_?$AAc?$AAo@ 0045d6d0     BaseEngine.obj
 0002:000097f0       ??_C@_1GM@FNBFNBEL@?$AA?$CC?$AAc?$AAa?$AAn?$AA?8?$AAt?$AA?5?$AAd?$AAe?$AAr?$AAe?$AAf?$AAe?$AAr?$AAe@ 0045d7f0     BaseEngine.obj
 0002:00009874       ??_C@_0CP@MDHADBHN@can?8t?5dereference?5out?5of?5range?5@ 0045d874     BaseEngine.obj
 0002:000098b0       ??_C@_1GC@JDCKOLAC@?$AA?$CC?$AAc?$AAa?$AAn?$AA?8?$AAt?$AA?5?$AAd?$AAe?$AAr?$AAe?$AAf?$AAe?$AAr?$AAe@ 0045d8b0     BaseEngine.obj
 0002:00009928       ??_C@_0DC@KEKNBAEB@can?8t?5increment?5value?9initializ@ 0045d928     BaseEngine.obj
 0002:00009968       ??_C@_1PC@LAHDNGHL@?$AAs?$AAt?$AAd?$AA?3?$AA?3?$AA_?$AAV?$AAe?$AAc?$AAt?$AAo?$AAr?$AA_?$AAc?$AAo@ 0045d968     BaseEngine.obj
 0002:00009a90       ??_C@_1GI@EDCILPL@?$AA?$CC?$AAc?$AAa?$AAn?$AA?8?$AAt?$AA?5?$AAi?$AAn?$AAc?$AAr?$AAe?$AAm?$AAe?$AAn@ 0045da90     BaseEngine.obj
 0002:00009b0c       ??_C@_0CJ@OAAAAGPM@can?8t?5increment?5vector?5iterator@ 0045db0c     BaseEngine.obj
 0002:00009b40       ??_C@_1FG@LDPPKMGP@?$AA?$CC?$AAc?$AAa?$AAn?$AA?8?$AAt?$AA?5?$AAi?$AAn?$AAc?$AAr?$AAe?$AAm?$AAe?$AAn@ 0045db40     BaseEngine.obj
 0002:00009ba8       ??_C@_0BO@CAOBBIOC@vector?5iterators?5incompatible@ 0045dba8     BaseEngine.obj
 0002:00009bd0       ??_C@_1OK@EOCJDFAL@?$AAs?$AAt?$AAd?$AA?3?$AA?3?$AA_?$AAV?$AAe?$AAc?$AAt?$AAo?$AAr?$AA_?$AAc?$AAo@ 0045dbd0     BaseEngine.obj
 0002:00009ce8       ??_C@_1EA@DJDGNIII@?$AA?$CC?$AAv?$AAe?$AAc?$AAt?$AAo?$AAr?$AA?5?$AAi?$AAt?$AAe?$AAr?$AAa?$AAt?$AAo@ 0045dce8     BaseEngine.obj
 0002:00009d34       ??_C@_0DI@PBEELKIF@vector?5iterators?5in?5range?5are?5f@ 0045dd34     BaseEngine.obj
 0002:00009d78       ??_C@_1HE@KBMFDAFB@?$AA?$CC?$AAv?$AAe?$AAc?$AAt?$AAo?$AAr?$AA?5?$AAi?$AAt?$AAe?$AAr?$AAa?$AAt?$AAo@ 0045dd78     BaseEngine.obj
 0002:00009e04       ??_C@_0CB@LIAHLBAO@vector?5iterator?5range?5transpose@ 0045de04     BaseEngine.obj
 0002:00009e30       ??_C@_1EG@ODKBEHFN@?$AA?$CC?$AAv?$AAe?$AAc?$AAt?$AAo?$AAr?$AA?5?$AAi?$AAt?$AAe?$AAr?$AAa?$AAt?$AAo@ 0045de30     BaseEngine.obj
 0002:0000a2a4       ??_7DisplayableObject@@6B@ 0045e2a4     DisplayableObject.obj
 0002:0000a568       ??_C@_0BI@GMOFELCF@Free?5font?3?5?$CFd?5point?5?$CFs?6@ 0045e568     FontManager.obj
 0002:0000ac40       ??_7Part1Object@@6B@       0045ec40     Scyyz12Engine.obj
 0002:0000ac84       ??_7Part1Object2@@6B@      0045ec84     Scyyz12Engine.obj
 0002:0000acc8       __real@4049000000000000    0045ecc8     Scyyz12Engine.obj
 0002:0000acd8       __real@4067400000000000    0045ecd8     Scyyz12Engine.obj
 0002:0000ace8       __real@4069000000000000    0045ece8     Scyyz12Engine.obj
 0002:0000acf8       __real@406f400000000000    0045ecf8     Scyyz12Engine.obj
 0002:0000ad08       __real@4071000000000000    0045ed08     Scyyz12Engine.obj
 0002:0000b160       ??_7MyObjectB@@6B@         0045f160     MyDemoA.obj
 0002:0000bde8       __real@3fd3333333333333    0045fde8     Scyyz12TileManager.obj
 0002:0000bdf8       __real@400d99999999999a    0045fdf8     Scyyz12TileManager.obj
 0002:0000c850       ??_C@_1HC@HBCEAHKD@?$AAs?$AAt?$AAd?$AA?3?$AA?3?$AAv?$AAe?$AAc?$AAt?$AAo?$AAr?$AA?$DM?$AAi?$AAn?$AAt@ 00460850     SelectionArea.obj
 0002:0000c8d8       ??_C@_1JG@ILDNFCDK@?$AAs?$AAt?$AAd?$AA?3?$AA?3?$AAv?$AAe?$AAc?$AAt?$AAo?$AAr?$AA?$DM?$AAu?$AAn?$AAs@ 004608d8     SelectionArea.obj
 0002:0000c990       __real@3fc999999999999a    00460990     SelectionArea.obj
 0002:0000c9a0       __real@3fe6666666666666    004609a0     SelectionArea.obj
 0002:0000c9b0       __real@3feccccccccccccd    004609b0     SelectionArea.obj
 0002:0000c9c0       __real@3ff3333333333333    004609c0     SelectionArea.obj
 0002:0000cdf0       ??_7CroppedImagePixelMapping@@6B@ 00460df0     SimpleImage.obj
 0002:0000d2d0       ??_7BouncingObject@@6B@    004612d0     SimpleDemo.obj
 0002:0000d310       __real@3f747ae147ae147b    00461310     SimpleDemo.obj
 0002:0000d320       __real@4004000000000000    00461320     SimpleDemo.obj
 0002:0000d330       __real@400c000000000000    00461330     SimpleDemo.obj
 0002:0000d340       __real@4072c00000000000    00461340     SimpleDemo.obj
 0002:0000d350       __xmm@80000000000000008000000000000000 00461350     SimpleDemo.obj
 0002:0000d784       ??_7StarfieldDemo@@6BDisplayableObjectContainer@@@ 00461784     StarfieldDemo.obj
 0002:0000d830       ??_7StarfieldDemo@@6BFilterPoints@@@ 00461830     StarfieldDemo.obj
 0002:0000ddc8       __real@3fe921fb54442d18    00461dc8     StartState.obj
 0002:0000ddd8       __real@4012d97c7f3321d2    00461dd8     StartState.obj
 0002:0000dde8       __real@4015fdbbe9bba775    00461de8     StartState.obj
 0002:0000e334       ??_C@_0CE@EAMOGAIE@vector?5erase?5iterator?5outside?5r@ 00462334     Station.obj
 0002:0000e360       ??_C@_1EM@BEMPOGMM@?$AA?$CC?$AAv?$AAe?$AAc?$AAt?$AAo?$AAr?$AA?5?$AAe?$AAr?$AAa?$AAs?$AAe?$AA?5?$AAi@ 00462360     Station.obj
 0002:0000e3c0       ??_C@_1MG@OMAJGGHA@?$AAs?$AAt?$AAd?$AA?3?$AA?3?$AAv?$AAe?$AAc?$AAt?$AAo?$AAr?$AA?$DM?$AAc?$AAl?$AAa@ 004623c0     Station.obj
 0002:0000e4b0       ??_C@_1PM@MFPIFODI@?$AAs?$AAt?$AAd?$AA?3?$AA?3?$AA_?$AAV?$AAe?$AAc?$AAt?$AAo?$AAr?$AA_?$AAc?$AAo@ 004624b0     Station.obj
 0002:0000e5e0       __real@3fee666666666666    004625e0     Station.obj
 0002:0000e5f0       __real@3ff69fbe76c8b439    004625f0     Station.obj
 0002:0000e600       __real@3ffbb645a1cac083    00462600     Station.obj
 0002:0000ee44       ??_7BouncingBall@@6B@      00462e44     BouncingBall.obj
 0002:0000ee88       ??_7BouncingBall1@@6B@     00462e88     BouncingBall.obj
 0002:0000eecc       ??_7BouncingBall2@@6B@     00462ecc     BouncingBall.obj
 0002:0000ef10       __real@3fa999999999999a    00462f10     BouncingBall.obj
 0002:0000f388       __real@3fe999999999999a    00463388     BouncingBallMain.obj
 0002:0000f398       __real@3ff199999999999a    00463398     BouncingBallMain.obj
 0002:0000fe00       ??_7Carriage@@6B@          00463e00     Train.obj
 0002:0000fe44       ??_7CarriageHead@@6B@      00463e44     Train.obj
 0002:0000fe88       ??_7CarriageMain@@6B@      00463e88     Train.obj
 0002:0000fecc       ??_7CarriageHeadFast@@6B@  00463ecc     Train.obj
 0002:0000ff10       ??_7CarriageHeadIntelli@@6B@ 00463f10     Train.obj
 0002:0000ff50       ??_C@_0EE@NMDACHEI@?$CB?$CB?5Error?5?$EA?5Train?4h?5CarriageColl@ 00463f50     Train.obj
 0002:0000ffa8       ??_C@_1MI@LBFBPBOL@?$AAs?$AAt?$AAd?$AA?3?$AA?3?$AAv?$AAe?$AAc?$AAt?$AAo?$AAr?$AA?$DM?$AAc?$AAl?$AAa@ 00463fa8     Train.obj
 0002:00010098       ??_C@_0CF@NNBLLPGF@vector?5insert?5iterator?5outside?5@ 00464098     Train.obj
 0002:000100c8       ??_C@_1GI@JBCFBMDI@?$AAs?$AAt?$AAd?$AA?3?$AA?3?$AAv?$AAe?$AAc?$AAt?$AAo?$AAr?$AA?$DM?$AAi?$AAn?$AAt@ 004640c8     Train.obj
 0002:00010148       ??_C@_1EO@HCJPCNBE@?$AA?$CC?$AAv?$AAe?$AAc?$AAt?$AAo?$AAr?$AA?5?$AAi?$AAn?$AAs?$AAe?$AAr?$AAt?$AA?5@ 00464148     Train.obj
 0002:000101a8       __real@3fe6b851eb851eb8    004641a8     Train.obj
 0002:000101b8       __real@c03e000000000000    004641b8     Train.obj
 0002:00010694       ??_7SimpleFlashingDragableImageObject@@6B@ 00464694     ZoomingDemo.obj
 0002:00010c8c       ??_7MazeDemoTileManager@@6B@ 00464c8c     MazeDemoMain.obj
 0002:00010c9c       ??_7MazeDemoMain@@6BDisplayableObjectContainer@@@ 00464c9c     MazeDemoMain.obj
 0002:00010d48       ??_7MazeDemoMain@@6BFilterPoints@@@ 00464d48     MazeDemoMain.obj
 0002:0001117c       ??_7MazeDemoObject@@6B@    0046517c     MazeDemoObject.obj
 0002:000115d8       ??_C@_0DN@HNMKBFBH@d?3?2a01?2_work?211?2s?2src?2vctools?2c@ 004655d8     msvcprtd:locale0_implib.obj
 0002:00011628       ??_7type_info@@6B@         00465628     MSVCRTD:std_type_info_static.obj
 0002:0001164c       ??_C@_0P@GHFPNOJB@bad?5allocation@ 0046564c     MSVCRTD:throw_bad_alloc.obj
 0002:0001166c       ??_C@_0BJ@HFNMHALN@Out?5of?5memory?5?9?5aborting@ 0046566c     SDL2main:SDL_windows_main.obj
 0002:0001168c       ??_C@_0M@HFFOIJBL@Fatal?5Error@ 0046568c     SDL2main:SDL_windows_main.obj
 0002:000116d8       __load_config_used         004656d8     MSVCRTD:loadcfg.obj
 0002:00011a00       ___CastGuardVftablesStart  00465a00     MSVCRTD:guard_support.obj
 0002:00011b04       ___CastGuardVftablesEnd    00465b04     MSVCRTD:guard_support.obj
 0002:00011c08       ??_R4exception@std@@6B@    00465c08     ChooseLevelState.obj
 0002:00011c20       ??_R3exception@std@@8      00465c20     ChooseLevelState.obj
 0002:00011c34       ??_R2exception@std@@8      00465c34     ChooseLevelState.obj
 0002:00011c3c       ??_R1A@?0A@EA@exception@std@@8 00465c3c     ChooseLevelState.obj
 0002:00011c60       ??_R4bad_alloc@std@@6B@    00465c60     ChooseLevelState.obj
 0002:00011c78       ??_R3bad_alloc@std@@8      00465c78     ChooseLevelState.obj
 0002:00011c8c       ??_R2bad_alloc@std@@8      00465c8c     ChooseLevelState.obj
 0002:00011c98       ??_R1A@?0A@EA@bad_alloc@std@@8 00465c98     ChooseLevelState.obj
 0002:00011cbc       ??_R4bad_array_new_length@std@@6B@ 00465cbc     ChooseLevelState.obj
 0002:00011cd4       ??_R3bad_array_new_length@std@@8 00465cd4     ChooseLevelState.obj
 0002:00011ce8       ??_R2bad_array_new_length@std@@8 00465ce8     ChooseLevelState.obj
 0002:00011cf8       ??_R1A@?0A@EA@bad_array_new_length@std@@8 00465cf8     ChooseLevelState.obj
 0002:00011d1c       ??_R3_Ref_count_base@std@@8 00465d1c     ChooseLevelState.obj
 0002:00011d30       ??_R2_Ref_count_base@std@@8 00465d30     ChooseLevelState.obj
 0002:00011d38       ??_R1A@?0A@EA@_Ref_count_base@std@@8 00465d38     ChooseLevelState.obj
 0002:00011d5c       ??_R4ImagePixelMapping@@6B@ 00465d5c     ChooseLevelState.obj
 0002:00011d74       ??_R3ImagePixelMapping@@8  00465d74     ChooseLevelState.obj
 0002:00011d88       ??_R2ImagePixelMapping@@8  00465d88     ChooseLevelState.obj
 0002:00011d90       ??_R1A@?0A@EA@ImagePixelMapping@@8 00465d90     ChooseLevelState.obj
 0002:00011db4       ??_R4ImagePixelMappingRotate@@6B@ 00465db4     ChooseLevelState.obj
 0002:00011dcc       ??_R3ImagePixelMappingRotate@@8 00465dcc     ChooseLevelState.obj
 0002:00011de0       ??_R2ImagePixelMappingRotate@@8 00465de0     ChooseLevelState.obj
 0002:00011dec       ??_R1A@?0A@EA@ImagePixelMappingRotate@@8 00465dec     ChooseLevelState.obj
 0002:00011e10       ??_R4ImagePixelMappingRotateAndColour@@6B@ 00465e10     ChooseLevelState.obj
 0002:00011e28       ??_R3ImagePixelMappingRotateAndColour@@8 00465e28     ChooseLevelState.obj
 0002:00011e3c       ??_R2ImagePixelMappingRotateAndColour@@8 00465e3c     ChooseLevelState.obj
 0002:00011e4c       ??_R1A@?0A@EA@ImagePixelMappingRotateAndColour@@8 00465e4c     ChooseLevelState.obj
 0002:00011e70       ??_R4?$_Ref_count@VRawImageData@@@std@@6B@ 00465e70     ChooseLevelState.obj
 0002:00011e88       ??_R3?$_Ref_count@VRawImageData@@@std@@8 00465e88     ChooseLevelState.obj
 0002:00011e9c       ??_R2?$_Ref_count@VRawImageData@@@std@@8 00465e9c     ChooseLevelState.obj
 0002:00011ea8       ??_R1A@?0A@EA@?$_Ref_count@VRawImageData@@@std@@8 00465ea8     ChooseLevelState.obj
 0002:00011ecc       ??_R4?$basic_filebuf@DU?$char_traits@D@std@@@std@@6B@ 00465ecc     GameOverState.obj
 0002:00011ee4       ??_R3?$basic_filebuf@DU?$char_traits@D@std@@@std@@8 00465ee4     GameOverState.obj
 0002:00011ef8       ??_R2?$basic_filebuf@DU?$char_traits@D@std@@@std@@8 00465ef8     GameOverState.obj
 0002:00011f04       ??_R1A@?0A@EA@?$basic_filebuf@DU?$char_traits@D@std@@@std@@8 00465f04     GameOverState.obj
 0002:00011f28       ??_R1A@?0A@EA@?$basic_streambuf@DU?$char_traits@D@std@@@std@@8 00465f28     GameOverState.obj
 0002:00011f4c       ??_R3?$basic_streambuf@DU?$char_traits@D@std@@@std@@8 00465f4c     GameOverState.obj
 0002:00011f60       ??_R2?$basic_streambuf@DU?$char_traits@D@std@@@std@@8 00465f60     GameOverState.obj
 0002:00011f68       ??_R4?$basic_ifstream@DU?$char_traits@D@std@@@std@@6B@ 00465f68     GameOverState.obj
 0002:00011f80       ??_R3?$basic_ifstream@DU?$char_traits@D@std@@@std@@8 00465f80     GameOverState.obj
 0002:00011f94       ??_R2?$basic_ifstream@DU?$char_traits@D@std@@@std@@8 00465f94     GameOverState.obj
 0002:00011fb0       ??_R1A@?0A@EA@?$basic_ifstream@DU?$char_traits@D@std@@@std@@8 00465fb0     GameOverState.obj
 0002:00011fd4       ??_R1A@?0A@EA@?$basic_istream@DU?$char_traits@D@std@@@std@@8 00465fd4     GameOverState.obj
 0002:00011ff8       ??_R3?$basic_istream@DU?$char_traits@D@std@@@std@@8 00465ff8     GameOverState.obj
 0002:0001200c       ??_R2?$basic_istream@DU?$char_traits@D@std@@@std@@8 0046600c     GameOverState.obj
 0002:00012020       ??_R1A@A@3FA@?$basic_ios@DU?$char_traits@D@std@@@std@@8 00466020     GameOverState.obj
 0002:00012044       ??_R3?$basic_ios@DU?$char_traits@D@std@@@std@@8 00466044     GameOverState.obj
 0002:00012058       ??_R2?$basic_ios@DU?$char_traits@D@std@@@std@@8 00466058     GameOverState.obj
 0002:00012068       ??_R1A@?0A@EA@?$basic_ios@DU?$char_traits@D@std@@@std@@8 00466068     GameOverState.obj
 0002:0001208c       ??_R1A@?0A@EA@ios_base@std@@8 0046608c     GameOverState.obj
 0002:000120b0       ??_R3ios_base@std@@8       004660b0     GameOverState.obj
 0002:000120c4       ??_R2ios_base@std@@8       004660c4     GameOverState.obj
 0002:000120d0       ??_R17?0A@EA@?$_Iosb@H@std@@8 004660d0     GameOverState.obj
 0002:000120f4       ??_R3?$_Iosb@H@std@@8      004660f4     GameOverState.obj
 0002:00012108       ??_R2?$_Iosb@H@std@@8      00466108     GameOverState.obj
 0002:00012110       ??_R1A@?0A@EA@?$_Iosb@H@std@@8 00466110     GameOverState.obj
 0002:00012134       ??_R1A@A@3EA@ios_base@std@@8 00466134     GameOverState.obj
 0002:00012158       ??_R17A@3EA@?$_Iosb@H@std@@8 00466158     GameOverState.obj
 0002:0001217c       ??_R4?$basic_ofstream@DU?$char_traits@D@std@@@std@@6B@ 0046617c     GameOverState.obj
 0002:00012194       ??_R3?$basic_ofstream@DU?$char_traits@D@std@@@std@@8 00466194     GameOverState.obj
 0002:000121a8       ??_R2?$basic_ofstream@DU?$char_traits@D@std@@@std@@8 004661a8     GameOverState.obj
 0002:000121c4       ??_R1A@?0A@EA@?$basic_ofstream@DU?$char_traits@D@std@@@std@@8 004661c4     GameOverState.obj
 0002:000121e8       ??_R1A@?0A@EA@?$basic_ostream@DU?$char_traits@D@std@@@std@@8 004661e8     GameOverState.obj
 0002:0001220c       ??_R3?$basic_ostream@DU?$char_traits@D@std@@@std@@8 0046620c     GameOverState.obj
 0002:00012220       ??_R2?$basic_ostream@DU?$char_traits@D@std@@@std@@8 00466220     GameOverState.obj
 0002:00012234       ??_R4bad_cast@std@@6B@     00466234     GameOverState.obj
 0002:0001224c       ??_R3bad_cast@std@@8       0046624c     GameOverState.obj
 0002:00012260       ??_R2bad_cast@std@@8       00466260     GameOverState.obj
 0002:0001226c       ??_R1A@?0A@EA@bad_cast@std@@8 0046626c     GameOverState.obj
 0002:00012290       ??_R4FilterPoints@@6B@     00466290     GameState.obj
 0002:000122a8       ??_R3FilterPoints@@8       004662a8     GameState.obj
 0002:000122bc       ??_R2FilterPoints@@8       004662bc     GameState.obj
 0002:000122c4       ??_R1A@?0A@EA@FilterPoints@@8 004662c4     GameState.obj
 0002:000122e8       ??_R4TileManager@@6B@      004662e8     GameState.obj
 0002:00012300       ??_R3TileManager@@8        00466300     GameState.obj
 0002:00012314       ??_R2TileManager@@8        00466314     GameState.obj
 0002:0001231c       ??_R1A@?0A@EA@TileManager@@8 0046631c     GameState.obj
 0002:00012340       ??_R4SelectionArea@@6B@    00466340     GameState.obj
 0002:00012358       ??_R3SelectionArea@@8      00466358     GameState.obj
 0002:0001236c       ??_R2SelectionArea@@8      0046636c     GameState.obj
 0002:00012378       ??_R1A@?0A@EA@SelectionArea@@8 00466378     GameState.obj
 0002:0001239c       ??_R4Scyyz12FilterPointsScaling@@6B@ 0046639c     GameState.obj
 0002:000123b4       ??_R3Scyyz12FilterPointsScaling@@8 004663b4     GameState.obj
 0002:000123c8       ??_R2Scyyz12FilterPointsScaling@@8 004663c8     GameState.obj
 0002:000123d4       ??_R1A@?0A@EA@Scyyz12FilterPointsScaling@@8 004663d4     GameState.obj
 0002:000123f8       ??_R4Scyyz12FilterPointsTranslation@@6B@ 004663f8     GameState.obj
 0002:00012410       ??_R3Scyyz12FilterPointsTranslation@@8 00466410     GameState.obj
 0002:00012424       ??_R2Scyyz12FilterPointsTranslation@@8 00466424     GameState.obj
 0002:00012430       ??_R1A@?0A@EA@Scyyz12FilterPointsTranslation@@8 00466430     GameState.obj
 0002:00012454       ??_R4RailLine@@6B@         00466454     InstructionState.obj
 0002:0001246c       ??_R3RailLine@@8           0046646c     InstructionState.obj
 0002:00012480       ??_R2RailLine@@8           00466480     InstructionState.obj
 0002:0001248c       ??_R1A@?0A@EA@RailLine@@8  0046648c     InstructionState.obj
 0002:000124b0       ??_R1A@?0A@EA@DisplayableObject@@8 004664b0     InstructionState.obj
 0002:000124d4       ??_R3DisplayableObject@@8  004664d4     InstructionState.obj
 0002:000124e8       ??_R2DisplayableObject@@8  004664e8     InstructionState.obj
 0002:000124f0       ??_R4RailLineDiagonal@@6B@ 004664f0     InstructionState.obj
 0002:00012508       ??_R3RailLineDiagonal@@8   00466508     InstructionState.obj
 0002:0001251c       ??_R2RailLineDiagonal@@8   0046651c     InstructionState.obj
 0002:00012528       ??_R1A@?0A@EA@RailLineDiagonal@@8 00466528     InstructionState.obj
 0002:0001254c       ??_R4Passenger@@6B@        0046654c     InstructionState.obj
 0002:00012564       ??_R3Passenger@@8          00466564     InstructionState.obj
 0002:00012578       ??_R2Passenger@@8          00466578     InstructionState.obj
 0002:00012584       ??_R1A@?0A@EA@Passenger@@8 00466584     InstructionState.obj
 0002:000125a8       ??_R4PassengerCircle@@6B@  004665a8     InstructionState.obj
 0002:000125c0       ??_R3PassengerCircle@@8    004665c0     InstructionState.obj
 0002:000125d4       ??_R2PassengerCircle@@8    004665d4     InstructionState.obj
 0002:000125e4       ??_R1A@?0A@EA@PassengerCircle@@8 004665e4     InstructionState.obj
 0002:00012608       ??_R4PassengerSquare@@6B@  00466608     InstructionState.obj
 0002:00012620       ??_R3PassengerSquare@@8    00466620     InstructionState.obj
 0002:00012634       ??_R2PassengerSquare@@8    00466634     InstructionState.obj
 0002:00012644       ??_R1A@?0A@EA@PassengerSquare@@8 00466644     InstructionState.obj
 0002:00012668       ??_R4PassengerDiamond@@6B@ 00466668     InstructionState.obj
 0002:00012680       ??_R3PassengerDiamond@@8   00466680     InstructionState.obj
 0002:00012694       ??_R2PassengerDiamond@@8   00466694     InstructionState.obj
 0002:000126a4       ??_R1A@?0A@EA@PassengerDiamond@@8 004666a4     InstructionState.obj
 0002:000126c8       ??_R4PassengerTriangle@@6B@ 004666c8     InstructionState.obj
 0002:000126e0       ??_R3PassengerTriangle@@8  004666e0     InstructionState.obj
 0002:000126f4       ??_R2PassengerTriangle@@8  004666f4     InstructionState.obj
 0002:00012704       ??_R1A@?0A@EA@PassengerTriangle@@8 00466704     InstructionState.obj
 0002:00012728       ??_R4PassengerInvTriangle@@6B@ 00466728     InstructionState.obj
 0002:00012740       ??_R3PassengerInvTriangle@@8 00466740     InstructionState.obj
 0002:00012754       ??_R2PassengerInvTriangle@@8 00466754     InstructionState.obj
 0002:00012764       ??_R1A@?0A@EA@PassengerInvTriangle@@8 00466764     InstructionState.obj
 0002:00012788       ??_R4PassengerFlower@@6B@  00466788     InstructionState.obj
 0002:000127a0       ??_R3PassengerFlower@@8    004667a0     InstructionState.obj
 0002:000127b4       ??_R2PassengerFlower@@8    004667b4     InstructionState.obj
 0002:000127c4       ??_R1A@?0A@EA@PassengerFlower@@8 004667c4     InstructionState.obj
 0002:000127e8       ??_R4Station@@6B@          004667e8     InstructionState.obj
 0002:00012800       ??_R3Station@@8            00466800     InstructionState.obj
 0002:00012814       ??_R2Station@@8            00466814     InstructionState.obj
 0002:00012820       ??_R1A@?0A@EA@Station@@8   00466820     InstructionState.obj
 0002:00012844       ??_R4StationCircle@@6B@    00466844     InstructionState.obj
 0002:0001285c       ??_R3StationCircle@@8      0046685c     InstructionState.obj
 0002:00012870       ??_R2StationCircle@@8      00466870     InstructionState.obj
 0002:00012880       ??_R1A@?0A@EA@StationCircle@@8 00466880     InstructionState.obj
 0002:000128a4       ??_R4StationSquare@@6B@    004668a4     InstructionState.obj
 0002:000128bc       ??_R3StationSquare@@8      004668bc     InstructionState.obj
 0002:000128d0       ??_R2StationSquare@@8      004668d0     InstructionState.obj
 0002:000128e0       ??_R1A@?0A@EA@StationSquare@@8 004668e0     InstructionState.obj
 0002:00012904       ??_R4StationDiamond@@6B@   00466904     InstructionState.obj
 0002:0001291c       ??_R3StationDiamond@@8     0046691c     InstructionState.obj
 0002:00012930       ??_R2StationDiamond@@8     00466930     InstructionState.obj
 0002:00012940       ??_R1A@?0A@EA@StationDiamond@@8 00466940     InstructionState.obj
 0002:00012964       ??_R4StationTriangle@@6B@  00466964     InstructionState.obj
 0002:0001297c       ??_R3StationTriangle@@8    0046697c     InstructionState.obj
 0002:00012990       ??_R2StationTriangle@@8    00466990     InstructionState.obj
 0002:000129a0       ??_R1A@?0A@EA@StationTriangle@@8 004669a0     InstructionState.obj
 0002:000129c4       ??_R4StationInvTriangle@@6B@ 004669c4     InstructionState.obj
 0002:000129dc       ??_R3StationInvTriangle@@8 004669dc     InstructionState.obj
 0002:000129f0       ??_R2StationInvTriangle@@8 004669f0     InstructionState.obj
 0002:00012a00       ??_R1A@?0A@EA@StationInvTriangle@@8 00466a00     InstructionState.obj
 0002:00012a24       ??_R4StationFlower@@6B@    00466a24     InstructionState.obj
 0002:00012a3c       ??_R3StationFlower@@8      00466a3c     InstructionState.obj
 0002:00012a50       ??_R2StationFlower@@8      00466a50     InstructionState.obj
 0002:00012a60       ??_R1A@?0A@EA@StationFlower@@8 00466a60     InstructionState.obj
 0002:00012a84       ??_R4Train@@6B@            00466a84     InstructionState.obj
 0002:00012a9c       ??_R3Train@@8              00466a9c     InstructionState.obj
 0002:00012ab0       ??_R2Train@@8              00466ab0     InstructionState.obj
 0002:00012ab8       ??_R1A@?0A@EA@Train@@8     00466ab8     InstructionState.obj
 0002:00012adc       ??_R4TrainNormal@@6B@      00466adc     InstructionState.obj
 0002:00012af4       ??_R3TrainNormal@@8        00466af4     InstructionState.obj
 0002:00012b08       ??_R2TrainNormal@@8        00466b08     InstructionState.obj
 0002:00012b14       ??_R1A@?0A@EA@TrainNormal@@8 00466b14     InstructionState.obj
 0002:00012b38       ??_R4TrainFast@@6B@        00466b38     InstructionState.obj
 0002:00012b50       ??_R3TrainFast@@8          00466b50     InstructionState.obj
 0002:00012b64       ??_R2TrainFast@@8          00466b64     InstructionState.obj
 0002:00012b70       ??_R1A@?0A@EA@TrainFast@@8 00466b70     InstructionState.obj
 0002:00012b94       ??_R4TrainIntelli@@6B@     00466b94     InstructionState.obj
 0002:00012bac       ??_R3TrainIntelli@@8       00466bac     InstructionState.obj
 0002:00012bc0       ??_R2TrainIntelli@@8       00466bc0     InstructionState.obj
 0002:00012bcc       ??_R1A@?0A@EA@TrainIntelli@@8 00466bcc     InstructionState.obj
 0002:00012bf0       ??_R4DragableBaseClassObject@@6B@ 00466bf0     DraggingDemo.obj
 0002:00012c08       ??_R3DragableBaseClassObject@@8 00466c08     DraggingDemo.obj
 0002:00012c1c       ??_R2DragableBaseClassObject@@8 00466c1c     DraggingDemo.obj
 0002:00012c28       ??_R1A@?0A@EA@DragableBaseClassObject@@8 00466c28     DraggingDemo.obj
 0002:00012c4c       ??_R4DragableObject@@6B@   00466c4c     DraggingDemo.obj
 0002:00012c64       ??_R3DragableObject@@8     00466c64     DraggingDemo.obj
 0002:00012c78       ??_R2DragableObject@@8     00466c78     DraggingDemo.obj
 0002:00012c88       ??_R1A@?0A@EA@DragableObject@@8 00466c88     DraggingDemo.obj
 0002:00012cac       ??_R4DragableImageObject@@6B@ 00466cac     DraggingDemo.obj
 0002:00012cc4       ??_R3DragableImageObject@@8 00466cc4     DraggingDemo.obj
 0002:00012cd8       ??_R2DragableImageObject@@8 00466cd8     DraggingDemo.obj
 0002:00012ce8       ??_R1A@?0A@EA@DragableImageObject@@8 00466ce8     DraggingDemo.obj
 0002:00012d0c       ??_R4ImageObject@@6B@      00466d0c     DraggingDemo.obj
 0002:00012d24       ??_R3ImageObject@@8        00466d24     DraggingDemo.obj
 0002:00012d38       ??_R2ImageObject@@8        00466d38     DraggingDemo.obj
 0002:00012d44       ??_R1A@?0A@EA@ImageObject@@8 00466d44     DraggingDemo.obj
 0002:00012d68       ??_R3DisplayableObjectContainer@@8 00466d68     FlashingDemo.obj
 0002:00012d7c       ??_R2DisplayableObjectContainer@@8 00466d7c     FlashingDemo.obj
 0002:00012d84       ??_R1A@?0A@EA@DisplayableObjectContainer@@8 00466d84     FlashingDemo.obj
 0002:00012da8       ??_R4FlashingDemo@@6BDisplayableObjectContainer@@@ 00466da8     FlashingDemo.obj
 0002:00012dc0       ??_R3FlashingDemo@@8       00466dc0     FlashingDemo.obj
 0002:00012dd4       ??_R2FlashingDemo@@8       00466dd4     FlashingDemo.obj
 0002:00012de8       ??_R1A@?0A@EA@FlashingDemo@@8 00466de8     FlashingDemo.obj
 0002:00012e0c       ??_R1A@?0A@EA@BaseEngine@@8 00466e0c     FlashingDemo.obj
 0002:00012e30       ??_R3BaseEngine@@8         00466e30     FlashingDemo.obj
 0002:00012e44       ??_R2BaseEngine@@8         00466e44     FlashingDemo.obj
 0002:00012e54       ??_R1BM@?0A@EA@FilterPoints@@8 00466e54     FlashingDemo.obj
 0002:00012e78       ??_R4FlashingDemo@@6BFilterPoints@@@ 00466e78     FlashingDemo.obj
 0002:00012e90       ??_R4MappableImageObject@@6B@ 00466e90     ImageMappingDemo.obj
 0002:00012ea8       ??_R3MappableImageObject@@8 00466ea8     ImageMappingDemo.obj
 0002:00012ebc       ??_R2MappableImageObject@@8 00466ebc     ImageMappingDemo.obj
 0002:00012ed0       ??_R1A@?0A@EA@MappableImageObject@@8 00466ed0     ImageMappingDemo.obj
 0002:00012ef4       ??_R4Scyyz12Engine2@@6BDisplayableObjectContainer@@@ 00466ef4     mainfunction.obj
 0002:00012f0c       ??_R3Scyyz12Engine2@@8     00466f0c     mainfunction.obj
 0002:00012f20       ??_R2Scyyz12Engine2@@8     00466f20     mainfunction.obj
 0002:00012f34       ??_R1A@?0A@EA@Scyyz12Engine2@@8 00466f34     mainfunction.obj
 0002:00012f58       ??_R4Scyyz12Engine2@@6BFilterPoints@@@ 00466f58     mainfunction.obj
 0002:00012f70       ??_R4State@@6B@            00466f70     mainfunction.obj
 0002:00012f88       ??_R3State@@8              00466f88     mainfunction.obj
 0002:00012f9c       ??_R2State@@8              00466f9c     mainfunction.obj
 0002:00012fa4       ??_R1A@?0A@EA@State@@8     00466fa4     mainfunction.obj
 0002:00012fc8       ??_R4ChooseLevelState@@6B@ 00466fc8     mainfunction.obj
 0002:00012fe0       ??_R3ChooseLevelState@@8   00466fe0     mainfunction.obj
 0002:00012ff4       ??_R2ChooseLevelState@@8   00466ff4     mainfunction.obj
 0002:00013000       ??_R1A@?0A@EA@ChooseLevelState@@8 00467000     mainfunction.obj
 0002:00013024       ??_R4GameOverState@@6B@    00467024     mainfunction.obj
 0002:0001303c       ??_R3GameOverState@@8      0046703c     mainfunction.obj
 0002:00013050       ??_R2GameOverState@@8      00467050     mainfunction.obj
 0002:0001305c       ??_R1A@?0A@EA@GameOverState@@8 0046705c     mainfunction.obj
 0002:00013080       ??_R4GameState@@6B@        00467080     mainfunction.obj
 0002:00013098       ??_R3GameState@@8          00467098     mainfunction.obj
 0002:000130ac       ??_R2GameState@@8          004670ac     mainfunction.obj
 0002:000130b8       ??_R1A@?0A@EA@GameState@@8 004670b8     mainfunction.obj
 0002:000130dc       ??_R4HighScoreState@@6B@   004670dc     mainfunction.obj
 0002:000130f4       ??_R3HighScoreState@@8     004670f4     mainfunction.obj
 0002:00013108       ??_R2HighScoreState@@8     00467108     mainfunction.obj
 0002:00013114       ??_R1A@?0A@EA@HighScoreState@@8 00467114     mainfunction.obj
 0002:00013138       ??_R4InstructionState@@6B@ 00467138     mainfunction.obj
 0002:00013150       ??_R3InstructionState@@8   00467150     mainfunction.obj
 0002:00013164       ??_R2InstructionState@@8   00467164     mainfunction.obj
 0002:00013170       ??_R1A@?0A@EA@InstructionState@@8 00467170     mainfunction.obj
 0002:00013194       ??_R4StartState@@6B@       00467194     mainfunction.obj
 0002:000131ac       ??_R3StartState@@8         004671ac     mainfunction.obj
 0002:000131c0       ??_R2StartState@@8         004671c0     mainfunction.obj
 0002:000131cc       ??_R1A@?0A@EA@StartState@@8 004671cc     mainfunction.obj
 0002:000131f0       ??_R4PauseState@@6B@       004671f0     mainfunction.obj
 0002:00013208       ??_R3PauseState@@8         00467208     mainfunction.obj
 0002:0001321c       ??_R2PauseState@@8         0046721c     mainfunction.obj
 0002:00013228       ??_R1A@?0A@EA@PauseState@@8 00467228     mainfunction.obj
 0002:0001324c       ??_R4BaseEngine@@6BDisplayableObjectContainer@@@ 0046724c     BaseEngine.obj
 0002:00013264       ??_R4BaseEngine@@6BFilterPoints@@@ 00467264     BaseEngine.obj
 0002:0001327c       ??_R4DisplayableObjectContainer@@6B@ 0046727c     BaseEngine.obj
 0002:00013294       ??_R4DisplayableObject@@6B@ 00467294     DisplayableObject.obj
 0002:000132ac       ??_R4Part1Object@@6B@      004672ac     Scyyz12Engine.obj
 0002:000132c4       ??_R3Part1Object@@8        004672c4     Scyyz12Engine.obj
 0002:000132d8       ??_R2Part1Object@@8        004672d8     Scyyz12Engine.obj
 0002:000132e4       ??_R1A@?0A@EA@Part1Object@@8 004672e4     Scyyz12Engine.obj
 0002:00013308       ??_R4Part1Object2@@6B@     00467308     Scyyz12Engine.obj
 0002:00013320       ??_R3Part1Object2@@8       00467320     Scyyz12Engine.obj
 0002:00013334       ??_R2Part1Object2@@8       00467334     Scyyz12Engine.obj
 0002:00013340       ??_R1A@?0A@EA@Part1Object2@@8 00467340     Scyyz12Engine.obj
 0002:00013364       ??_R4MyObjectB@@6B@        00467364     MyDemoA.obj
 0002:0001337c       ??_R3MyObjectB@@8          0046737c     MyDemoA.obj
 0002:00013390       ??_R2MyObjectB@@8          00467390     MyDemoA.obj
 0002:0001339c       ??_R1A@?0A@EA@MyObjectB@@8 0046739c     MyDemoA.obj
 0002:000133c0       ??_R4CroppedImagePixelMapping@@6B@ 004673c0     SimpleImage.obj
 0002:000133d8       ??_R3CroppedImagePixelMapping@@8 004673d8     SimpleImage.obj
 0002:000133ec       ??_R2CroppedImagePixelMapping@@8 004673ec     SimpleImage.obj
 0002:000133f8       ??_R1A@?0A@EA@CroppedImagePixelMapping@@8 004673f8     SimpleImage.obj
 0002:0001341c       ??_R4BouncingObject@@6B@   0046741c     SimpleDemo.obj
 0002:00013434       ??_R3BouncingObject@@8     00467434     SimpleDemo.obj
 0002:00013448       ??_R2BouncingObject@@8     00467448     SimpleDemo.obj
 0002:00013454       ??_R1A@?0A@EA@BouncingObject@@8 00467454     SimpleDemo.obj
 0002:00013478       ??_R4StarfieldDemo@@6BDisplayableObjectContainer@@@ 00467478     StarfieldDemo.obj
 0002:00013490       ??_R3StarfieldDemo@@8      00467490     StarfieldDemo.obj
 0002:000134a4       ??_R2StarfieldDemo@@8      004674a4     StarfieldDemo.obj
 0002:000134b8       ??_R1A@?0A@EA@StarfieldDemo@@8 004674b8     StarfieldDemo.obj
 0002:000134dc       ??_R4StarfieldDemo@@6BFilterPoints@@@ 004674dc     StarfieldDemo.obj
 0002:000134f4       ??_R4BouncingBall@@6B@     004674f4     BouncingBall.obj
 0002:0001350c       ??_R3BouncingBall@@8       0046750c     BouncingBall.obj
 0002:00013520       ??_R2BouncingBall@@8       00467520     BouncingBall.obj
 0002:0001352c       ??_R1A@?0A@EA@BouncingBall@@8 0046752c     BouncingBall.obj
 0002:00013550       ??_R4BouncingBall1@@6B@    00467550     BouncingBall.obj
 0002:00013568       ??_R3BouncingBall1@@8      00467568     BouncingBall.obj
 0002:0001357c       ??_R2BouncingBall1@@8      0046757c     BouncingBall.obj
 0002:0001358c       ??_R1A@?0A@EA@BouncingBall1@@8 0046758c     BouncingBall.obj
 0002:000135b0       ??_R4BouncingBall2@@6B@    004675b0     BouncingBall.obj
 0002:000135c8       ??_R3BouncingBall2@@8      004675c8     BouncingBall.obj
 0002:000135dc       ??_R2BouncingBall2@@8      004675dc     BouncingBall.obj
 0002:000135ec       ??_R1A@?0A@EA@BouncingBall2@@8 004675ec     BouncingBall.obj
 0002:00013610       ??_R4Carriage@@6B@         00467610     Train.obj
 0002:00013628       ??_R3Carriage@@8           00467628     Train.obj
 0002:0001363c       ??_R2Carriage@@8           0046763c     Train.obj
 0002:00013648       ??_R1A@?0A@EA@Carriage@@8  00467648     Train.obj
 0002:0001366c       ??_R4CarriageHead@@6B@     0046766c     Train.obj
 0002:00013684       ??_R3CarriageHead@@8       00467684     Train.obj
 0002:00013698       ??_R2CarriageHead@@8       00467698     Train.obj
 0002:000136a8       ??_R1A@?0A@EA@CarriageHead@@8 004676a8     Train.obj
 0002:000136cc       ??_R4CarriageMain@@6B@     004676cc     Train.obj
 0002:000136e4       ??_R3CarriageMain@@8       004676e4     Train.obj
 0002:000136f8       ??_R2CarriageMain@@8       004676f8     Train.obj
 0002:00013708       ??_R1A@?0A@EA@CarriageMain@@8 00467708     Train.obj
 0002:0001372c       ??_R4CarriageHeadFast@@6B@ 0046772c     Train.obj
 0002:00013744       ??_R3CarriageHeadFast@@8   00467744     Train.obj
 0002:00013758       ??_R2CarriageHeadFast@@8   00467758     Train.obj
 0002:00013768       ??_R1A@?0A@EA@CarriageHeadFast@@8 00467768     Train.obj
 0002:0001378c       ??_R4CarriageHeadIntelli@@6B@ 0046778c     Train.obj
 0002:000137a4       ??_R3CarriageHeadIntelli@@8 004677a4     Train.obj
 0002:000137b8       ??_R2CarriageHeadIntelli@@8 004677b8     Train.obj
 0002:000137c8       ??_R1A@?0A@EA@CarriageHeadIntelli@@8 004677c8     Train.obj
 0002:000137ec       ??_R4SimpleFlashingDragableImageObject@@6B@ 004677ec     ZoomingDemo.obj
 0002:00013804       ??_R3SimpleFlashingDragableImageObject@@8 00467804     ZoomingDemo.obj
 0002:00013818       ??_R2SimpleFlashingDragableImageObject@@8 00467818     ZoomingDemo.obj
 0002:00013824       ??_R1A@?0A@EA@SimpleFlashingDragableImageObject@@8 00467824     ZoomingDemo.obj
 0002:00013848       ??_R4MazeDemoMain@@6BDisplayableObjectContainer@@@ 00467848     MazeDemoMain.obj
 0002:00013860       ??_R3MazeDemoMain@@8       00467860     MazeDemoMain.obj
 0002:00013874       ??_R2MazeDemoMain@@8       00467874     MazeDemoMain.obj
 0002:00013888       ??_R1A@?0A@EA@MazeDemoMain@@8 00467888     MazeDemoMain.obj
 0002:000138ac       ??_R4MazeDemoMain@@6BFilterPoints@@@ 004678ac     MazeDemoMain.obj
 0002:000138c4       ??_R4MazeDemoTileManager@@6B@ 004678c4     MazeDemoMain.obj
 0002:000138dc       ??_R3MazeDemoTileManager@@8 004678dc     MazeDemoMain.obj
 0002:000138f0       ??_R2MazeDemoTileManager@@8 004678f0     MazeDemoMain.obj
 0002:000138fc       ??_R1A@?0A@EA@MazeDemoTileManager@@8 004678fc     MazeDemoMain.obj
 0002:00013920       ??_R4MazeDemoObject@@6B@   00467920     MazeDemoObject.obj
 0002:00013938       ??_R3MazeDemoObject@@8     00467938     MazeDemoObject.obj
 0002:0001394c       ??_R2MazeDemoObject@@8     0046794c     MazeDemoObject.obj
 0002:00013958       ??_R1A@?0A@EA@MazeDemoObject@@8 00467958     MazeDemoObject.obj
 0002:0001397c       ??_R4type_info@@6B@        0046797c     MSVCRTD:std_type_info_static.obj
 0002:00013994       ??_R3type_info@@8          00467994     MSVCRTD:std_type_info_static.obj
 0002:000139a8       ??_R2type_info@@8          004679a8     MSVCRTD:std_type_info_static.obj
 0002:000139b0       ??_R1A@?0A@EA@type_info@@8 004679b0     MSVCRTD:std_type_info_static.obj
 0002:00013b9c       ___safe_se_handler_table   00467b9c     <linker-defined>
 0002:000141f0       ___rtc_iaa                 004681f0     MSVCRTD:initsect.obj
 0002:000142f4       ___rtc_izz                 004682f4     MSVCRTD:initsect.obj
 0002:000143f8       ___rtc_taa                 004683f8     MSVCRTD:initsect.obj
 0002:000144fc       ___rtc_tzz                 004684fc     MSVCRTD:initsect.obj
 0002:00014d44       __TI3?AVbad_array_new_length@std@@ 00468d44     ChooseLevelState.obj
 0002:00014d58       __CTA3?AVbad_array_new_length@std@@ 00468d58     ChooseLevelState.obj
 0002:00014d6c       __CT??_R0?AVbad_array_new_length@std@@@8??0bad_array_new_length@std@@QAE@ABV01@@Z12 00468d6c     ChooseLevelState.obj
 0002:00014d8c       __CT??_R0?AVbad_alloc@std@@@8??0bad_alloc@std@@QAE@ABV01@@Z12 00468d8c     ChooseLevelState.obj
 0002:00014dac       __CT??_R0?AVexception@std@@@8??0exception@std@@QAE@ABV01@@Z12 00468dac     ChooseLevelState.obj
 0002:000155a0       __TI2?AVbad_cast@std@@     004695a0     GameOverState.obj
 0002:000155b4       __CTA2?AVbad_cast@std@@    004695b4     GameOverState.obj
 0002:000155c4       __CT??_R0?AVbad_cast@std@@@8??0bad_cast@std@@QAE@ABV01@@Z12 004695c4     GameOverState.obj
 0002:000175e8       __TI2?AVbad_alloc@std@@    0046b5e8     MSVCRTD:throw_bad_alloc.obj
 0002:000175fc       __CTA2?AVbad_alloc@std@@   0046b5fc     MSVCRTD:throw_bad_alloc.obj
 0003:00000008       ___security_cookie_complement 0046c008     MSVCRTD:gs_cookie.obj
 0003:0000000c       ___security_cookie         0046c00c     MSVCRTD:gs_cookie.obj
 0003:00000014       __fltused                  0046c014     MSVCRTD:fltused.obj
 0003:00000020       ___scrt_native_dllmain_reason 0046c020     MSVCRTD:utility.obj
 0003:00000024       ___scrt_default_matherr    0046c024     MSVCRTD:matherr.obj
 0003:00000028       ___isa_enabled             0046c028     MSVCRTD:cpu_disp.obj
 0003:0000002c       ___scrt_ucrt_dll_is_in_use 0046c02c     MSVCRTD:ucrt_stubs.obj
 0003:00000138       ??_R0?AVbad_array_new_length@std@@@8 0046c138     ChooseLevelState.obj
 0003:00000168       ??_R0?AVbad_alloc@std@@@8  0046c168     ChooseLevelState.obj
 0003:0000018c       ??_R0?AVexception@std@@@8  0046c18c     ChooseLevelState.obj
 0003:000001b0       ??_R0?AVbad_cast@std@@@8   0046c1b0     GameOverState.obj
 0003:000001d0       ??_R0?AVout_of_range@std@@@8 0046c1d0     Scyyz12Engine2.obj
 0003:000002fc       ??_R0?AV_Ref_count_base@std@@@8 0046c2fc     ChooseLevelState.obj
 0003:00000324       ??_R0?AVImagePixelMapping@@@8 0046c324     ChooseLevelState.obj
 0003:0000034c       ??_R0?AVImagePixelMappingRotate@@@8 0046c34c     ChooseLevelState.obj
 0003:0000037c       ??_R0?AVImagePixelMappingRotateAndColour@@@8 0046c37c     ChooseLevelState.obj
 0003:000003b4       ??_R0?AV?$_Ref_count@VRawImageData@@@std@@@8 0046c3b4     ChooseLevelState.obj
 0003:000003ec       ??_R0?AV?$basic_filebuf@DU?$char_traits@D@std@@@std@@@8 0046c3ec     GameOverState.obj
 0003:00000434       ??_R0?AV?$basic_streambuf@DU?$char_traits@D@std@@@std@@@8 0046c434     GameOverState.obj
 0003:0000047c       ??_R0?AV?$basic_ifstream@DU?$char_traits@D@std@@@std@@@8 0046c47c     GameOverState.obj
 0003:000004c4       ??_R0?AV?$basic_istream@DU?$char_traits@D@std@@@std@@@8 0046c4c4     GameOverState.obj
 0003:0000050c       ??_R0?AV?$basic_ios@DU?$char_traits@D@std@@@std@@@8 0046c50c     GameOverState.obj
 0003:0000054c       ??_R0?AVios_base@std@@@8   0046c54c     GameOverState.obj
 0003:0000056c       ??_R0?AV?$_Iosb@H@std@@@8  0046c56c     GameOverState.obj
 0003:00000590       ??_R0?AV?$basic_ofstream@DU?$char_traits@D@std@@@std@@@8 0046c590     GameOverState.obj
 0003:000005d8       ??_R0?AV?$basic_ostream@DU?$char_traits@D@std@@@std@@@8 0046c5d8     GameOverState.obj
 0003:00000620       ??_R0?AVFilterPoints@@@8   0046c620     GameState.obj
 0003:00000640       ??_R0?AVTileManager@@@8    0046c640     GameState.obj
 0003:00000660       ??_R0?AVSelectionArea@@@8  0046c660     GameState.obj
 0003:00000684       ??_R0?AVScyyz12FilterPointsScaling@@@8 0046c684     GameState.obj
 0003:000006b8       ??_R0?AVScyyz12FilterPointsTranslation@@@8 0046c6b8     GameState.obj
 0003:000006f0       ??_R0?AVRailLine@@@8       0046c6f0     InstructionState.obj
 0003:0000070c       ??_R0?AVDisplayableObject@@@8 0046c70c     InstructionState.obj
 0003:00000734       ??_R0?AVRailLineDiagonal@@@8 0046c734     InstructionState.obj
 0003:0000075c       ??_R0?AVPassenger@@@8      0046c75c     InstructionState.obj
 0003:00000778       ??_R0?AVPassengerCircle@@@8 0046c778     InstructionState.obj
 0003:0000079c       ??_R0?AVPassengerSquare@@@8 0046c79c     InstructionState.obj
 0003:000007c0       ??_R0?AVPassengerDiamond@@@8 0046c7c0     InstructionState.obj
 0003:000007e8       ??_R0?AVPassengerTriangle@@@8 0046c7e8     InstructionState.obj
 0003:00000810       ??_R0?AVPassengerInvTriangle@@@8 0046c810     InstructionState.obj
 0003:0000083c       ??_R0?AVPassengerFlower@@@8 0046c83c     InstructionState.obj
 0003:00000860       ??_R0?AVStation@@@8        0046c860     InstructionState.obj
 0003:0000087c       ??_R0?AVStationCircle@@@8  0046c87c     InstructionState.obj
 0003:000008a0       ??_R0?AVStationSquare@@@8  0046c8a0     InstructionState.obj
 0003:000008c4       ??_R0?AVStationDiamond@@@8 0046c8c4     InstructionState.obj
 0003:000008e8       ??_R0?AVStationTriangle@@@8 0046c8e8     InstructionState.obj
 0003:0000090c       ??_R0?AVStationInvTriangle@@@8 0046c90c     InstructionState.obj
 0003:00000934       ??_R0?AVStationFlower@@@8  0046c934     InstructionState.obj
 0003:00000958       ??_R0?AVTrain@@@8          0046c958     InstructionState.obj
 0003:00000970       ??_R0?AVTrainNormal@@@8    0046c970     InstructionState.obj
 0003:00000990       ??_R0?AVTrainFast@@@8      0046c990     InstructionState.obj
 0003:000009ac       ??_R0?AVTrainIntelli@@@8   0046c9ac     InstructionState.obj
 0003:000009cc       ??_R0?AVDragableBaseClassObject@@@8 0046c9cc     DraggingDemo.obj
 0003:000009fc       ??_R0?AVDragableObject@@@8 0046c9fc     DraggingDemo.obj
 0003:00000a20       ??_R0?AVDragableImageObject@@@8 0046ca20     DraggingDemo.obj
 0003:00000a48       ??_R0?AVImageObject@@@8    0046ca48     DraggingDemo.obj
 0003:00000a68       ??_R0?AVDisplayableObjectContainer@@@8 0046ca68     FlashingDemo.obj
 0003:00000a9c       ??_R0?AVFlashingDemo@@@8   0046ca9c     FlashingDemo.obj
 0003:00000abc       ??_R0?AVBaseEngine@@@8     0046cabc     FlashingDemo.obj
 0003:00000adc       ??_R0?AVMappableImageObject@@@8 0046cadc     ImageMappingDemo.obj
 0003:00000b04       ??_R0?AVScyyz12Engine2@@@8 0046cb04     mainfunction.obj
 0003:00000b28       ??_R0?AVState@@@8          0046cb28     mainfunction.obj
 0003:00000b40       ??_R0?AVChooseLevelState@@@8 0046cb40     mainfunction.obj
 0003:00000b68       ??_R0?AVGameOverState@@@8  0046cb68     mainfunction.obj
 0003:00000b8c       ??_R0?AVGameState@@@8      0046cb8c     mainfunction.obj
 0003:00000ba8       ??_R0?AVHighScoreState@@@8 0046cba8     mainfunction.obj
 0003:00000bcc       ??_R0?AVInstructionState@@@8 0046cbcc     mainfunction.obj
 0003:00000bf4       ??_R0?AVStartState@@@8     0046cbf4     mainfunction.obj
 0003:00000c14       ??_R0?AVPauseState@@@8     0046cc14     mainfunction.obj
 0003:00000c34       ??_R0?AVPart1Object@@@8    0046cc34     Scyyz12Engine.obj
 0003:00000c54       ??_R0?AVPart1Object2@@@8   0046cc54     Scyyz12Engine.obj
 0003:00000c74       ??_R0?AVMyObjectB@@@8      0046cc74     MyDemoA.obj
 0003:00000c90       ??_R0?AVCroppedImagePixelMapping@@@8 0046cc90     SimpleImage.obj
 0003:00000cc0       ??_R0?AVBouncingObject@@@8 0046ccc0     SimpleDemo.obj
 0003:00000ce4       ??_R0?AVStarfieldDemo@@@8  0046cce4     StarfieldDemo.obj
 0003:00000d08       ??_R0?AVBouncingBall@@@8   0046cd08     BouncingBall.obj
 0003:00000d28       ??_R0?AVBouncingBall1@@@8  0046cd28     BouncingBall.obj
 0003:00000d4c       ??_R0?AVBouncingBall2@@@8  0046cd4c     BouncingBall.obj
 0003:00000d70       ??_R0?AVCarriage@@@8       0046cd70     Train.obj
 0003:00000d8c       ??_R0?AVCarriageHead@@@8   0046cd8c     Train.obj
 0003:00000dac       ??_R0?AVCarriageMain@@@8   0046cdac     Train.obj
 0003:00000dcc       ??_R0?AVCarriageHeadFast@@@8 0046cdcc     Train.obj
 0003:00000df4       ??_R0?AVCarriageHeadIntelli@@@8 0046cdf4     Train.obj
 0003:00000e1c       ??_R0?AVSimpleFlashingDragableImageObject@@@8 0046ce1c     ZoomingDemo.obj
 0003:00000e58       ??_R0?AVMazeDemoMain@@@8   0046ce58     MazeDemoMain.obj
 0003:00000e78       ??_R0?AVMazeDemoTileManager@@@8 0046ce78     MazeDemoMain.obj
 0003:00000ea0       ??_R0?AVMazeDemoObject@@@8 0046cea0     MazeDemoObject.obj
 0003:00000ec4       ??_R0?AVtype_info@@@8      0046cec4     MSVCRTD:std_type_info_static.obj
 0003:00001018       ?_OptionsStorage@?1??__local_stdio_printf_options@@9@4_KA 0046d018     ChooseLevelState.obj
 0003:00001024       ?_Stinit@?1??_Init@?$basic_filebuf@DU?$char_traits@D@std@@@std@@IAEXPAU_iobuf@@W4_Initfl@23@@Z@4U_Mbstatet@@A 0046d024     GameOverState.obj
 0003:00001030       ?_Psave@?$_Facetptr@V?$codecvt@DDU_Mbstatet@@@std@@@std@@2PBVfacet@locale@2@B 0046d030     GameOverState.obj
 0003:00001034       ?g_pManager@ImageManager@@0PAV1@A 0046d034     SimpleImage.obj
 0003:00001040       ___scrt_current_native_startup_state 0046d040     MSVCRTD:utility.obj
 0003:00001044       ___scrt_native_startup_lock 0046d044     MSVCRTD:utility.obj
 0003:0000106c       ___castguard_check_failure_os_handled_fptr 0046d06c     MSVCRTD:guard_support.obj
 0003:00001070       ?__type_info_root_node@@3U__type_info_node@@A 0046d070     MSVCRTD:tncleanup.obj
 0003:00001080       ?_OptionsStorage@?1??__local_stdio_scanf_options@@9@4_KA 0046d080     MSVCRTD:default_local_stdio_options.obj
 0003:0000108c       ___scrt_debugger_hook_flag 0046d08c     MSVCRTD:utility_desktop.obj
 0003:0000144c       ___isa_available           0046d44c     MSVCRTD:cpu_disp.obj
 0003:00001450       ___favor                   0046d450     MSVCRTD:cpu_disp.obj
 0003:00001458       ___dyn_tls_dtor_callback   0046d458     <common>
 0003:00001464       ___dyn_tls_init_callback   0046d464     <common>
 0004:00000000       __imp__QueryPerformanceCounter@4 0046e000     kernel32:KERNEL32.dll
 0004:00000004       __imp__GetCurrentProcessId@0 0046e004     kernel32:KERNEL32.dll
 0004:00000008       __imp__GetCurrentThreadId@0 0046e008     kernel32:KERNEL32.dll
 0004:0000000c       __imp__GetSystemTimeAsFileTime@4 0046e00c     kernel32:KERNEL32.dll
 0004:00000010       __imp__InitializeSListHead@4 0046e010     kernel32:KERNEL32.dll
 0004:00000014       __imp__IsDebuggerPresent@0 0046e014     kernel32:KERNEL32.dll
 0004:00000018       __imp__UnhandledExceptionFilter@4 0046e018     kernel32:KERNEL32.dll
 0004:0000001c       __imp__SetUnhandledExceptionFilter@4 0046e01c     kernel32:KERNEL32.dll
 0004:00000020       __imp__GetStartupInfoW@4   0046e020     kernel32:KERNEL32.dll
 0004:00000024       __imp__IsProcessorFeaturePresent@4 0046e024     kernel32:KERNEL32.dll
 0004:00000028       __imp__GetCurrentProcess@0 0046e028     kernel32:KERNEL32.dll
 0004:0000002c       __imp__TerminateProcess@8  0046e02c     kernel32:KERNEL32.dll
 0004:00000030       __imp__GetCommandLineW@0   0046e030     kernel32:KERNEL32.dll
 0004:00000034       __imp__VirtualAlloc@16     0046e034     kernel32:KERNEL32.dll
 0004:00000038       __imp__GetModuleHandleW@4  0046e038     kernel32:KERNEL32.dll
 0004:0000003c       __imp__VirtualFree@12      0046e03c     kernel32:KERNEL32.dll
 0004:00000040       __imp__WideCharToMultiByte@32 0046e040     kernel32:KERNEL32.dll
 0004:00000044       \177KERNEL32_NULL_THUNK_DATA 0046e044     kernel32:KERNEL32.dll
 0004:0000007c       __imp_??0?$basic_ostream@DU?$char_traits@D@std@@@std@@QAE@PAV?$basic_streambuf@DU?$char_traits@D@std@@@1@_N@Z 0046e07c     msvcprtd:MSVCP140D.dll
 0004:00000080       __imp_??0?$basic_ios@DU?$char_traits@D@std@@@std@@IAE@XZ 0046e080     msvcprtd:MSVCP140D.dll
 0004:00000084       __imp_??1?$basic_ostream@DU?$char_traits@D@std@@@std@@UAE@XZ 0046e084     msvcprtd:MSVCP140D.dll
 0004:00000088       __imp_??0?$basic_istream@DU?$char_traits@D@std@@@std@@QAE@PAV?$basic_streambuf@DU?$char_traits@D@std@@@1@_N@Z 0046e088     msvcprtd:MSVCP140D.dll
 0004:0000008c       __imp_??1?$basic_istream@DU?$char_traits@D@std@@@std@@UAE@XZ 0046e08c     msvcprtd:MSVCP140D.dll
 0004:00000090       __imp_?_Ipfx@?$basic_istream@DU?$char_traits@D@std@@@std@@QAE_N_N@Z 0046e090     msvcprtd:MSVCP140D.dll
 0004:00000094       __imp_?showmanyc@?$basic_streambuf@DU?$char_traits@D@std@@@std@@MAE_JXZ 0046e094     msvcprtd:MSVCP140D.dll
 0004:00000098       __imp_?id@?$codecvt@DDU_Mbstatet@@@std@@2V0locale@2@A 0046e098     msvcprtd:MSVCP140D.dll
 0004:0000009c       __imp_??6?$basic_ostream@DU?$char_traits@D@std@@@std@@QAEAAV01@H@Z 0046e09c     msvcprtd:MSVCP140D.dll
 0004:000000a0       __imp_?_Xbad_alloc@std@@YAXXZ 0046e0a0     msvcprtd:MSVCP140D.dll
 0004:000000a4       __imp_?_Fiopen@std@@YAPAU_iobuf@@PBDHH@Z 0046e0a4     msvcprtd:MSVCP140D.dll
 0004:000000a8       __imp_??0_Lockit@std@@QAE@H@Z 0046e0a8     msvcprtd:MSVCP140D.dll
 0004:000000ac       __imp_??1_Lockit@std@@QAE@XZ 0046e0ac     msvcprtd:MSVCP140D.dll
 0004:000000b0       __imp_?_Xlength_error@std@@YAXPBD@Z 0046e0b0     msvcprtd:MSVCP140D.dll
 0004:000000b4       __imp_?uncaught_exception@std@@YA_NXZ 0046e0b4     msvcprtd:MSVCP140D.dll
 0004:000000b8       __imp_?good@ios_base@std@@QBE_NXZ 0046e0b8     msvcprtd:MSVCP140D.dll
 0004:000000bc       __imp_?flags@ios_base@std@@QBEHXZ 0046e0bc     msvcprtd:MSVCP140D.dll
 0004:000000c0       __imp_?width@ios_base@std@@QBE_JXZ 0046e0c0     msvcprtd:MSVCP140D.dll
 0004:000000c4       __imp_?width@ios_base@std@@QAE_J_J@Z 0046e0c4     msvcprtd:MSVCP140D.dll
 0004:000000c8       __imp_?sputc@?$basic_streambuf@DU?$char_traits@D@std@@@std@@QAEHD@Z 0046e0c8     msvcprtd:MSVCP140D.dll
 0004:000000cc       __imp_?sputn@?$basic_streambuf@DU?$char_traits@D@std@@@std@@QAE_JPBD_J@Z 0046e0cc     msvcprtd:MSVCP140D.dll
 0004:000000d0       __imp_?setstate@?$basic_ios@DU?$char_traits@D@std@@@std@@QAEXH_N@Z 0046e0d0     msvcprtd:MSVCP140D.dll
 0004:000000d4       __imp_?tie@?$basic_ios@DU?$char_traits@D@std@@@std@@QBEPAV?$basic_ostream@DU?$char_traits@D@std@@@2@XZ 0046e0d4     msvcprtd:MSVCP140D.dll
 0004:000000d8       __imp_?rdbuf@?$basic_ios@DU?$char_traits@D@std@@@std@@QBEPAV?$basic_streambuf@DU?$char_traits@D@std@@@2@XZ 0046e0d8     msvcprtd:MSVCP140D.dll
 0004:000000dc       __imp_?fill@?$basic_ios@DU?$char_traits@D@std@@@std@@QBEDXZ 0046e0dc     msvcprtd:MSVCP140D.dll
 0004:000000e0       __imp_?widen@?$basic_ios@DU?$char_traits@D@std@@@std@@QBEDD@Z 0046e0e0     msvcprtd:MSVCP140D.dll
 0004:000000e4       __imp_?_Osfx@?$basic_ostream@DU?$char_traits@D@std@@@std@@QAEXXZ 0046e0e4     msvcprtd:MSVCP140D.dll
 0004:000000e8       __imp_??6?$basic_ostream@DU?$char_traits@D@std@@@std@@QAEAAV01@P6AAAV01@AAV01@@Z@Z 0046e0e8     msvcprtd:MSVCP140D.dll
 0004:000000ec       __imp_?put@?$basic_ostream@DU?$char_traits@D@std@@@std@@QAEAAV12@D@Z 0046e0ec     msvcprtd:MSVCP140D.dll
 0004:000000f0       __imp_?flush@?$basic_ostream@DU?$char_traits@D@std@@@std@@QAEAAV12@XZ 0046e0f0     msvcprtd:MSVCP140D.dll
 0004:000000f4       __imp_?cout@std@@3V?$basic_ostream@DU?$char_traits@D@std@@@1@A 0046e0f4     msvcprtd:MSVCP140D.dll
 0004:000000f8       __imp_?_Xinvalid_argument@std@@YAXPBD@Z 0046e0f8     msvcprtd:MSVCP140D.dll
 0004:000000fc       __imp_?_Xout_of_range@std@@YAXPBD@Z 0046e0fc     msvcprtd:MSVCP140D.dll
 0004:00000100       __imp_??Bid@locale@std@@QAEIXZ 0046e100     msvcprtd:MSVCP140D.dll
 0004:00000104       __imp_?_Getgloballocale@locale@std@@CAPAV_Locimp@12@XZ 0046e104     msvcprtd:MSVCP140D.dll
 0004:00000108       __imp_?always_noconv@codecvt_base@std@@QBE_NXZ 0046e108     msvcprtd:MSVCP140D.dll
 0004:0000010c       __imp_?in@?$codecvt@DDU_Mbstatet@@@std@@QBEHAAU_Mbstatet@@PBD1AAPBDPAD3AAPAD@Z 0046e10c     msvcprtd:MSVCP140D.dll
 0004:00000110       __imp_?out@?$codecvt@DDU_Mbstatet@@@std@@QBEHAAU_Mbstatet@@PBD1AAPBDPAD3AAPAD@Z 0046e110     msvcprtd:MSVCP140D.dll
 0004:00000114       __imp_?unshift@?$codecvt@DDU_Mbstatet@@@std@@QBEHAAU_Mbstatet@@PAD1AAPAD@Z 0046e114     msvcprtd:MSVCP140D.dll
 0004:00000118       __imp_?_Getcat@?$codecvt@DDU_Mbstatet@@@std@@SAIPAPBVfacet@locale@2@PBV42@@Z 0046e118     msvcprtd:MSVCP140D.dll
 0004:0000011c       __imp_??Bios_base@std@@QBE_NXZ 0046e11c     msvcprtd:MSVCP140D.dll
 0004:00000120       __imp_??0?$basic_streambuf@DU?$char_traits@D@std@@@std@@IAE@XZ 0046e120     msvcprtd:MSVCP140D.dll
 0004:00000124       __imp_??1?$basic_streambuf@DU?$char_traits@D@std@@@std@@UAE@XZ 0046e124     msvcprtd:MSVCP140D.dll
 0004:00000128       __imp_?getloc@?$basic_streambuf@DU?$char_traits@D@std@@@std@@QBE?AVlocale@2@XZ 0046e128     msvcprtd:MSVCP140D.dll
 0004:0000012c       __imp_?sbumpc@?$basic_streambuf@DU?$char_traits@D@std@@@std@@QAEHXZ 0046e12c     msvcprtd:MSVCP140D.dll
 0004:00000130       __imp_?sgetc@?$basic_streambuf@DU?$char_traits@D@std@@@std@@QAEHXZ 0046e130     msvcprtd:MSVCP140D.dll
 0004:00000134       __imp_?snextc@?$basic_streambuf@DU?$char_traits@D@std@@@std@@QAEHXZ 0046e134     msvcprtd:MSVCP140D.dll
 0004:00000138       __imp_?eback@?$basic_streambuf@DU?$char_traits@D@std@@@std@@IBEPADXZ 0046e138     msvcprtd:MSVCP140D.dll
 0004:0000013c       __imp_?gptr@?$basic_streambuf@DU?$char_traits@D@std@@@std@@IBEPADXZ 0046e13c     msvcprtd:MSVCP140D.dll
 0004:00000140       __imp_?pptr@?$basic_streambuf@DU?$char_traits@D@std@@@std@@IBEPADXZ 0046e140     msvcprtd:MSVCP140D.dll
 0004:00000144       __imp_?egptr@?$basic_streambuf@DU?$char_traits@D@std@@@std@@IBEPADXZ 0046e144     msvcprtd:MSVCP140D.dll
 0004:00000148       __imp_?gbump@?$basic_streambuf@DU?$char_traits@D@std@@@std@@IAEXH@Z 0046e148     msvcprtd:MSVCP140D.dll
 0004:0000014c       __imp_?setg@?$basic_streambuf@DU?$char_traits@D@std@@@std@@IAEXPAD00@Z 0046e14c     msvcprtd:MSVCP140D.dll
 0004:00000150       __imp_?epptr@?$basic_streambuf@DU?$char_traits@D@std@@@std@@IBEPADXZ 0046e150     msvcprtd:MSVCP140D.dll
 0004:00000154       __imp_?_Gndec@?$basic_streambuf@DU?$char_traits@D@std@@@std@@IAEPADXZ 0046e154     msvcprtd:MSVCP140D.dll
 0004:00000158       __imp_?_Gninc@?$basic_streambuf@DU?$char_traits@D@std@@@std@@IAEPADXZ 0046e158     msvcprtd:MSVCP140D.dll
 0004:0000015c       __imp_?_Gnavail@?$basic_streambuf@DU?$char_traits@D@std@@@std@@IBE_JXZ 0046e15c     msvcprtd:MSVCP140D.dll
 0004:00000160       __imp_?pbump@?$basic_streambuf@DU?$char_traits@D@std@@@std@@IAEXH@Z 0046e160     msvcprtd:MSVCP140D.dll
 0004:00000164       __imp_?_Pninc@?$basic_streambuf@DU?$char_traits@D@std@@@std@@IAEPADXZ 0046e164     msvcprtd:MSVCP140D.dll
 0004:00000168       __imp_?_Pnavail@?$basic_streambuf@DU?$char_traits@D@std@@@std@@IBE_JXZ 0046e168     msvcprtd:MSVCP140D.dll
 0004:0000016c       __imp_?_Init@?$basic_streambuf@DU?$char_traits@D@std@@@std@@IAEXXZ 0046e16c     msvcprtd:MSVCP140D.dll
 0004:00000170       __imp_?_Init@?$basic_streambuf@DU?$char_traits@D@std@@@std@@IAEXPAPAD0PAH001@Z 0046e170     msvcprtd:MSVCP140D.dll
 0004:00000174       __imp_?xsgetn@?$basic_streambuf@DU?$char_traits@D@std@@@std@@MAE_JPAD_J@Z 0046e174     msvcprtd:MSVCP140D.dll
 0004:00000178       __imp_?xsputn@?$basic_streambuf@DU?$char_traits@D@std@@@std@@MAE_JPBD_J@Z 0046e178     msvcprtd:MSVCP140D.dll
 0004:0000017c       __imp_??1?$basic_ios@DU?$char_traits@D@std@@@std@@UAE@XZ 0046e17c     msvcprtd:MSVCP140D.dll
 0004:00000180       \177MSVCP140D_NULL_THUNK_DATA 0046e180     msvcprtd:MSVCP140D.dll
 0004:000001e0       __imp__SDL_UpperBlitScaled 0046e1e0     SDL2:SDL2.dll
 0004:000001e4       __imp__SDL_SetClipRect     0046e1e4     SDL2:SDL2.dll
 0004:000001e8       __imp__SDL_Quit            0046e1e8     SDL2:SDL2.dll
 0004:000001ec       __imp__SDL_Init            0046e1ec     SDL2:SDL2.dll
 0004:000001f0       __imp__SDL_GetTicks        0046e1f0     SDL2:SDL2.dll
 0004:000001f4       __imp__SDL_RenderPresent   0046e1f4     SDL2:SDL2.dll
 0004:000001f8       __imp__SDL_RenderCopy      0046e1f8     SDL2:SDL2.dll
 0004:000001fc       __imp__SDL_UpdateTexture   0046e1fc     SDL2:SDL2.dll
 0004:00000200       __imp__SDL_CreateTexture   0046e200     SDL2:SDL2.dll
 0004:00000204       __imp__SDL_CreateRenderer  0046e204     SDL2:SDL2.dll
 0004:00000208       __imp__SDL_SetMainReady    0046e208     SDL2:SDL2.dll
 0004:0000020c       __imp__SDL_WaitEvent       0046e20c     SDL2:SDL2.dll
 0004:00000210       __imp__SDL_PollEvent       0046e210     SDL2:SDL2.dll
 0004:00000214       __imp__SDL_CreateWindow    0046e214     SDL2:SDL2.dll
 0004:00000218       __imp__SDL_ShowSimpleMessageBox 0046e218     SDL2:SDL2.dll
 0004:0000021c       __imp__SDL_GetError        0046e21c     SDL2:SDL2.dll
 0004:00000220       __imp__SDL_FillRect        0046e220     SDL2:SDL2.dll
 0004:00000224       __imp__SDL_UnlockSurface   0046e224     SDL2:SDL2.dll
 0004:00000228       __imp__SDL_LockSurface     0046e228     SDL2:SDL2.dll
 0004:0000022c       __imp__SDL_UpperBlit       0046e22c     SDL2:SDL2.dll
 0004:00000230       __imp__SDL_FreeSurface     0046e230     SDL2:SDL2.dll
 0004:00000234       __imp__SDL_CreateRGBSurface 0046e234     SDL2:SDL2.dll
 0004:00000238       \177SDL2_NULL_THUNK_DATA   0046e238     SDL2:SDL2.dll
 0004:00000274       __imp__IMG_Load            0046e274     SDL2_image:SDL2_image.dll
 0004:00000278       \177SDL2_image_NULL_THUNK_DATA 0046e278     SDL2_image:SDL2_image.dll
 0004:000002a4       __imp__TTF_CloseFont       0046e2a4     SDL2_ttf:SDL2_ttf.dll
 0004:000002a8       __imp__TTF_RenderText_Solid 0046e2a8     SDL2_ttf:SDL2_ttf.dll
 0004:000002ac       __imp__TTF_Quit            0046e2ac     SDL2_ttf:SDL2_ttf.dll
 0004:000002b0       __imp__TTF_Init            0046e2b0     SDL2_ttf:SDL2_ttf.dll
 0004:000002b4       __imp__TTF_OpenFont        0046e2b4     SDL2_ttf:SDL2_ttf.dll
 0004:000002b8       \177SDL2_ttf_NULL_THUNK_DATA 0046e2b8     SDL2_ttf:SDL2_ttf.dll
 0004:000002e8       __imp____current_exception_context 0046e2e8     vcruntimed:VCRUNTIME140D.dll
 0004:000002ec       __imp___except_handler4_common 0046e2ec     vcruntimed:VCRUNTIME140D.dll
 0004:000002f0       __imp___purecall           0046e2f0     vcruntimed:VCRUNTIME140D.dll
 0004:000002f4       __imp__memcmp              0046e2f4     vcruntimed:VCRUNTIME140D.dll
 0004:000002f8       __imp__memcpy              0046e2f8     vcruntimed:VCRUNTIME140D.dll
 0004:000002fc       __imp____std_exception_copy 0046e2fc     vcruntimed:VCRUNTIME140D.dll
 0004:00000300       __imp____std_exception_destroy 0046e300     vcruntimed:VCRUNTIME140D.dll
 0004:00000304       __imp___CxxThrowException@8 0046e304     vcruntimed:VCRUNTIME140D.dll
 0004:00000308       __imp____CxxFrameHandler3  0046e308     vcruntimed:VCRUNTIME140D.dll
 0004:0000030c       __imp__memset              0046e30c     vcruntimed:VCRUNTIME140D.dll
 0004:00000310       __imp____std_type_info_destroy_list 0046e310     vcruntimed:VCRUNTIME140D.dll
 0004:00000314       __imp____current_exception 0046e314     vcruntimed:VCRUNTIME140D.dll
 0004:00000318       __imp__memmove             0046e318     vcruntimed:VCRUNTIME140D.dll
 0004:0000031c       \177VCRUNTIME140D_NULL_THUNK_DATA 0046e31c     vcruntimed:VCRUNTIME140D.dll
 0004:00000350       __imp__fwrite              0046e350     ucrtd:ucrtbased.dll
 0004:00000354       __imp__setvbuf             0046e354     ucrtd:ucrtbased.dll
 0004:00000358       __imp__ungetc              0046e358     ucrtd:ucrtbased.dll
 0004:0000035c       __imp___lock_file          0046e35c     ucrtd:ucrtbased.dll
 0004:00000360       __imp___unlock_file        0046e360     ucrtd:ucrtbased.dll
 0004:00000364       __imp____stdio_common_vsprintf 0046e364     ucrtd:ucrtbased.dll
 0004:00000368       __imp__rand                0046e368     ucrtd:ucrtbased.dll
 0004:0000036c       __imp___CrtDumpMemoryLeaks 0046e36c     ucrtd:ucrtbased.dll
 0004:00000370       __imp__ceil                0046e370     ucrtd:ucrtbased.dll
 0004:00000374       __imp__srand               0046e374     ucrtd:ucrtbased.dll
 0004:00000378       __imp___time64             0046e378     ucrtd:ucrtbased.dll
 0004:0000037c       __imp__puts                0046e37c     ucrtd:ucrtbased.dll
 0004:00000380       __imp__strcmp              0046e380     ucrtd:ucrtbased.dll
 0004:00000384       __imp__strcpy              0046e384     ucrtd:ucrtbased.dll
 0004:00000388       __imp___free_dbg           0046e388     ucrtd:ucrtbased.dll
 0004:0000038c       __imp___malloc_dbg         0046e38c     ucrtd:ucrtbased.dll
 0004:00000390       __imp___seh_filter_exe     0046e390     ucrtd:ucrtbased.dll
 0004:00000394       __imp___set_app_type       0046e394     ucrtd:ucrtbased.dll
 0004:00000398       __imp____setusermatherr    0046e398     ucrtd:ucrtbased.dll
 0004:0000039c       __imp___configure_narrow_argv 0046e39c     ucrtd:ucrtbased.dll
 0004:000003a0       __imp___initialize_narrow_environment 0046e3a0     ucrtd:ucrtbased.dll
 0004:000003a4       __imp___get_initial_narrow_environment 0046e3a4     ucrtd:ucrtbased.dll
 0004:000003a8       __imp__fsetpos             0046e3a8     ucrtd:ucrtbased.dll
 0004:000003ac       __imp___initterm_e         0046e3ac     ucrtd:ucrtbased.dll
 0004:000003b0       __imp__exit                0046e3b0     ucrtd:ucrtbased.dll
 0004:000003b4       __imp___exit               0046e3b4     ucrtd:ucrtbased.dll
 0004:000003b8       __imp___set_fmode          0046e3b8     ucrtd:ucrtbased.dll
 0004:000003bc       __imp____p___argc          0046e3bc     ucrtd:ucrtbased.dll
 0004:000003c0       __imp____p___argv          0046e3c0     ucrtd:ucrtbased.dll
 0004:000003c4       __imp___cexit              0046e3c4     ucrtd:ucrtbased.dll
 0004:000003c8       __imp___c_exit             0046e3c8     ucrtd:ucrtbased.dll
 0004:000003cc       __imp___register_thread_local_exe_atexit_callback 0046e3cc     ucrtd:ucrtbased.dll
 0004:000003d0       __imp___configthreadlocale 0046e3d0     ucrtd:ucrtbased.dll
 0004:000003d4       __imp___set_new_mode       0046e3d4     ucrtd:ucrtbased.dll
 0004:000003d8       __imp____p__commode        0046e3d8     ucrtd:ucrtbased.dll
 0004:000003dc       __imp___callnewh           0046e3dc     ucrtd:ucrtbased.dll
 0004:000003e0       __imp__malloc              0046e3e0     ucrtd:ucrtbased.dll
 0004:000003e4       __imp___except1            0046e3e4     ucrtd:ucrtbased.dll
 0004:000003e8       __imp___seh_filter_dll     0046e3e8     ucrtd:ucrtbased.dll
 0004:000003ec       __imp___initialize_onexit_table 0046e3ec     ucrtd:ucrtbased.dll
 0004:000003f0       __imp___register_onexit_function 0046e3f0     ucrtd:ucrtbased.dll
 0004:000003f4       __imp___execute_onexit_table 0046e3f4     ucrtd:ucrtbased.dll
 0004:000003f8       __imp___crt_atexit         0046e3f8     ucrtd:ucrtbased.dll
 0004:000003fc       __imp___crt_at_quick_exit  0046e3fc     ucrtd:ucrtbased.dll
 0004:00000400       __imp___controlfp_s        0046e400     ucrtd:ucrtbased.dll
 0004:00000404       __imp__terminate           0046e404     ucrtd:ucrtbased.dll
 0004:00000408       __imp___fseeki64           0046e408     ucrtd:ucrtbased.dll
 0004:0000040c       __imp__fread               0046e40c     ucrtd:ucrtbased.dll
 0004:00000410       __imp__fputc               0046e410     ucrtd:ucrtbased.dll
 0004:00000414       __imp__fgetpos             0046e414     ucrtd:ucrtbased.dll
 0004:00000418       __imp__fgetc               0046e418     ucrtd:ucrtbased.dll
 0004:0000041c       __imp__fflush              0046e41c     ucrtd:ucrtbased.dll
 0004:00000420       __imp__fclose              0046e420     ucrtd:ucrtbased.dll
 0004:00000424       __imp___get_stream_buffer_pointers 0046e424     ucrtd:ucrtbased.dll
 0004:00000428       __imp__strtol              0046e428     ucrtd:ucrtbased.dll
 0004:0000042c       __imp___errno              0046e42c     ucrtd:ucrtbased.dll
 0004:00000430       __imp__strlen              0046e430     ucrtd:ucrtbased.dll
 0004:00000434       __imp____stdio_common_vfprintf 0046e434     ucrtd:ucrtbased.dll
 0004:00000438       __imp____acrt_iob_func     0046e438     ucrtd:ucrtbased.dll
 0004:0000043c       __imp__sqrt                0046e43c     ucrtd:ucrtbased.dll
 0004:00000440       __imp__sin                 0046e440     ucrtd:ucrtbased.dll
 0004:00000444       __imp__cos                 0046e444     ucrtd:ucrtbased.dll
 0004:00000448       __imp__atan                0046e448     ucrtd:ucrtbased.dll
 0004:0000044c       __imp___CrtDbgReport       0046e44c     ucrtd:ucrtbased.dll
 0004:00000450       __imp___invalid_parameter  0046e450     ucrtd:ucrtbased.dll
 0004:00000454       __imp___initterm           0046e454     ucrtd:ucrtbased.dll
 0004:00000458       \177ucrtbased_NULL_THUNK_DATA 0046e458     ucrtd:ucrtbased.dll
 0004:000004b8       __IMPORT_DESCRIPTOR_SDL2   0046e4b8     SDL2:SDL2.dll
 0004:000004cc       __IMPORT_DESCRIPTOR_SDL2_image 0046e4cc     SDL2_image:SDL2_image.dll
 0004:000004e0       __IMPORT_DESCRIPTOR_SDL2_ttf 0046e4e0     SDL2_ttf:SDL2_ttf.dll
 0004:000004f4       __IMPORT_DESCRIPTOR_MSVCP140D 0046e4f4     msvcprtd:MSVCP140D.dll
 0004:00000508       __IMPORT_DESCRIPTOR_VCRUNTIME140D 0046e508     vcruntimed:VCRUNTIME140D.dll
 0004:0000051c       __IMPORT_DESCRIPTOR_ucrtbased 0046e51c     ucrtd:ucrtbased.dll
 0004:00000530       __IMPORT_DESCRIPTOR_KERNEL32 0046e530     kernel32:KERNEL32.dll
 0004:00000544       __NULL_IMPORT_DESCRIPTOR   0046e544     SDL2:SDL2.dll
 0005:00000000       ___guard_check_icall_fptr  00471000     MSVCRTD:guard_support.obj
 0005:00000004       ___guard_xfg_check_icall_fptr 00471004     MSVCRTD:guard_support.obj

 entry point at        0001:000000be

 Static symbols

 0002:fffac000       __ehfuncinfo$??$_Deallocate@$07$0A@@std@@YAXPAXI@Z 00400000     BaseEngine.obj
 0002:fffac000       __ehfuncinfo$??$_Deallocate_plain@V?$allocator@U_Container_proxy@std@@@std@@@std@@YAXAAV?$allocator@U_Container_proxy@std@@@0@QAU_Container_proxy@0@@Z 00400000     BaseEngine.obj
 0001:fffff000       __ehhandler$??$_Deallocate@$07$0A@@std@@YAXPAXI@Z 00400000 f   BaseEngine.obj
 0001:fffff000       __ehhandler$??$_Deallocate_plain@V?$allocator@U_Container_proxy@std@@@std@@@std@@YAXAAV?$allocator@U_Container_proxy@std@@@0@QAU_Container_proxy@0@@Z 00400000 f   BaseEngine.obj
 0001:fffff000       __unwindfunclet$??$_Uninitialized_value_construct_n@V?$allocator@PAVDisplayableObject@@@std@@@std@@YAPAPAVDisplayableObject@@PAPAV1@IAAV?$allocator@PAVDisplayableObject@@@0@@Z$0 00400000 f   BaseEngine.obj
 0002:fffac000       __unwindtable$??$_Uninitialized_value_construct_n@V?$allocator@PAVDisplayableObject@@@std@@@std@@YAPAPAVDisplayableObject@@PAPAV1@IAAV?$allocator@PAVDisplayableObject@@@0@@Z 00400000     BaseEngine.obj
 0000:fff8f000       _volmd                     00400000     BaseEngine.obj
 0000:fff8f000       _volmd                     00400000     BaseEngine.obj
 0000:fff8f000       _volmd                     00400000     BaseEngine.obj
 0000:fff8f000       _volmd                     00400000     BaseEngine.obj
 0000:fff8f000       _volmd                     00400000     BaseEngine.obj
 0000:fff8f000       _volmd                     00400000     BaseEngine.obj
 0000:fff8f000       _volmd                     00400000     BaseEngine.obj
 0000:fff8f000       _volmd                     00400000     BaseEngine.obj
 0000:fff8f000       _volmd                     00400000     BaseEngine.obj
 0000:fff8f000       _volmd                     00400000     BaseEngine.obj
 0000:fff8f000       _volmd                     00400000     BaseEngine.obj
 0000:fff8f000       _volmd                     00400000     BaseEngine.obj
 0000:fff8f000       _volmd                     00400000     BaseEngine.obj
 0002:fffac000       __catchsym$??$?6U?$char_traits@D@std@@@std@@YAAAV?$basic_ostream@DU?$char_traits@D@std@@@0@AAV10@PBD@Z$3 00400000     BouncingBall.obj
 0002:fffac000       __ehfuncinfo$??1_Sentry_base@?$basic_ostream@DU?$char_traits@D@std@@@std@@QAE@XZ 00400000     BouncingBall.obj
 0002:fffac000       __ehfuncinfo$??1sentry@?$basic_ostream@DU?$char_traits@D@std@@@std@@QAE@XZ 00400000     BouncingBall.obj
 0001:fffff000       __ehhandler$??1_Sentry_base@?$basic_ostream@DU?$char_traits@D@std@@@std@@QAE@XZ 00400000 f   BouncingBall.obj
 0001:fffff000       __ehhandler$??1sentry@?$basic_ostream@DU?$char_traits@D@std@@@std@@QAE@XZ 00400000 f   BouncingBall.obj
 0001:fffff000       __unwindfunclet$??$?6U?$char_traits@D@std@@@std@@YAAAV?$basic_ostream@DU?$char_traits@D@std@@@0@AAV10@PBD@Z$2 00400000 f   BouncingBall.obj
 0001:fffff000       __unwindfunclet$??0sentry@?$basic_ostream@DU?$char_traits@D@std@@@std@@QAE@AAV12@@Z$0 00400000 f   BouncingBall.obj
 0002:fffac000       __unwindtable$??0sentry@?$basic_ostream@DU?$char_traits@D@std@@@std@@QAE@AAV12@@Z 00400000     BouncingBall.obj
 0000:fff8f000       _volmd                     00400000     BouncingBall.obj
 0000:fff8f000       _volmd                     00400000     BouncingBall.obj
 0000:fff8f000       _volmd                     00400000     BouncingBall.obj
 0000:fff8f000       _volmd                     00400000     BouncingBall.obj
 0000:fff8f000       _volmd                     00400000     BouncingBall.obj
 0002:fffac000       __catchsym$??$?6U?$char_traits@D@std@@@std@@YAAAV?$basic_ostream@DU?$char_traits@D@std@@@0@AAV10@PBD@Z$3 00400000     BouncingBallMain.obj
 0002:fffac000       __catchsym$??$_Insert_string@DU?$char_traits@D@std@@I@std@@YAAAV?$basic_ostream@DU?$char_traits@D@std@@@0@AAV10@QBDI@Z$3 00400000     BouncingBallMain.obj
 0002:fffac000       __catchsym$??$_Resize_reallocate@U_Value_init_tag@std@@@?$vector@PAVDisplayableObject@@V?$allocator@PAVDisplayableObject@@@std@@@std@@AAEXIABU_Value_init_tag@1@@Z$2 00400000     BouncingBallMain.obj
 0002:fffac000       __ehfuncinfo$??$_Deallocate@$07$0A@@std@@YAXPAXI@Z 00400000     BouncingBallMain.obj
 0002:fffac000       __ehfuncinfo$??$_Deallocate_plain@V?$allocator@U_Container_proxy@std@@@std@@@std@@YAXAAV?$allocator@U_Container_proxy@std@@@0@QAU_Container_proxy@0@@Z 00400000     BouncingBallMain.obj
 0002:fffac000       __ehfuncinfo$??$_Freenode0@V?$allocator@U?$_Tree_node@U?$pair@$$CBV?$basic_string@DU?$char_traits@D@std@@V?$allocator@D@2@@std@@V?$weak_ptr@VRawImageData@@@2@@std@@PAX@std@@@std@@@?$_Tree_node@U?$pair@$$CBV?$basic_string@DU?$char_traits@D@std@@V?$allocator@D@2@@std@@V?$weak_ptr@VRawImageData@@@2@@std@@PAX@std@@SAXAAV?$allocator@U?$_Tree_node@U?$pair@$$CBV?$basic_string@DU?$char_traits@D@std@@V?$allocator@D@2@@std@@V?$weak_ptr@VRawImageData@@@2@@std@@PAX@std@@@1@PAU01@@Z 00400000     BouncingBallMain.obj
 0002:fffac000       __ehfuncinfo$??$_Freenode@V?$allocator@U?$_Tree_node@U?$pair@$$CBV?$basic_string@DU?$char_traits@D@std@@V?$allocator@D@2@@std@@V?$weak_ptr@VRawImageData@@@2@@std@@PAX@std@@@std@@@?$_Tree_node@U?$pair@$$CBV?$basic_string@DU?$char_traits@D@std@@V?$allocator@D@2@@std@@V?$weak_ptr@VRawImageData@@@2@@std@@PAX@std@@SAXAAV?$allocator@U?$_Tree_node@U?$pair@$$CBV?$basic_string@DU?$char_traits@D@std@@V?$allocator@D@2@@std@@V?$weak_ptr@VRawImageData@@@2@@std@@PAX@std@@@1@PAU01@@Z 00400000     BouncingBallMain.obj
 0002:fffac000       __ehfuncinfo$??0?$basic_string@DU?$char_traits@D@std@@V?$allocator@D@2@@std@@QAE@$$QAV01@@Z 00400000     BouncingBallMain.obj
 0002:fffac000       __ehfuncinfo$??1?$_Alloc_construct_ptr@V?$allocator@U?$_Tree_node@U?$pair@$$CBV?$basic_string@DU?$char_traits@D@std@@V?$allocator@D@2@@std@@V?$shared_ptr@VRawImageData@@@2@@std@@PAX@std@@@std@@@std@@QAE@XZ 00400000     BouncingBallMain.obj
 0002:fffac000       __ehfuncinfo$??1?$_Alloc_construct_ptr@V?$allocator@U?$_Tree_node@U?$pair@$$CBV?$basic_string@DU?$char_traits@D@std@@V?$allocator@D@2@@std@@V?$weak_ptr@VRawImageData@@@2@@std@@PAX@std@@@std@@@std@@QAE@XZ 00400000     BouncingBallMain.obj
 0002:fffac000       __ehfuncinfo$??1?$_Tree_temp_node@V?$allocator@U?$_Tree_node@U?$pair@$$CBV?$basic_string@DU?$char_traits@D@std@@V?$allocator@D@2@@std@@V?$shared_ptr@VRawImageData@@@2@@std@@PAX@std@@@std@@@std@@QAE@XZ 00400000     BouncingBallMain.obj
 0002:fffac000       __ehfuncinfo$??1?$_Tree_temp_node@V?$allocator@U?$_Tree_node@U?$pair@$$CBV?$basic_string@DU?$char_traits@D@std@@V?$allocator@D@2@@std@@V?$weak_ptr@VRawImageData@@@2@@std@@PAX@std@@@std@@@std@@QAE@XZ 00400000     BouncingBallMain.obj
 0002:fffac000       __ehfuncinfo$??1RawImageData@@QAE@XZ 00400000     BouncingBallMain.obj
 0002:fffac000       __ehfuncinfo$??1_Sentry_base@?$basic_ostream@DU?$char_traits@D@std@@@std@@QAE@XZ 00400000     BouncingBallMain.obj
 0002:fffac000       __ehfuncinfo$??1sentry@?$basic_ostream@DU?$char_traits@D@std@@@std@@QAE@XZ 00400000     BouncingBallMain.obj
 0002:fffac000       __ehfuncinfo$?_Take_contents@?$basic_string@DU?$char_traits@D@std@@V?$allocator@D@2@@std@@AAEXAAV12@@Z 00400000     BouncingBallMain.obj
 0002:fffac000       __ehfuncinfo$?_Tidy_deallocate@?$basic_string@DU?$char_traits@D@std@@V?$allocator@D@2@@std@@AAEXXZ 00400000     BouncingBallMain.obj
 0002:fffac000       __ehfuncinfo$?getImagePtrbyURL@ImageManager@@QAE?AV?$shared_ptr@VRawImageData@@@std@@V?$basic_string@DU?$char_traits@D@std@@V?$allocator@D@2@@3@_N1@Z 00400000     BouncingBallMain.obj
 0001:fffff000       __ehhandler$??$_Deallocate@$07$0A@@std@@YAXPAXI@Z 00400000 f   BouncingBallMain.obj
 0001:fffff000       __ehhandler$??$_Deallocate_plain@V?$allocator@U_Container_proxy@std@@@std@@@std@@YAXAAV?$allocator@U_Container_proxy@std@@@0@QAU_Container_proxy@0@@Z 00400000 f   BouncingBallMain.obj
 0001:fffff000       __ehhandler$??$_Freenode0@V?$allocator@U?$_Tree_node@U?$pair@$$CBV?$basic_string@DU?$char_traits@D@std@@V?$allocator@D@2@@std@@V?$weak_ptr@VRawImageData@@@2@@std@@PAX@std@@@std@@@?$_Tree_node@U?$pair@$$CBV?$basic_string@DU?$char_traits@D@std@@V?$allocator@D@2@@std@@V?$weak_ptr@VRawImageData@@@2@@std@@PAX@std@@SAXAAV?$allocator@U?$_Tree_node@U?$pair@$$CBV?$basic_string@DU?$char_traits@D@std@@V?$allocator@D@2@@std@@V?$weak_ptr@VRawImageData@@@2@@std@@PAX@std@@@1@PAU01@@Z 00400000 f   BouncingBallMain.obj
 0001:fffff000       __ehhandler$??$_Freenode@V?$allocator@U?$_Tree_node@U?$pair@$$CBV?$basic_string@DU?$char_traits@D@std@@V?$allocator@D@2@@std@@V?$weak_ptr@VRawImageData@@@2@@std@@PAX@std@@@std@@@?$_Tree_node@U?$pair@$$CBV?$basic_string@DU?$char_traits@D@std@@V?$allocator@D@2@@std@@V?$weak_ptr@VRawImageData@@@2@@std@@PAX@std@@SAXAAV?$allocator@U?$_Tree_node@U?$pair@$$CBV?$basic_string@DU?$char_traits@D@std@@V?$allocator@D@2@@std@@V?$weak_ptr@VRawImageData@@@2@@std@@PAX@std@@@1@PAU01@@Z 00400000 f   BouncingBallMain.obj
 0001:fffff000       __ehhandler$??$_Resize_reallocate@U_Value_init_tag@std@@@?$vector@PAVDisplayableObject@@V?$allocator@PAVDisplayableObject@@@std@@@std@@AAEXIABU_Value_init_tag@1@@Z 00400000 f   BouncingBallMain.obj
 0001:fffff000       __ehhandler$??0?$basic_string@DU?$char_traits@D@std@@V?$allocator@D@2@@std@@QAE@$$QAV01@@Z 00400000 f   BouncingBallMain.obj
 0001:fffff000       __ehhandler$??1?$_Alloc_construct_ptr@V?$allocator@U?$_Tree_node@U?$pair@$$CBV?$basic_string@DU?$char_traits@D@std@@V?$allocator@D@2@@std@@V?$shared_ptr@VRawImageData@@@2@@std@@PAX@std@@@std@@@std@@QAE@XZ 00400000 f   BouncingBallMain.obj
 0001:fffff000       __ehhandler$??1?$_Alloc_construct_ptr@V?$allocator@U?$_Tree_node@U?$pair@$$CBV?$basic_string@DU?$char_traits@D@std@@V?$allocator@D@2@@std@@V?$weak_ptr@VRawImageData@@@2@@std@@PAX@std@@@std@@@std@@QAE@XZ 00400000 f   BouncingBallMain.obj
 0001:fffff000       __ehhandler$??1?$_Tree_temp_node@V?$allocator@U?$_Tree_node@U?$pair@$$CBV?$basic_string@DU?$char_traits@D@std@@V?$allocator@D@2@@std@@V?$shared_ptr@VRawImageData@@@2@@std@@PAX@std@@@std@@@std@@QAE@XZ 00400000 f   BouncingBallMain.obj
 0001:fffff000       __ehhandler$??1?$_Tree_temp_node@V?$allocator@U?$_Tree_node@U?$pair@$$CBV?$basic_string@DU?$char_traits@D@std@@V?$allocator@D@2@@std@@V?$weak_ptr@VRawImageData@@@2@@std@@PAX@std@@@std@@@std@@QAE@XZ 00400000 f   BouncingBallMain.obj
 0001:fffff000       __ehhandler$??1RawImageData@@QAE@XZ 00400000 f   BouncingBallMain.obj
 0001:fffff000       __ehhandler$??1_Sentry_base@?$basic_ostream@DU?$char_traits@D@std@@@std@@QAE@XZ 00400000 f   BouncingBallMain.obj
 0001:fffff000       __ehhandler$??1sentry@?$basic_ostream@DU?$char_traits@D@std@@@std@@QAE@XZ 00400000 f   BouncingBallMain.obj
 0001:fffff000       __ehhandler$?_Take_contents@?$basic_string@DU?$char_traits@D@std@@V?$allocator@D@2@@std@@AAEXAAV12@@Z 00400000 f   BouncingBallMain.obj
 0001:fffff000       __ehhandler$?_Tidy_deallocate@?$basic_string@DU?$char_traits@D@std@@V?$allocator@D@2@@std@@AAEXXZ 00400000 f   BouncingBallMain.obj
 0001:fffff000       __unwindfunclet$??$?0U?$pair@V?$basic_string@DU?$char_traits@D@std@@V?$allocator@D@2@@std@@V?$shared_ptr@VRawImageData@@@2@@std@@@?$_Tree_temp_node@V?$allocator@U?$_Tree_node@U?$pair@$$CBV?$basic_string@DU?$char_traits@D@std@@V?$allocator@D@2@@std@@V?$shared_ptr@VRawImageData@@@2@@std@@PAX@std@@@std@@@std@@QAE@AAV?$allocator@U?$_Tree_node@U?$pair@$$CBV?$basic_string@DU?$char_traits@D@std@@V?$allocator@D@2@@std@@V?$shared_ptr@VRawImageData@@@2@@std@@PAX@std@@@1@PAU?$_Tree_node@U?$pair@$$CBV?$basic_string@DU?$char_traits@D@std@@V?$allocator@D@2@@std@@V?$shared_ptr@VRawImageData@@@2@@std@@PAX@1@$$QAU?$pair@V?$basic_string@DU?$char_traits@D@std@@V?$allocator@D@2@@std@@V?$shared_ptr@VRawImageData@@@2@@1@@Z$0 00400000 f   BouncingBallMain.obj
 0001:fffff000       __unwindfunclet$??$?0U?$pair@V?$basic_string@DU?$char_traits@D@std@@V?$allocator@D@2@@std@@V?$weak_ptr@VRawImageData@@@2@@std@@@?$_Tree_temp_node@V?$allocator@U?$_Tree_node@U?$pair@$$CBV?$basic_string@DU?$char_traits@D@std@@V?$allocator@D@2@@std@@V?$weak_ptr@VRawImageData@@@2@@std@@PAX@std@@@std@@@std@@QAE@AAV?$allocator@U?$_Tree_node@U?$pair@$$CBV?$basic_string@DU?$char_traits@D@std@@V?$allocator@D@2@@std@@V?$weak_ptr@VRawImageData@@@2@@std@@PAX@std@@@1@PAU?$_Tree_node@U?$pair@$$CBV?$basic_string@DU?$char_traits@D@std@@V?$allocator@D@2@@std@@V?$weak_ptr@VRawImageData@@@2@@std@@PAX@1@$$QAU?$pair@V?$basic_string@DU?$char_traits@D@std@@V?$allocator@D@2@@std@@V?$weak_ptr@VRawImageData@@@2@@1@@Z$0 00400000 f   BouncingBallMain.obj
 0001:fffff000       __unwindfunclet$??$?0VRawImageData@@$0A@@?$shared_ptr@VRawImageData@@@std@@QAE@PAVRawImageData@@@Z$0 00400000 f   BouncingBallMain.obj
 0001:fffff000       __unwindfunclet$??$?6U?$char_traits@D@std@@@std@@YAAAV?$basic_ostream@DU?$char_traits@D@std@@@0@AAV10@PBD@Z$2 00400000 f   BouncingBallMain.obj
